 csgo-x86

 Timestamp is 63f90897 (Fri Feb 24 19:57:27 2023)

 Preferred load address is 10000000

 Start         Length     Name                   Class
 0001:00000000 00003780H .text                   CODE
 0001:00003780 00008630H .text$di                CODE
 0001:0000bdb0 0017faf0H .text$mn                CODE
 0001:0018b8a0 000008aaH .text$yd                CODE
 0002:00000000 0002023aH .init                   CODE
 0003:00000000 00010316H .prot3                  CODE
 0004:00000000 00000a2dH .prot2                  CODE
 0005:00000000 00000f41H .prot0                  CODE
 0006:00000000 00000766H .prot1                  CODE
 0007:00000000 00000280H .idata$5                DATA
 0007:00000280 00000004H .CRT$XCA                DATA
 0007:00000284 00000620H .CRT$XCU                DATA
 0007:000008a4 00000004H .CRT$XCZ                DATA
 0007:000008a8 00000004H .CRT$XIA                DATA
 0007:000008ac 00000004H .CRT$XIZ                DATA
 0007:000008b0 00000004H .CRT$XPA                DATA
 0007:000008b4 00000004H .CRT$XPZ                DATA
 0007:000008b8 00000004H .CRT$XTA                DATA
 0007:000008bc 00000004H .CRT$XTZ                DATA
 0007:000008c0 000b8080H .rdata                  DATA
 0007:000b8940 00000010H .rdata$Z                DATA
 0007:000b894d 00000000H .edata                  DATA
 0007:000b8950 000159acH .rdata$voltmd           DATA
 0007:000ce2fc 00000078H .idata$2                DATA
 0007:000ce374 00000014H .idata$3                DATA
 0007:000ce388 00000280H .idata$4                DATA
 0007:000ce608 00000958H .idata$6                DATA
 0008:00000000 00003288H .data                   DATA
 0008:00003288 00000cb4H .bss                    DATA
 0009:00000000 00000498H .ldr                    DATA

  Address         Publics by Value              Rva+Base       Lib:Object

 0000:00000000       ___AbsoluteZero            00000000     <absolute>
 0000:00000000       ___arm64x_extra_rfe_table  00000000     <absolute>
 0000:00000000       ___arm64x_extra_rfe_table_size 00000000     <absolute>
 0000:00000000       ___arm64x_native_entrypoint 00000000     <absolute>
 0000:00000000       ___arm64x_redirection_metadata 00000000     <absolute>
 0000:00000000       ___arm64x_redirection_metadata_count 00000000     <absolute>
 0000:00000000       ___dynamic_value_reloc_table 00000000     <absolute>
 0000:00000000       ___enclave_config          00000000     <absolute>
 0000:00000000       ___guard_check_icall_a64n_fptr 00000000     <absolute>
 0000:00000000       ___guard_eh_cont_count     00000000     <absolute>
 0000:00000000       ___guard_eh_cont_table     00000000     <absolute>
 0000:00000000       ___guard_fids_count        00000000     <absolute>
 0000:00000000       ___guard_fids_table        00000000     <absolute>
 0000:00000000       ___guard_flags             00000000     <absolute>
 0000:00000000       ___guard_iat_count         00000000     <absolute>
 0000:00000000       ___guard_iat_table         00000000     <absolute>
 0000:00000000       ___guard_longjmp_count     00000000     <absolute>
 0000:00000000       ___guard_longjmp_table     00000000     <absolute>
 0000:00000000       ___hybrid_auxiliary_iat    00000000     <absolute>
 0000:00000000       ___hybrid_auxiliary_iat_copy 00000000     <absolute>
 0000:00000000       ___hybrid_code_map         00000000     <absolute>
 0000:00000000       ___hybrid_code_map_count   00000000     <absolute>
 0000:00000000       ___x64_code_ranges_to_entry_points 00000000     <absolute>
 0000:00000000       ___x64_code_ranges_to_entry_points_count 00000000     <absolute>
 0001:00000000       _lj_BC_ISLT                10001000 f   luajit-x86:lj_vm_x86.obj
 0001:00000000       _lj_vm_asm_begin           10001000     luajit-x86:lj_vm_x86.obj
 0001:00000041       _lj_BC_ISGE                10001041 f   luajit-x86:lj_vm_x86.obj
 0001:00000082       _lj_BC_ISLE                10001082 f   luajit-x86:lj_vm_x86.obj
 0001:000000c3       _lj_BC_ISGT                100010c3 f   luajit-x86:lj_vm_x86.obj
 0001:00000104       _lj_BC_ISEQV               10001104 f   luajit-x86:lj_vm_x86.obj
 0001:00000183       _lj_BC_ISNEV               10001183 f   luajit-x86:lj_vm_x86.obj
 0001:00000205       _lj_BC_ISEQS               10001205 f   luajit-x86:lj_vm_x86.obj
 0001:00000241       _lj_BC_ISNES               10001241 f   luajit-x86:lj_vm_x86.obj
 0001:0000027d       _lj_BC_ISEQN               1000127d f   luajit-x86:lj_vm_x86.obj
 0001:000002bd       _lj_BC_ISNEN               100012bd f   luajit-x86:lj_vm_x86.obj
 0001:000002fd       _lj_BC_ISEQP               100012fd f   luajit-x86:lj_vm_x86.obj
 0001:00000330       _lj_BC_ISNEP               10001330 f   luajit-x86:lj_vm_x86.obj
 0001:00000362       _lj_BC_ISTC                10001362 f   luajit-x86:lj_vm_x86.obj
 0001:00000394       _lj_BC_ISFC                10001394 f   luajit-x86:lj_vm_x86.obj
 0001:000003c6       _lj_BC_IST                 100013c6 f   luajit-x86:lj_vm_x86.obj
 0001:000003ee       _lj_BC_ISF                 100013ee f   luajit-x86:lj_vm_x86.obj
 0001:00000416       _lj_BC_ISTYPE              10001416 f   luajit-x86:lj_vm_x86.obj
 0001:00000431       _lj_BC_ISNUM               10001431 f   luajit-x86:lj_vm_x86.obj
 0001:0000044d       _lj_BC_MOV                 1000144d f   luajit-x86:lj_vm_x86.obj
 0001:0000046c       _lj_BC_NOT                 1000146c f   luajit-x86:lj_vm_x86.obj
 0001:0000048b       _lj_BC_UNM                 1000148b f   luajit-x86:lj_vm_x86.obj
 0001:000004c2       _lj_BC_LEN                 100014c2 f   luajit-x86:lj_vm_x86.obj
 0001:0000050b       _lj_BC_ADDVN               1000150b f   luajit-x86:lj_vm_x86.obj
 0001:0000053c       _lj_BC_SUBVN               1000153c f   luajit-x86:lj_vm_x86.obj
 0001:0000056d       _lj_BC_MULVN               1000156d f   luajit-x86:lj_vm_x86.obj
 0001:0000059e       _lj_BC_DIVVN               1000159e f   luajit-x86:lj_vm_x86.obj
 0001:000005cf       _lj_BC_MODVN               100015cf f   luajit-x86:lj_vm_x86.obj
 0001:00000605       _lj_BC_ADDNV               10001605 f   luajit-x86:lj_vm_x86.obj
 0001:00000636       _lj_BC_SUBNV               10001636 f   luajit-x86:lj_vm_x86.obj
 0001:00000667       _lj_BC_MULNV               10001667 f   luajit-x86:lj_vm_x86.obj
 0001:00000698       _lj_BC_DIVNV               10001698 f   luajit-x86:lj_vm_x86.obj
 0001:000006c9       _lj_BC_MODNV               100016c9 f   luajit-x86:lj_vm_x86.obj
 0001:000006e9       _lj_BC_ADDVV               100016e9 f   luajit-x86:lj_vm_x86.obj
 0001:00000725       _lj_BC_SUBVV               10001725 f   luajit-x86:lj_vm_x86.obj
 0001:00000761       _lj_BC_MULVV               10001761 f   luajit-x86:lj_vm_x86.obj
 0001:0000079d       _lj_BC_DIVVV               1000179d f   luajit-x86:lj_vm_x86.obj
 0001:000007d9       _lj_BC_MODVV               100017d9 f   luajit-x86:lj_vm_x86.obj
 0001:00000804       _lj_BC_POW                 10001804 f   luajit-x86:lj_vm_x86.obj
 0001:00000856       _lj_BC_CAT                 10001856 f   luajit-x86:lj_vm_x86.obj
 0001:000008ae       _lj_BC_KSTR                100018ae f   luajit-x86:lj_vm_x86.obj
 0001:000008cf       _lj_BC_KCDATA              100018cf f   luajit-x86:lj_vm_x86.obj
 0001:000008f0       _lj_BC_KSHORT              100018f0 f   luajit-x86:lj_vm_x86.obj
 0001:0000090d       _lj_BC_KNUM                1000190d f   luajit-x86:lj_vm_x86.obj
 0001:00000928       _lj_BC_KPRI                10001928 f   luajit-x86:lj_vm_x86.obj
 0001:0000093f       _lj_BC_KNIL                1000193f f   luajit-x86:lj_vm_x86.obj
 0001:00000969       _lj_BC_UGET                10001969 f   luajit-x86:lj_vm_x86.obj
 0001:00000991       _lj_BC_USETV               10001991 f   luajit-x86:lj_vm_x86.obj
 0001:000009e4       _lj_BC_USETS               100019e4 f   luajit-x86:lj_vm_x86.obj
 0001:00000a32       _lj_BC_USETN               10001a32 f   luajit-x86:lj_vm_x86.obj
 0001:00000a56       _lj_BC_USETP               10001a56 f   luajit-x86:lj_vm_x86.obj
 0001:00000a76       _lj_BC_UCLO                10001a76 f   luajit-x86:lj_vm_x86.obj
 0001:00000aa8       _lj_BC_FNEW                10001aa8 f   luajit-x86:lj_vm_x86.obj
 0001:00000aee       _lj_BC_TNEW                10001aee f   luajit-x86:lj_vm_x86.obj
 0001:00000b5f       _lj_BC_TDUP                10001b5f f   luajit-x86:lj_vm_x86.obj
 0001:00000bb6       _lj_BC_GGET                10001bb6 f   luajit-x86:lj_vm_x86.obj
 0001:00000bc6       _lj_BC_GSET                10001bc6 f   luajit-x86:lj_vm_x86.obj
 0001:00000bd6       _lj_BC_TGETV               10001bd6 f   luajit-x86:lj_vm_x86.obj
 0001:00000c6b       _lj_BC_TGETS               10001c6b f   luajit-x86:lj_vm_x86.obj
 0001:00000ce9       _lj_BC_TGETB               10001ce9 f   luajit-x86:lj_vm_x86.obj
 0001:00000d50       _lj_BC_TGETR               10001d50 f   luajit-x86:lj_vm_x86.obj
 0001:00000d8a       _lj_BC_TSETV               10001d8a f   luajit-x86:lj_vm_x86.obj
 0001:00000e36       _lj_BC_TSETS               10001e36 f   luajit-x86:lj_vm_x86.obj
 0001:00000f25       _lj_BC_TSETB               10001f25 f   luajit-x86:lj_vm_x86.obj
 0001:00000fa3       _lj_BC_TSETM               10001fa3 f   luajit-x86:lj_vm_x86.obj
 0001:00001031       _lj_BC_TSETR               10002031 f   luajit-x86:lj_vm_x86.obj
 0001:0000108a       _lj_BC_CALLM               1000208a f   luajit-x86:lj_vm_x86.obj
 0001:000010b7       _lj_BC_CALL                100020b7 f   luajit-x86:lj_vm_x86.obj
 0001:000010e0       _lj_BC_CALLMT              100020e0 f   luajit-x86:lj_vm_x86.obj
 0001:000010e4       _lj_BC_CALLT               100020e4 f   luajit-x86:lj_vm_x86.obj
 0001:00001174       _lj_BC_ITERC               10002174 f   luajit-x86:lj_vm_x86.obj
 0001:000011bf       _lj_BC_ITERN               100021bf f   luajit-x86:lj_vm_x86.obj
 0001:000011d2       _lj_vm_IITERN              100021d2 f   luajit-x86:lj_vm_x86.obj
 0001:0000127a       _lj_BC_VARG                1000227a f   luajit-x86:lj_vm_x86.obj
 0001:00001336       _lj_BC_ISNEXT              10002336 f   luajit-x86:lj_vm_x86.obj
 0001:000013a8       _lj_BC_RETM                100023a8 f   luajit-x86:lj_vm_x86.obj
 0001:000013ac       _lj_BC_RET                 100023ac f   luajit-x86:lj_vm_x86.obj
 0001:0000142d       _lj_BC_RET0                1000242d f   luajit-x86:lj_vm_x86.obj
 0001:00001484       _lj_BC_RET1                10002484 f   luajit-x86:lj_vm_x86.obj
 0001:000014ed       _lj_BC_FORI                100024ed f   luajit-x86:lj_vm_x86.obj
 0001:00001544       _lj_BC_JFORI               10002544 f   luajit-x86:lj_vm_x86.obj
 0001:000015a3       _lj_BC_FORL                100025a3 f   luajit-x86:lj_vm_x86.obj
 0001:000015b6       _lj_BC_IFORL               100025b6 f   luajit-x86:lj_vm_x86.obj
 0001:000015fb       _lj_BC_JFORL               100025fb f   luajit-x86:lj_vm_x86.obj
 0001:0000163d       _lj_BC_ITERL               1000263d f   luajit-x86:lj_vm_x86.obj
 0001:00001650       _lj_BC_IITERL              10002650 f   luajit-x86:lj_vm_x86.obj
 0001:0000167b       _lj_BC_JITERL              1000267b f   luajit-x86:lj_vm_x86.obj
 0001:000016a1       _lj_BC_LOOP                100026a1 f   luajit-x86:lj_vm_x86.obj
 0001:000016b4       _lj_BC_ILOOP               100026b4 f   luajit-x86:lj_vm_x86.obj
 0001:000016c5       _lj_BC_JLOOP               100026c5 f   luajit-x86:lj_vm_x86.obj
 0001:000016e3       _lj_BC_JMP                 100026e3 f   luajit-x86:lj_vm_x86.obj
 0001:000016fb       _lj_BC_FUNCF               100026fb f   luajit-x86:lj_vm_x86.obj
 0001:0000170e       _lj_BC_IFUNCF              1000270e f   luajit-x86:lj_vm_x86.obj
 0001:0000174b       _lj_BC_JFUNCF              1000274b f   luajit-x86:lj_vm_x86.obj
 0001:00001780       _lj_BC_FUNCV               10002780 f   luajit-x86:lj_vm_x86.obj
 0001:00001780       _lj_BC_IFUNCV              10002780 f   luajit-x86:lj_vm_x86.obj
 0001:000017f5       _lj_BC_JFUNCV              100027f5 f   luajit-x86:lj_vm_x86.obj
 0001:000017f6       _lj_BC_FUNCC               100027f6 f   luajit-x86:lj_vm_x86.obj
 0001:00001848       _lj_BC_FUNCCW              10002848 f   luajit-x86:lj_vm_x86.obj
 0001:000018a2       _lj_vm_returnp             100028a2 f   luajit-x86:lj_vm_x86.obj
 0001:000018c2       _lj_vm_returnc             100028c2 f   luajit-x86:lj_vm_x86.obj
 0001:000018db       _lj_vm_return              100028db f   luajit-x86:lj_vm_x86.obj
 0001:0000192a       _lj_vm_leave_cp            1000292a f   luajit-x86:lj_vm_x86.obj
 0001:00001933       _lj_vm_leave_unw           10002933 f   luajit-x86:lj_vm_x86.obj
 0001:00001979       _lj_vm_unwind_yield        10002979 f   luajit-x86:lj_vm_x86.obj
 0001:0000197d       @lj_vm_unwind_c@8          1000297d f   luajit-x86:lj_vm_x86.obj
 0001:0000198c       _lj_vm_unwind_c_eh         1000298c f   luajit-x86:lj_vm_x86.obj
 0001:0000199c       @lj_vm_unwind_ff@4         1000299c f   luajit-x86:lj_vm_x86.obj
 0001:0000199c       _lj_vm_unwind_rethrow      1000299c f   luajit-x86:lj_vm_x86.obj
 0001:000019ac       _lj_vm_unwind_ff_eh        100029ac f   luajit-x86:lj_vm_x86.obj
 0001:000019df       @lj_vm_rtlunwind@16        100029df f   luajit-x86:lj_vm_x86.obj
 0001:000019f4       _lj_vm_growstack_c         100029f4 f   luajit-x86:lj_vm_x86.obj
 0001:000019fb       _lj_vm_growstack_v         100029fb f   luajit-x86:lj_vm_x86.obj
 0001:00001a00       _lj_vm_growstack_f         10002a00 f   luajit-x86:lj_vm_x86.obj
 0001:00001a40       _lj_vm_resume              10002a40 f   luajit-x86:lj_vm_x86.obj
 0001:00001ac5       _lj_vm_pcall               10002ac5 f   luajit-x86:lj_vm_x86.obj
 0001:00001ae6       _lj_vm_call                10002ae6 f   luajit-x86:lj_vm_x86.obj
 0001:00001b46       _lj_vm_call_dispatch       10002b46 f   luajit-x86:lj_vm_x86.obj
 0001:00001b53       _lj_vm_call_dispatch_f     10002b53 f   luajit-x86:lj_vm_x86.obj
 0001:00001b69       _lj_vm_cpcall              10002b69 f   luajit-x86:lj_vm_x86.obj
 0001:00001be3       _lj_cont_dispatch          10002be3 f   luajit-x86:lj_vm_x86.obj
 0001:00001c1f       _lj_cont_cat               10002c1f f   luajit-x86:lj_vm_x86.obj
 0001:00001c4e       _lj_vmeta_tgets            10002c4e f   luajit-x86:lj_vm_x86.obj
 0001:00001c77       _lj_vmeta_tgetb            10002c77 f   luajit-x86:lj_vm_x86.obj
 0001:00001c8b       _lj_vmeta_tgetv            10002c8b f   luajit-x86:lj_vm_x86.obj
 0001:00001cbb       _lj_cont_ra                10002cbb f   luajit-x86:lj_vm_x86.obj
 0001:00001cf4       _lj_vmeta_tgetr            10002cf4 f   luajit-x86:lj_vm_x86.obj
 0001:00001d1a       _lj_vmeta_tsets            10002d1a f   luajit-x86:lj_vm_x86.obj
 0001:00001d43       _lj_vmeta_tsetb            10002d43 f   luajit-x86:lj_vm_x86.obj
 0001:00001d57       _lj_vmeta_tsetv            10002d57 f   luajit-x86:lj_vm_x86.obj
 0001:00001d97       _lj_cont_nop               10002d97 f   luajit-x86:lj_vm_x86.obj
 0001:00001dd1       _lj_vmeta_tsetr            10002dd1 f   luajit-x86:lj_vm_x86.obj
 0001:00001df9       _lj_vmeta_comp             10002df9 f   luajit-x86:lj_vm_x86.obj
 0001:00001e4f       _lj_cont_condt             10002e4f f   luajit-x86:lj_vm_x86.obj
 0001:00001e5a       _lj_cont_condf             10002e5a f   luajit-x86:lj_vm_x86.obj
 0001:00001e60       _lj_vmeta_equal            10002e60 f   luajit-x86:lj_vm_x86.obj
 0001:00001e84       _lj_vmeta_equal_cd         10002e84 f   luajit-x86:lj_vm_x86.obj
 0001:00001e9e       _lj_vmeta_istype           10002e9e f   luajit-x86:lj_vm_x86.obj
 0001:00001ec5       _lj_vmeta_arith_vn         10002ec5 f   luajit-x86:lj_vm_x86.obj
 0001:00001ec5       _lj_vmeta_arith_vno        10002ec5 f   luajit-x86:lj_vm_x86.obj
 0001:00001eca       _lj_vmeta_arith_nv         10002eca f   luajit-x86:lj_vm_x86.obj
 0001:00001eca       _lj_vmeta_arith_nvo        10002eca f   luajit-x86:lj_vm_x86.obj
 0001:00001ed3       _lj_vmeta_unm              10002ed3 f   luajit-x86:lj_vm_x86.obj
 0001:00001eda       _lj_vmeta_arith_vv         10002eda f   luajit-x86:lj_vm_x86.obj
 0001:00001eda       _lj_vmeta_arith_vvo        10002eda f   luajit-x86:lj_vm_x86.obj
 0001:00001f15       _lj_vmeta_binop            10002f15 f   luajit-x86:lj_vm_x86.obj
 0001:00001f29       _lj_vmeta_len              10002f29 f   luajit-x86:lj_vm_x86.obj
 0001:00001f43       _lj_vmeta_call_ra          10002f43 f   luajit-x86:lj_vm_x86.obj
 0001:00001f47       _lj_vmeta_call             10002f47 f   luajit-x86:lj_vm_x86.obj
 0001:00001f9f       _lj_vmeta_for              10002f9f f   luajit-x86:lj_vm_x86.obj
 0001:00001fc9       _lj_ff_assert              10002fc9 f   luajit-x86:lj_vm_x86.obj
 0001:00002010       _lj_ff_type                10003010 f   luajit-x86:lj_vm_x86.obj
 0001:00002041       _lj_ff_getmetatable        10003041 f   luajit-x86:lj_vm_x86.obj
 0001:000020cf       _lj_ff_setmetatable        100030cf f   luajit-x86:lj_vm_x86.obj
 0001:00002129       _lj_ff_rawget              10003129 f   luajit-x86:lj_vm_x86.obj
 0001:0000216c       _lj_ff_tonumber            1000316c f   luajit-x86:lj_vm_x86.obj
 0001:00002188       _lj_ff_tostring            10003188 f   luajit-x86:lj_vm_x86.obj
 0001:000021ec       _lj_ff_next                100031ec f   luajit-x86:lj_vm_x86.obj
 0001:00002243       _lj_ff_pairs               10003243 f   luajit-x86:lj_vm_x86.obj
 0001:0000227c       _lj_ff_ipairs_aux          1000327c f   luajit-x86:lj_vm_x86.obj
 0001:000022d9       _lj_fff_res2               100032d9 f   luajit-x86:lj_vm_x86.obj
 0001:000022fa       _lj_fff_res0               100032fa f   luajit-x86:lj_vm_x86.obj
 0001:00002304       _lj_ff_ipairs              10003304 f   luajit-x86:lj_vm_x86.obj
 0001:0000233e       _lj_ff_pcall               1000333e f   luajit-x86:lj_vm_x86.obj
 0001:00002366       _lj_ff_xpcall              10003366 f   luajit-x86:lj_vm_x86.obj
 0001:0000239d       _lj_ff_coroutine_resume    1000339d f   luajit-x86:lj_vm_x86.obj
 0001:000024df       _lj_ff_coroutine_wrap_aux  100034df f   luajit-x86:lj_vm_x86.obj
 0001:000025ea       _lj_ff_coroutine_yield     100035ea f   luajit-x86:lj_vm_x86.obj
 0001:00002614       _lj_fff_resi               10003614 f   luajit-x86:lj_vm_x86.obj
 0001:00002614       _lj_fff_resn               10003614 f   luajit-x86:lj_vm_x86.obj
 0001:0000261c       _lj_ff_math_abs            1000361c f   luajit-x86:lj_vm_x86.obj
 0001:00002643       _lj_fff_resxmm0            10003643 f   luajit-x86:lj_vm_x86.obj
 0001:0000264b       _lj_fff_res1               1000364b f   luajit-x86:lj_vm_x86.obj
 0001:00002650       _lj_fff_res                10003650 f   luajit-x86:lj_vm_x86.obj
 0001:00002654       _lj_fff_res_               10003654 f   luajit-x86:lj_vm_x86.obj
 0001:00002692       _lj_ff_math_floor          10003692 f   luajit-x86:lj_vm_x86.obj
 0001:000026a7       _lj_ff_math_ceil           100036a7 f   luajit-x86:lj_vm_x86.obj
 0001:000026bc       _lj_ff_math_sqrt           100036bc f   luajit-x86:lj_vm_x86.obj
 0001:000026d8       _lj_ff_math_log            100036d8 f   luajit-x86:lj_vm_x86.obj
 0001:00002702       _lj_ff_math_log10          10003702 f   luajit-x86:lj_vm_x86.obj
 0001:0000272c       _lj_ff_math_exp            1000372c f   luajit-x86:lj_vm_x86.obj
 0001:00002756       _lj_ff_math_sin            10003756 f   luajit-x86:lj_vm_x86.obj
 0001:00002780       _lj_ff_math_cos            10003780 f   luajit-x86:lj_vm_x86.obj
 0001:000027aa       _lj_ff_math_tan            100037aa f   luajit-x86:lj_vm_x86.obj
 0001:000027d4       _lj_ff_math_asin           100037d4 f   luajit-x86:lj_vm_x86.obj
 0001:000027fe       _lj_ff_math_acos           100037fe f   luajit-x86:lj_vm_x86.obj
 0001:00002828       _lj_ff_math_atan           10003828 f   luajit-x86:lj_vm_x86.obj
 0001:00002852       _lj_ff_math_sinh           10003852 f   luajit-x86:lj_vm_x86.obj
 0001:0000287c       _lj_ff_math_cosh           1000387c f   luajit-x86:lj_vm_x86.obj
 0001:000028a6       _lj_ff_math_tanh           100038a6 f   luajit-x86:lj_vm_x86.obj
 0001:000028d0       _lj_ff_math_pow            100038d0 f   luajit-x86:lj_vm_x86.obj
 0001:0000290f       _lj_ff_math_atan2          1000390f f   luajit-x86:lj_vm_x86.obj
 0001:0000294e       _lj_ff_math_fmod           1000394e f   luajit-x86:lj_vm_x86.obj
 0001:0000298d       _lj_ff_math_ldexp          1000398d f   luajit-x86:lj_vm_x86.obj
 0001:000029b8       _lj_ff_math_frexp          100039b8 f   luajit-x86:lj_vm_x86.obj
 0001:00002a48       _lj_ff_math_modf           10003a48 f   luajit-x86:lj_vm_x86.obj
 0001:00002aa8       _lj_ff_math_min            10003aa8 f   luajit-x86:lj_vm_x86.obj
 0001:00002ae6       _lj_ff_math_max            10003ae6 f   luajit-x86:lj_vm_x86.obj
 0001:00002b24       _lj_ff_string_byte         10003b24 f   luajit-x86:lj_vm_x86.obj
 0001:00002b53       _lj_ff_string_char         10003b53 f   luajit-x86:lj_vm_x86.obj
 0001:00002b99       _lj_fff_newstr             10003b99 f   luajit-x86:lj_vm_x86.obj
 0001:00002bb0       _lj_fff_resstr             10003bb0 f   luajit-x86:lj_vm_x86.obj
 0001:00002bc5       _lj_ff_string_sub          10003bc5 f   luajit-x86:lj_vm_x86.obj
 0001:00002c62       _lj_fff_emptystr           10003c62 f   luajit-x86:lj_vm_x86.obj
 0001:00002c66       _lj_ff_string_reverse      10003c66 f   luajit-x86:lj_vm_x86.obj
 0001:00002cb8       _lj_ff_string_lower        10003cb8 f   luajit-x86:lj_vm_x86.obj
 0001:00002d0a       _lj_ff_string_upper        10003d0a f   luajit-x86:lj_vm_x86.obj
 0001:00002d5c       _lj_ff_bit_tobit           10003d5c f   luajit-x86:lj_vm_x86.obj
 0001:00002d8e       _lj_ff_bit_band            10003d8e f   luajit-x86:lj_vm_x86.obj
 0001:00002de8       _lj_ff_bit_bor             10003de8 f   luajit-x86:lj_vm_x86.obj
 0001:00002e42       _lj_ff_bit_bxor            10003e42 f   luajit-x86:lj_vm_x86.obj
 0001:00002e9c       _lj_ff_bit_bswap           10003e9c f   luajit-x86:lj_vm_x86.obj
 0001:00002ecd       _lj_ff_bit_bnot            10003ecd f   luajit-x86:lj_vm_x86.obj
 0001:00002efc       _lj_fff_resbit             10003efc f   luajit-x86:lj_vm_x86.obj
 0001:00002f05       _lj_fff_fallback_bit_op    10003f05 f   luajit-x86:lj_vm_x86.obj
 0001:00002f0e       _lj_ff_bit_lshift          10003f0e f   luajit-x86:lj_vm_x86.obj
 0001:00002f56       _lj_ff_bit_rshift          10003f56 f   luajit-x86:lj_vm_x86.obj
 0001:00002fa1       _lj_ff_bit_arshift         10003fa1 f   luajit-x86:lj_vm_x86.obj
 0001:00002fec       _lj_ff_bit_rol             10003fec f   luajit-x86:lj_vm_x86.obj
 0001:00003037       _lj_ff_bit_ror             10004037 f   luajit-x86:lj_vm_x86.obj
 0001:00003076       _lj_fff_fallback_2         10004076 f   luajit-x86:lj_vm_x86.obj
 0001:0000307d       _lj_fff_fallback_1         1000407d f   luajit-x86:lj_vm_x86.obj
 0001:00003082       _lj_fff_fallback           10004082 f   luajit-x86:lj_vm_x86.obj
 0001:000030d9       _lj_vm_call_tail           100040d9 f   luajit-x86:lj_vm_x86.obj
 0001:00003110       _lj_fff_gcstep             10004110 f   luajit-x86:lj_vm_x86.obj
 0001:00003142       _lj_vm_record              10004142 f   luajit-x86:lj_vm_x86.obj
 0001:0000315d       _lj_vm_rethook             1000415d f   luajit-x86:lj_vm_x86.obj
 0001:0000316a       _lj_vm_inshook             1000416a f   luajit-x86:lj_vm_x86.obj
 0001:000031ab       _lj_cont_hook              100041ab f   luajit-x86:lj_vm_x86.obj
 0001:000031b7       _lj_vm_hotloop             100041b7 f   luajit-x86:lj_vm_x86.obj
 0001:000031e7       _lj_vm_callhook            100041e7 f   luajit-x86:lj_vm_x86.obj
 0001:000031ed       _lj_vm_hotcall             100041ed f   luajit-x86:lj_vm_x86.obj
 0001:0000322e       _lj_cont_stitch            1000422e f   luajit-x86:lj_vm_x86.obj
 0001:000032c4       _lj_vm_profhook            100042c4 f   luajit-x86:lj_vm_x86.obj
 0001:000032df       _lj_vm_exit_handler        100042df f   luajit-x86:lj_vm_x86.obj
 0001:0000337f       _lj_vm_exit_interp         1000437f f   luajit-x86:lj_vm_x86.obj
 0001:000033f1       _lj_vm_floor               100043f1 f   luajit-x86:lj_vm_x86.obj
 0001:00003407       _lj_vm_floor_sse           10004407 f   luajit-x86:lj_vm_x86.obj
 0001:0000345e       _lj_vm_ceil                1000445e f   luajit-x86:lj_vm_x86.obj
 0001:00003474       _lj_vm_ceil_sse            10004474 f   luajit-x86:lj_vm_x86.obj
 0001:000034cf       _lj_vm_trunc               100044cf f   luajit-x86:lj_vm_x86.obj
 0001:000034e5       _lj_vm_trunc_sse           100044e5 f   luajit-x86:lj_vm_x86.obj
 0001:0000353f       _lj_vm_mod                 1000453f f   luajit-x86:lj_vm_x86.obj
 0001:000035b1       _lj_vm_cpuid               100045b1 f   luajit-x86:lj_vm_x86.obj
 0001:000035e1       _lj_vm_next                100045e1 f   luajit-x86:lj_vm_x86.obj
 0001:00003647       _lj_assert_bad_for_arg_type 10004647 f   luajit-x86:lj_vm_x86.obj
 0001:00003648       _lj_vm_ffi_callback        10004648 f   luajit-x86:lj_vm_x86.obj
 0001:000036d2       _lj_cont_ffi_callback      100046d2 f   luajit-x86:lj_vm_x86.obj
 0001:0000372b       @lj_vm_ffi_call@4          1000472b f   luajit-x86:lj_vm_x86.obj
 0001:0000bdb0       ?Get@ClientEntityList@sdk@csgo@aw@@SAPAV1234@XZ 1000cdb0 f i aimbot_base.obj
 0001:0000bdc0       ?GetDynamic@ClientEntityList@sdk@csgo@aw@@SAPAV1234@XZ 1000cdc0 f i aimbot_base.obj
 0001:0000bde0       ?GetDynamic@EngineClient@sdk@csgo@aw@@SAPAV1234@XZ 1000cde0 f i aimbot_base.obj
 0001:0000be00       ?GetDynamic@MaterialSystem@sdk@csgo@aw@@SAPAV1234@XZ 1000ce00 f i aimbot_base.obj
 0001:0000be20       ?GetDynamic@ModelRender@sdk@csgo@aw@@SAPAV1234@XZ 1000ce20 f i aimbot_base.obj
 0001:0000be40       ?GetDynamic@RenderToRTHelper@sdk@csgo@aw@@SAPAV1234@XZ 1000ce40 f i aimbot_base.obj
 0001:0000be60       ?GetDynamic@RenderView@sdk@csgo@aw@@SAPAV1234@XZ 1000ce60 f i aimbot_base.obj
 0001:0000be80       ?GetDynamic@StudioRender@sdk@csgo@aw@@SAPAV1234@XZ 1000ce80 f i aimbot_base.obj
 0001:0000bea0       ?IsValidTarget@AimbotBase@mod@csgo@aw@@QAE_NPAVCSPlayer@sdk@34@_N@Z 1000cea0 f   aimbot_base.obj
 0001:0000c080       ??$_Construct@$00PBD@?$basic_string@DU?$char_traits@D@std@@V?$allocator@D@2@@std@@AAEXQBDI@Z 1000d080 f i legit_aimbot.obj
 0001:0000cfc0       ??0LegitAimbot@impl@mod@csgo@aw@@QAE@XZ 1000dfc0 f   legit_aimbot.obj
 0001:0000d220       ??0Ray@sdk@csgo@aw@@QAE@ABVVector3@3@0@Z 1000e220 f i legit_aimbot.obj
 0001:0000d2f0       ??0bad_array_new_length@stdext@@QAE@XZ 1000e2f0 f i legit_aimbot.obj
 0001:0000d300       ??1?$basic_string@DU?$char_traits@D@std@@V?$allocator@D@2@@std@@QAE@XZ 1000e300 f i legit_aimbot.obj
 0001:0000d340       ??_E?$ModuleBaseImpl@VLegitAimbot@mod@csgo@aw@@V?$TypedObject@VLegitAimbot@mod@csgo@aw@@VModuleBase@4@@4@@aw@@UAEPAXI@Z 1000e340 f i legit_aimbot.obj
 0001:0000d340       ??_G?$ModuleBaseImpl@VLegitAimbot@mod@csgo@aw@@V?$TypedObject@VLegitAimbot@mod@csgo@aw@@VModuleBase@4@@4@@aw@@UAEPAXI@Z 1000e340 f i legit_aimbot.obj
 0001:0000d370       ??_E?$TypedObjectBase@VModuleBase@aw@@@aw@@UAEPAXI@Z 1000e370 f i legit_aimbot.obj
 0001:0000d370       ??_G?$TypedObjectBase@VModuleBase@aw@@@aw@@UAEPAXI@Z 1000e370 f i legit_aimbot.obj
 0001:0000d3a0       ??_ELegitAimbot@impl@mod@csgo@aw@@UAEPAXI@Z 1000e3a0 f i legit_aimbot.obj
 0001:0000d3a0       ??_GLegitAimbot@impl@mod@csgo@aw@@UAEPAXI@Z 1000e3a0 f i legit_aimbot.obj
 0001:0000d3d0       ??_Ebad_array_new_length@stdext@@UAEPAXI@Z 1000e3d0 f i legit_aimbot.obj
 0001:0000d3d0       ??_Gbad_array_new_length@stdext@@UAEPAXI@Z 1000e3d0 f i legit_aimbot.obj
 0001:0000d400       ??_Eexception@stdext@@UAEPAXI@Z 1000e400 f i legit_aimbot.obj
 0001:0000d400       ??_Gexception@stdext@@UAEPAXI@Z 1000e400 f i legit_aimbot.obj
 0001:0000d430       ?AimAtTarget@LegitAimbot@impl@mod@csgo@aw@@IAE_NPAVCSPlayer@sdk@45@AAVEulerAngles@5@AAVVector3@5@@Z 1000e430 f   legit_aimbot.obj
 0001:0000d970       ?Aimbot@LegitAimbot@impl@mod@csgo@aw@@IAEXPAVUserCmd@sdk@45@@Z 1000e970 f   legit_aimbot.obj
 0001:0000e180       ?AntiAim@LegitAimbot@impl@mod@csgo@aw@@IAEXPAVUserCmd@sdk@45@@Z 1000f180 f   legit_aimbot.obj
 0001:0000e3d0       ?CalcSmoothDelta@LegitAimbot@impl@mod@csgo@aw@@IAEXAAVEulerAngles@5@@Z 1000f3d0 f   legit_aimbot.obj
 0001:0000e590       ?CreateModule@?$ModuleWithFactory@VLegitAimbot@mod@csgo@aw@@@aw@@SAPAVLegitAimbot@mod@csgo@2@XZ 1000f590 f   legit_aimbot.obj
 0001:0000e5b0       ?CreateMove_Weapon@LegitAimbot@impl@mod@csgo@aw@@IAEXPAVUserCmd@sdk@45@@Z 1000f5b0 f   legit_aimbot.obj
 0001:0000eac0       ?Get@EngineClient@sdk@csgo@aw@@SAPAV1234@XZ 1000fac0 f i legit_aimbot.obj
 0001:0000ead0       ?GetAimPoints@LegitAimbot@impl@mod@csgo@aw@@IAEXPAVCSPlayer@sdk@45@PAVVector3@5@PAHPAUReplicatedRecord@345@@Z 1000fad0 f   legit_aimbot.obj
 0001:0000ef50       ?GetBacktrackingTime@LegitAimbot@impl@mod@csgo@aw@@UAEMXZ 1000ff50 f   legit_aimbot.obj
 0001:0000ef80       ?GetDynamic@Prediction@sdk@csgo@aw@@SAPAV1234@XZ 1000ff80 f i legit_aimbot.obj
 0001:0000efa0       ?GetId@?$TypedObject@VLegitAimbot@mod@csgo@aw@@VModuleBase@4@@aw@@UAEIXZ 1000ffa0 f i legit_aimbot.obj
 0001:0000efb0       ?GetMaxFOV@LegitWeaponTab@ui@csgo@aw@@QAEMXZ 1000ffb0 f i legit_aimbot.obj
 0001:0000efd0       ?GetTargetDirection@LegitAimbot@impl@mod@csgo@aw@@IAE_NAAVEulerAngles@5@@Z 1000ffd0 f   legit_aimbot.obj
 0001:0000f3e0       ?IsActive@LegitAimbot@impl@mod@csgo@aw@@UAE_NXZ 100103e0 f i legit_aimbot.obj
 0001:0000f400       ?IsEnemyAiming@LegitAimbot@impl@mod@csgo@aw@@IAE_NPAM@Z 10010400 f   legit_aimbot.obj
 0001:0000f720       ?OnBulletExit@TraceBullet@mod@csgo@aw@@UAE_NPAVTrace@sdk@34@@Z 10010720 f i legit_aimbot.obj
 0001:0000f730       ?OnBulletHit@TraceBullet@mod@csgo@aw@@UAE_NPAVTrace@sdk@34@@Z 10010730 f i legit_aimbot.obj
 0001:0000f740       ?OnBulletTravel@TraceBullet@mod@csgo@aw@@UAE_NMPAVTrace@sdk@34@@Z 10010740 f i legit_aimbot.obj
 0001:0000f750       ?OnInit@LegitAimbot@impl@mod@csgo@aw@@IAEXAAUCommonInit@5@@Z 10010750 f   legit_aimbot.obj
 0001:0000f770       ?OnPostMove@LegitAimbot@impl@mod@csgo@aw@@IAEXAAULocalPostMove@345@@Z 10010770 f   legit_aimbot.obj
 0001:0000fa30       ?OnPreMove@LegitAimbot@impl@mod@csgo@aw@@IAEXAAULocalPreMove@345@@Z 10010a30 f   legit_aimbot.obj
 0001:0000fb90       ?OnRender@LegitAimbot@impl@mod@csgo@aw@@IAEXAAURenderFrame@gfx@5@@Z 10010b90 f   legit_aimbot.obj
 0001:0000fbe0       ?ScanPlayerHitbox@LegitAimbot@impl@mod@csgo@aw@@IAE_NABVVector3@5@0PAUStudioHitbox@sdk@45@AAVMatrix3x4@5@M@Z 10010be0 f   legit_aimbot.obj
 0001:0000ffd0       ?ScanPlayerHitboxes@LegitAimbot@impl@mod@csgo@aw@@IAEHABVVector3@5@0M_N@Z 10010fd0 f   legit_aimbot.obj
 0001:00010560       ?SetViewAngles@LegitAimbot@impl@mod@csgo@aw@@IAEXPAVUserCmd@sdk@45@@Z 10011560 f   legit_aimbot.obj
 0001:00010590       ?Triggerbot@LegitAimbot@impl@mod@csgo@aw@@IAEXPAVUserCmd@sdk@45@@Z 10011590 f   legit_aimbot.obj
 0001:000107f0       ?UpdateWeaponConfig@LegitAimbot@impl@mod@csgo@aw@@IAEXPAVCSPlayer@sdk@45@@Z 100117f0 f   legit_aimbot.obj
 0001:00010840       ?_Doraise@bad_alloc@stdext@@MBEXXZ 10011840 f i legit_aimbot.obj
 0001:00010850       ?_Doraise@exception@stdext@@MBEXXZ 10011850 f i legit_aimbot.obj
 0001:00010860       ?_Raise@exception@stdext@@QBEXXZ 10011860 f i legit_aimbot.obj
 0001:00010890       ?_Throw_bad_array_new_length@std@@YAXXZ 10011890 f i legit_aimbot.obj
 0001:000108b0       ?_Xlen_string@std@@YAXXZ   100118b0 f i legit_aimbot.obj
 0001:000108c0       ?_Xlength@?$vector@VVector2@aw@@V?$allocator@VVector2@aw@@@std@@@std@@CAXXZ 100118c0 f i legit_aimbot.obj
 0001:000108d0       ?allocate@?$allocator@D@std@@QAEPADI@Z 100118d0 f i legit_aimbot.obj
 0001:00010920       ?what@exception@stdext@@UBEPBDXZ 10011920 f i legit_aimbot.obj
 0001:00011160       ??0RageAimbot@impl@mod@csgo@aw@@QAE@XZ 10012160 f i rage_aimbot.obj
 0001:00011460       ??_E?$ModuleBaseImpl@VRageAimbot@mod@csgo@aw@@V?$TypedObject@VRageAimbot@mod@csgo@aw@@VModuleBase@4@@4@@aw@@UAEPAXI@Z 10012460 f i rage_aimbot.obj
 0001:00011460       ??_G?$ModuleBaseImpl@VRageAimbot@mod@csgo@aw@@V?$TypedObject@VRageAimbot@mod@csgo@aw@@VModuleBase@4@@4@@aw@@UAEPAXI@Z 10012460 f i rage_aimbot.obj
 0001:00011490       ??_E?$TypedObjectBase@UCallbackVars@aw@@@aw@@UAEPAXI@Z 10012490 f i rage_aimbot.obj
 0001:00011490       ??_G?$TypedObjectBase@UCallbackVars@aw@@@aw@@UAEPAXI@Z 10012490 f i rage_aimbot.obj
 0001:000114c0       ??_ELocalPostMove@mod@csgo@aw@@UAEPAXI@Z 100124c0 f i rage_aimbot.obj
 0001:000114c0       ??_GLocalPostMove@mod@csgo@aw@@UAEPAXI@Z 100124c0 f i rage_aimbot.obj
 0001:000114f0       ??_ERageAimbot@impl@mod@csgo@aw@@UAEPAXI@Z 100124f0 f i rage_aimbot.obj
 0001:000114f0       ??_GRageAimbot@impl@mod@csgo@aw@@UAEPAXI@Z 100124f0 f i rage_aimbot.obj
 0001:00011550       ??_EUserCmd@sdk@csgo@aw@@UAEPAXI@Z 10012550 f i rage_aimbot.obj
 0001:00011550       ??_GUserCmd@sdk@csgo@aw@@UAEPAXI@Z 10012550 f i rage_aimbot.obj
 0001:00011580       ?CheckMinDamage@RageAimbot@impl@mod@csgo@aw@@IAE_NAAULocalPostMove@345@PAVCSPlayer@sdk@45@MM@Z 10012580 f   rage_aimbot.obj
 0001:00011720       ?CreateModule@?$ModuleWithFactory@VRageAimbot@mod@csgo@aw@@@aw@@SAPAVRageAimbot@mod@csgo@2@XZ 10012720 f   rage_aimbot.obj
 0001:00011750       ?DrawDoubleFireIndicator@RageAimbot@impl@mod@csgo@aw@@IAEXAAURenderFrame@gfx@5@@Z 10012750 f   rage_aimbot.obj
 0001:00011ba0       ?DrawStatusBar@RageAimbot@impl@mod@csgo@aw@@IAEXAAURenderFrame@gfx@5@PBDMMMMMM@Z 10012ba0 f   rage_aimbot.obj
 0001:000121d0       ?FindAutoPeekDestination@RageAimbot@impl@mod@csgo@aw@@IAEXPAVCSPlayer@sdk@45@AAVVector3@5@@Z 100131d0 f   rage_aimbot.obj
 0001:00012430       ?Get@EngineTrace@sdk@csgo@aw@@SAPAV1234@XZ 10013430 f i rage_aimbot.obj
 0001:00012440       ?GetDynamic@EngineTrace@sdk@csgo@aw@@SAPAV1234@XZ 10013440 f i rage_aimbot.obj
 0001:00012460       ?GetDynamic@GameMovement@sdk@csgo@aw@@SAPAV1234@XZ 10013460 f i rage_aimbot.obj
 0001:00012480       ?GetFireServerTick@RageAimbot@impl@mod@csgo@aw@@UAEHXZ 10013480 f i rage_aimbot.obj
 0001:00012490       ?GetFireTickBase@RageAimbot@impl@mod@csgo@aw@@UAEHXZ 10013490 f i rage_aimbot.obj
 0001:000124a0       ?GetHitChance@RageAimbot@impl@mod@csgo@aw@@UAEPAVTraceHitChance@345@XZ 100134a0 f i rage_aimbot.obj
 0001:000124b0       ?GetId@?$TypedObject@ULocalPostMove@mod@csgo@aw@@UCallbackVars@4@@aw@@UAEIXZ 100134b0 f i rage_aimbot.obj
 0001:000124c0       ?GetId@?$TypedObject@VRageAimbot@mod@csgo@aw@@VModuleBase@4@@aw@@UAEIXZ 100134c0 f i rage_aimbot.obj
 0001:000124d0       ?IsActive@RageAimbot@impl@mod@csgo@aw@@UAE_NPAULocalMoveBase@345@@Z 100134d0 f   rage_aimbot.obj
 0001:00012510       ?IsAiming@RageAimbot@impl@mod@csgo@aw@@UAE_NXZ 10013510 f i rage_aimbot.obj
 0001:00012520       ?IsAllowedFireMode@RageAimbot@impl@mod@csgo@aw@@QAE_NXZ 10013520 f   rage_aimbot.obj
 0001:00012630       ?IsAutoPeekReturning@RageAimbot@impl@mod@csgo@aw@@MAE_NXZ 10013630 f i rage_aimbot.obj
 0001:00012640       ?IsAutoScope@RageAccuracyTab@ui@csgo@aw@@QAE_NXZ 10013640 f i rage_aimbot.obj
 0001:00012670       ?IsCustomFireMode@RageAimbot@impl@mod@csgo@aw@@UAE_NXZ 10013670 f i rage_aimbot.obj
 0001:00012690       ?OnFinishMove@RageAimbot@impl@mod@csgo@aw@@IAEXAAULocalFinishMove@345@@Z 10013690 f   rage_aimbot.obj
 0001:000127a0       ?OnRender@RageAimbot@impl@mod@csgo@aw@@IAEXAAURenderFrame@gfx@5@@Z 100137a0 f   rage_aimbot.obj
 0001:000128b0       ?RunLuaCallbacks@RageAimbot@impl@mod@csgo@aw@@IAEXXZ 100138b0 f   rage_aimbot.obj
 0001:00012a90       ?SortTargetList@RageAimbot@impl@mod@csgo@aw@@IAEXAAULocalPostMove@345@PAURageTargetEntry@2345@1@Z 10013a90 f   rage_aimbot.obj
 0001:00012d80       ?TraceTargetHitboxInternal@RageAimbot@impl@mod@csgo@aw@@IAEXAAULocalPostMove@345@AAURageTargetInfo@2345@PAUReplicatedRecord@345@HAA_N3@Z 10013d80 f   rage_aimbot.obj
 0001:000133d0       ??_E?$ModuleBaseImpl@VRageAntiAim@mod@csgo@aw@@V?$TypedObject@VRageAntiAim@mod@csgo@aw@@VModuleBase@4@@4@@aw@@UAEPAXI@Z 100143d0 f i rage_antiaim.obj
 0001:000133d0       ??_G?$ModuleBaseImpl@VRageAntiAim@mod@csgo@aw@@V?$TypedObject@VRageAntiAim@mod@csgo@aw@@VModuleBase@4@@4@@aw@@UAEPAXI@Z 100143d0 f i rage_antiaim.obj
 0001:00013400       ??_ERageAntiAim@impl@mod@csgo@aw@@UAEPAXI@Z 10014400 f i rage_antiaim.obj
 0001:00013400       ??_GRageAntiAim@impl@mod@csgo@aw@@UAEPAXI@Z 10014400 f i rage_antiaim.obj
 0001:00013430       ?ApplyMicroMovementNextTick@RageAntiAim@impl@mod@csgo@aw@@UAEXXZ 10014430 f i rage_antiaim.obj
 0001:00013440       ?CheckCondition@RageAntiAim@impl@mod@csgo@aw@@UAE_NPAVCSPlayer@sdk@45@H_N@Z 10014440 f   rage_antiaim.obj
 0001:00013570       ?CreateModule@?$ModuleWithFactory@VRageAntiAim@mod@csgo@aw@@@aw@@SAPAVRageAntiAim@mod@csgo@2@XZ 10014570 f   rage_antiaim.obj
 0001:00013590       ?GetDynamic@GameEventManager@sdk@csgo@aw@@SAPAV1234@XZ 10014590 f i rage_antiaim.obj
 0001:000135b0       ?GetId@?$TypedObject@VRageAntiAim@mod@csgo@aw@@VModuleBase@4@@aw@@UAEIXZ 100145b0 f i rage_antiaim.obj
 0001:000135c0       ?IsDesyncEnabled@RageAntiAim@impl@mod@csgo@aw@@UAE_NXZ 100145c0 f   rage_antiaim.obj
 0001:00013620       ?IsFakeDucking@RageAntiAim@impl@mod@csgo@aw@@UAE_NPAVCSPlayer@sdk@45@H@Z 10014620 f   rage_antiaim.obj
 0001:00013660       ?IsFakeDucking@RageAntiAim@impl@mod@csgo@aw@@UAE_NXZ 10014660 f i rage_antiaim.obj
 0001:00013670       ?IsFakeExposeActive@RageAntiAim@impl@mod@csgo@aw@@UAE_NXZ 10014670 f i rage_antiaim.obj
 0001:00013680       ?OnRender@RageAntiAim@impl@mod@csgo@aw@@IAEXAAURenderFrame@gfx@5@@Z 10014680 f   rage_antiaim.obj
 0001:00013690       ?SwitchAntiAimSide@RageAntiAim@impl@mod@csgo@aw@@UAEXW4SwitchAntiAim@345@@Z 10014690 f   rage_antiaim.obj
 0001:000137b0       ?__offset_GetAbsVelocity@BaseEntity@sdk@csgo@aw@@QAEHXZ 100147b0 f i rage_antiaim.obj
 0001:000137e0       ?__offset_GetVelocity@BaseEntity@sdk@csgo@aw@@QAEHXZ 100147e0 f i rage_antiaim.obj
 0001:00013810       ??0CommonInput@mod@csgo@aw@@QAE@XZ 10014810 f   common_input.obj
 0001:00013890       ??_E?$ModuleBaseImpl@VCommonInput@mod@csgo@aw@@V?$TypedObject@VCommonInput@mod@csgo@aw@@VModuleBase@4@@4@@aw@@UAEPAXI@Z 10014890 f i common_input.obj
 0001:00013890       ??_G?$ModuleBaseImpl@VCommonInput@mod@csgo@aw@@V?$TypedObject@VCommonInput@mod@csgo@aw@@VModuleBase@4@@4@@aw@@UAEPAXI@Z 10014890 f i common_input.obj
 0001:000138c0       ??_ECommonInput@mod@csgo@aw@@UAEPAXI@Z 100148c0 f i common_input.obj
 0001:000138c0       ??_GCommonInput@mod@csgo@aw@@UAEPAXI@Z 100148c0 f i common_input.obj
 0001:000138f0       ?Get@GameConsole@sdk@csgo@aw@@SAPAV1234@XZ 100148f0 f i common_input.obj
 0001:00013900       ?GetDynamic@GameConsole@sdk@csgo@aw@@SAPAV1234@XZ 10014900 f i common_input.obj
 0001:00013920       ?GetId@?$TypedObject@VCommonInput@mod@csgo@aw@@VModuleBase@4@@aw@@UAEIXZ 10014920 f i common_input.obj
 0001:00013930       ?IsFiltered@GameInput@mod@csgo@aw@@UAE_NXZ 10014930 f   common_input.obj
 0001:00013a60       ?OnEndFrame@GameInput@mod@csgo@aw@@UAEXAAURenderFinish@gfx@4@@Z 10014a60 f   common_input.obj
 0001:00013a80       ??$Method@V?$Class@VClsDrawModelContext@lua@csgo@aw@@UDrawChamsModel@mod@34@$0A@@lua@aw@@$1?__index@123@QAEXPAUDrawChamsModel@mod@csgo@3@AAVState@23@@Z@?$Class@VClsDrawModelContext@lua@csgo@aw@@UDrawChamsModel@mod@34@$0A@@lua@aw@@SAHPAUlua_State@@@Z 10014a80 f i common_lua.obj
 0001:00013ad0       ??$Method@V?$Class@VClsDrawModelContext@lua@csgo@aw@@UDrawChamsModel@mod@34@$0A@@lua@aw@@$1?__metatable@123@QAEXPAUDrawChamsModel@mod@csgo@3@AAVState@23@@Z@?$Class@VClsDrawModelContext@lua@csgo@aw@@UDrawChamsModel@mod@34@$0A@@lua@aw@@SAHPAUlua_State@@@Z 10014ad0 f i common_lua.obj
 0001:00013b20       ??$Method@V?$Class@VClsDrawModelContext@lua@csgo@aw@@UDrawChamsModel@mod@34@$0A@@lua@aw@@$1?__newindex@123@QAEXPAUDrawChamsModel@mod@csgo@3@AAVState@23@@Z@?$Class@VClsDrawModelContext@lua@csgo@aw@@UDrawChamsModel@mod@34@$0A@@lua@aw@@SAHPAUlua_State@@@Z 10014b20 f i common_lua.obj
 0001:00013b70       ??$Method@V?$Class@VClsEntity@lua@csgo@aw@@VBaseHandle@sdk@34@$00@lua@aw@@$1?__index@123@QAEXPAVBaseHandle@sdk@csgo@3@AAVState@23@@Z@?$Class@VClsEntity@lua@csgo@aw@@VBaseHandle@sdk@34@$00@lua@aw@@SAHPAUlua_State@@@Z 10014b70 f i common_lua.obj
 0001:00013bc0       ??$Method@V?$Class@VClsEntity@lua@csgo@aw@@VBaseHandle@sdk@34@$00@lua@aw@@$1?__metatable@123@QAEXPAVBaseHandle@sdk@csgo@3@AAVState@23@@Z@?$Class@VClsEntity@lua@csgo@aw@@VBaseHandle@sdk@34@$00@lua@aw@@SAHPAUlua_State@@@Z 10014bc0 f i common_lua.obj
 0001:00013c10       ??$Method@V?$Class@VClsEntity@lua@csgo@aw@@VBaseHandle@sdk@34@$00@lua@aw@@$1?__newindex@123@QAEXPAVBaseHandle@sdk@csgo@3@AAVState@23@@Z@?$Class@VClsEntity@lua@csgo@aw@@VBaseHandle@sdk@34@$00@lua@aw@@SAHPAUlua_State@@@Z 10014c10 f i common_lua.obj
 0001:00013c60       ??$Method@V?$Class@VClsEspBuilder@lua@csgo@aw@@VEspBuilder@mod@34@$0A@@lua@aw@@$1?__index@123@QAEXPAVEspBuilder@mod@csgo@3@AAVState@23@@Z@?$Class@VClsEspBuilder@lua@csgo@aw@@VEspBuilder@mod@34@$0A@@lua@aw@@SAHPAUlua_State@@@Z 10014c60 f i common_lua.obj
 0001:00013cb0       ??$Method@V?$Class@VClsEspBuilder@lua@csgo@aw@@VEspBuilder@mod@34@$0A@@lua@aw@@$1?__metatable@123@QAEXPAVEspBuilder@mod@csgo@3@AAVState@23@@Z@?$Class@VClsEspBuilder@lua@csgo@aw@@VEspBuilder@mod@34@$0A@@lua@aw@@SAHPAUlua_State@@@Z 10014cb0 f i common_lua.obj
 0001:00013d00       ??$Method@V?$Class@VClsEspBuilder@lua@csgo@aw@@VEspBuilder@mod@34@$0A@@lua@aw@@$1?__newindex@123@QAEXPAVEspBuilder@mod@csgo@3@AAVState@23@@Z@?$Class@VClsEspBuilder@lua@csgo@aw@@VEspBuilder@mod@34@$0A@@lua@aw@@SAHPAUlua_State@@@Z 10014d00 f i common_lua.obj
 0001:00013d50       ??$Method@V?$Class@VClsGameEvent@lua@csgo@aw@@VGameEvent@sdk@34@$0A@@lua@aw@@$1?__index@123@QAEXPAVGameEvent@sdk@csgo@3@AAVState@23@@Z@?$Class@VClsGameEvent@lua@csgo@aw@@VGameEvent@sdk@34@$0A@@lua@aw@@SAHPAUlua_State@@@Z 10014d50 f i common_lua.obj
 0001:00013da0       ??$Method@V?$Class@VClsGameEvent@lua@csgo@aw@@VGameEvent@sdk@34@$0A@@lua@aw@@$1?__metatable@123@QAEXPAVGameEvent@sdk@csgo@3@AAVState@23@@Z@?$Class@VClsGameEvent@lua@csgo@aw@@VGameEvent@sdk@34@$0A@@lua@aw@@SAHPAUlua_State@@@Z 10014da0 f i common_lua.obj
 0001:00013df0       ??$Method@V?$Class@VClsGameEvent@lua@csgo@aw@@VGameEvent@sdk@34@$0A@@lua@aw@@$1?__newindex@123@QAEXPAVGameEvent@sdk@csgo@3@AAVState@23@@Z@?$Class@VClsGameEvent@lua@csgo@aw@@VGameEvent@sdk@34@$0A@@lua@aw@@SAHPAUlua_State@@@Z 10014df0 f i common_lua.obj
 0001:00013e40       ??$Method@V?$Class@VClsMaterial@lua@csgo@aw@@VMaterial@sdk@34@$0A@@lua@aw@@$1?__index@123@QAEXPAVMaterial@sdk@csgo@3@AAVState@23@@Z@?$Class@VClsMaterial@lua@csgo@aw@@VMaterial@sdk@34@$0A@@lua@aw@@SAHPAUlua_State@@@Z 10014e40 f i common_lua.obj
 0001:00013e90       ??$Method@V?$Class@VClsMaterial@lua@csgo@aw@@VMaterial@sdk@34@$0A@@lua@aw@@$1?__metatable@123@QAEXPAVMaterial@sdk@csgo@3@AAVState@23@@Z@?$Class@VClsMaterial@lua@csgo@aw@@VMaterial@sdk@34@$0A@@lua@aw@@SAHPAUlua_State@@@Z 10014e90 f i common_lua.obj
 0001:00013ee0       ??$Method@V?$Class@VClsMaterial@lua@csgo@aw@@VMaterial@sdk@34@$0A@@lua@aw@@$1?__newindex@123@QAEXPAVMaterial@sdk@csgo@3@AAVState@23@@Z@?$Class@VClsMaterial@lua@csgo@aw@@VMaterial@sdk@34@$0A@@lua@aw@@SAHPAUlua_State@@@Z 10014ee0 f i common_lua.obj
 0001:00013f30       ??$Method@V?$Class@VClsPlane@lua@csgo@aw@@Ucplane_t@sdk@34@$00@lua@aw@@$1?__index@123@QAEXPAUcplane_t@sdk@csgo@3@AAVState@23@@Z@?$Class@VClsPlane@lua@csgo@aw@@Ucplane_t@sdk@34@$00@lua@aw@@SAHPAUlua_State@@@Z 10014f30 f i common_lua.obj
 0001:00013f80       ??$Method@V?$Class@VClsPlane@lua@csgo@aw@@Ucplane_t@sdk@34@$00@lua@aw@@$1?__metatable@123@QAEXPAUcplane_t@sdk@csgo@3@AAVState@23@@Z@?$Class@VClsPlane@lua@csgo@aw@@Ucplane_t@sdk@34@$00@lua@aw@@SAHPAUlua_State@@@Z 10014f80 f i common_lua.obj
 0001:00013fd0       ??$Method@V?$Class@VClsPlane@lua@csgo@aw@@Ucplane_t@sdk@34@$00@lua@aw@@$1?__newindex@123@QAEXPAUcplane_t@sdk@csgo@3@AAVState@23@@Z@?$Class@VClsPlane@lua@csgo@aw@@Ucplane_t@sdk@34@$00@lua@aw@@SAHPAUlua_State@@@Z 10014fd0 f i common_lua.obj
 0001:00014020       ??$Method@V?$Class@VClsPlayerInfo@lua@csgo@aw@@ULuaPlayerInfo@234@$0A@@lua@aw@@$1?__index@123@QAEXPAULuaPlayerInfo@2csgo@3@AAVState@23@@Z@?$Class@VClsPlayerInfo@lua@csgo@aw@@ULuaPlayerInfo@234@$0A@@lua@aw@@SAHPAUlua_State@@@Z 10015020 f i common_lua.obj
 0001:00014070       ??$Method@V?$Class@VClsPlayerInfo@lua@csgo@aw@@ULuaPlayerInfo@234@$0A@@lua@aw@@$1?__metatable@123@QAEXPAULuaPlayerInfo@2csgo@3@AAVState@23@@Z@?$Class@VClsPlayerInfo@lua@csgo@aw@@ULuaPlayerInfo@234@$0A@@lua@aw@@SAHPAUlua_State@@@Z 10015070 f i common_lua.obj
 0001:000140c0       ??$Method@V?$Class@VClsPlayerInfo@lua@csgo@aw@@ULuaPlayerInfo@234@$0A@@lua@aw@@$1?__newindex@123@QAEXPAULuaPlayerInfo@2csgo@3@AAVState@23@@Z@?$Class@VClsPlayerInfo@lua@csgo@aw@@ULuaPlayerInfo@234@$0A@@lua@aw@@SAHPAUlua_State@@@Z 100150c0 f i common_lua.obj
 0001:00014110       ??$Method@V?$Class@VClsStringCmd@lua@csgo@aw@@UStringCmd@234@$0A@@lua@aw@@$1?__index@123@QAEXPAUStringCmd@2csgo@3@AAVState@23@@Z@?$Class@VClsStringCmd@lua@csgo@aw@@UStringCmd@234@$0A@@lua@aw@@SAHPAUlua_State@@@Z 10015110 f i common_lua.obj
 0001:00014160       ??$Method@V?$Class@VClsStringCmd@lua@csgo@aw@@UStringCmd@234@$0A@@lua@aw@@$1?__metatable@123@QAEXPAUStringCmd@2csgo@3@AAVState@23@@Z@?$Class@VClsStringCmd@lua@csgo@aw@@UStringCmd@234@$0A@@lua@aw@@SAHPAUlua_State@@@Z 10015160 f i common_lua.obj
 0001:000141b0       ??$Method@V?$Class@VClsStringCmd@lua@csgo@aw@@UStringCmd@234@$0A@@lua@aw@@$1?__newindex@123@QAEXPAUStringCmd@2csgo@3@AAVState@23@@Z@?$Class@VClsStringCmd@lua@csgo@aw@@UStringCmd@234@$0A@@lua@aw@@SAHPAUlua_State@@@Z 100151b0 f i common_lua.obj
 0001:00014200       ??$Method@V?$Class@VClsSurface@lua@csgo@aw@@Ucsurface_t@sdk@34@$00@lua@aw@@$1?__index@123@QAEXPAUcsurface_t@sdk@csgo@3@AAVState@23@@Z@?$Class@VClsSurface@lua@csgo@aw@@Ucsurface_t@sdk@34@$00@lua@aw@@SAHPAUlua_State@@@Z 10015200 f i common_lua.obj
 0001:00014250       ??$Method@V?$Class@VClsSurface@lua@csgo@aw@@Ucsurface_t@sdk@34@$00@lua@aw@@$1?__metatable@123@QAEXPAUcsurface_t@sdk@csgo@3@AAVState@23@@Z@?$Class@VClsSurface@lua@csgo@aw@@Ucsurface_t@sdk@34@$00@lua@aw@@SAHPAUlua_State@@@Z 10015250 f i common_lua.obj
 0001:000142a0       ??$Method@V?$Class@VClsSurface@lua@csgo@aw@@Ucsurface_t@sdk@34@$00@lua@aw@@$1?__newindex@123@QAEXPAUcsurface_t@sdk@csgo@3@AAVState@23@@Z@?$Class@VClsSurface@lua@csgo@aw@@Ucsurface_t@sdk@34@$00@lua@aw@@SAHPAUlua_State@@@Z 100152a0 f i common_lua.obj
 0001:000142f0       ??$Method@V?$Class@VClsTrace@lua@csgo@aw@@VTrace@sdk@34@$0A@@lua@aw@@$1?__index@123@QAEXPAVTrace@sdk@csgo@3@AAVState@23@@Z@?$Class@VClsTrace@lua@csgo@aw@@VTrace@sdk@34@$0A@@lua@aw@@SAHPAUlua_State@@@Z 100152f0 f i common_lua.obj
 0001:00014340       ??$Method@V?$Class@VClsTrace@lua@csgo@aw@@VTrace@sdk@34@$0A@@lua@aw@@$1?__metatable@123@QAEXPAVTrace@sdk@csgo@3@AAVState@23@@Z@?$Class@VClsTrace@lua@csgo@aw@@VTrace@sdk@34@$0A@@lua@aw@@SAHPAUlua_State@@@Z 10015340 f i common_lua.obj
 0001:00014390       ??$Method@V?$Class@VClsTrace@lua@csgo@aw@@VTrace@sdk@34@$0A@@lua@aw@@$1?__newindex@123@QAEXPAVTrace@sdk@csgo@3@AAVState@23@@Z@?$Class@VClsTrace@lua@csgo@aw@@VTrace@sdk@34@$0A@@lua@aw@@SAHPAUlua_State@@@Z 10015390 f i common_lua.obj
 0001:000143e0       ??$Method@V?$Class@VClsUserCmd@lua@csgo@aw@@VUserCmdEx@234@$0A@@lua@aw@@$1?__index@123@QAEXPAVUserCmdEx@2csgo@3@AAVState@23@@Z@?$Class@VClsUserCmd@lua@csgo@aw@@VUserCmdEx@234@$0A@@lua@aw@@SAHPAUlua_State@@@Z 100153e0 f i common_lua.obj
 0001:00014430       ??$Method@V?$Class@VClsUserCmd@lua@csgo@aw@@VUserCmdEx@234@$0A@@lua@aw@@$1?__metatable@123@QAEXPAVUserCmdEx@2csgo@3@AAVState@23@@Z@?$Class@VClsUserCmd@lua@csgo@aw@@VUserCmdEx@234@$0A@@lua@aw@@SAHPAUlua_State@@@Z 10015430 f i common_lua.obj
 0001:00014480       ??$Method@V?$Class@VClsUserCmd@lua@csgo@aw@@VUserCmdEx@234@$0A@@lua@aw@@$1?__newindex@123@QAEXPAVUserCmdEx@2csgo@3@AAVState@23@@Z@?$Class@VClsUserCmd@lua@csgo@aw@@VUserCmdEx@234@$0A@@lua@aw@@SAHPAUlua_State@@@Z 10015480 f i common_lua.obj
 0001:000144d0       ??$Method@V?$Class@VClsUserMessage@lua@csgo@aw@@VUserMessage@sdk@34@$0A@@lua@aw@@$1?__index@123@QAEXPAVUserMessage@sdk@csgo@3@AAVState@23@@Z@?$Class@VClsUserMessage@lua@csgo@aw@@VUserMessage@sdk@34@$0A@@lua@aw@@SAHPAUlua_State@@@Z 100154d0 f i common_lua.obj
 0001:00014520       ??$Method@V?$Class@VClsUserMessage@lua@csgo@aw@@VUserMessage@sdk@34@$0A@@lua@aw@@$1?__metatable@123@QAEXPAVUserMessage@sdk@csgo@3@AAVState@23@@Z@?$Class@VClsUserMessage@lua@csgo@aw@@VUserMessage@sdk@34@$0A@@lua@aw@@SAHPAUlua_State@@@Z 10015520 f i common_lua.obj
 0001:00014570       ??$Method@V?$Class@VClsUserMessage@lua@csgo@aw@@VUserMessage@sdk@34@$0A@@lua@aw@@$1?__newindex@123@QAEXPAVUserMessage@sdk@csgo@3@AAVState@23@@Z@?$Class@VClsUserMessage@lua@csgo@aw@@VUserMessage@sdk@34@$0A@@lua@aw@@SAHPAUlua_State@@@Z 10015570 f i common_lua.obj
 0001:000145c0       ??$Run@PAUDrawChamsModel@mod@csgo@aw@@@LibCallbacks@lua@aw@@QAEXABV?$basic_string@DU?$char_traits@D@std@@V?$allocator@D@2@@std@@PAUDrawChamsModel@mod@csgo@2@@Z 100155c0 f i common_lua.obj
 0001:000146c0       ??$Run@PAVUserCmdEx@lua@csgo@aw@@@LibCallbacks@lua@aw@@QAEXABV?$basic_string@DU?$char_traits@D@std@@V?$allocator@D@2@@std@@PAVUserCmdEx@1csgo@2@@Z 100156c0 f i common_lua.obj
 0001:000147c0       ??$_Erase_tree@V?$allocator@U?$_Tree_node@U?$pair@$$CBV?$basic_string@DU?$char_traits@D@std@@V?$allocator@D@2@@std@@P6AHPAUlua_State@@@Z@std@@PAX@std@@@std@@@?$_Tree_val@U?$_Tree_simple_types@U?$pair@$$CBV?$basic_string@DU?$char_traits@D@std@@V?$allocator@D@2@@std@@P6AHPAUlua_State@@@Z@std@@@std@@@std@@QAEXAAV?$allocator@U?$_Tree_node@U?$pair@$$CBV?$basic_string@DU?$char_traits@D@std@@V?$allocator@D@2@@std@@P6AHPAUlua_State@@@Z@std@@PAX@std@@@1@PAU?$_Tree_node@U?$pair@$$CBV?$basic_string@DU?$char_traits@D@std@@V?$allocator@D@2@@std@@P6AHPAUlua_State@@@Z@std@@PAX@1@@Z 100157c0 f i common_lua.obj
 0001:00014830       ??0?$basic_string@DU?$char_traits@D@std@@V?$allocator@D@2@@std@@QAE@QBD@Z 10015830 f i common_lua.obj
 0001:00014870       ??0ClassBase@lua@aw@@QAE@XZ 10015870 f i common_lua.obj
 0001:00014a20       ??0CommonLua@impl@mod@csgo@aw@@QAE@XZ 10015a20 f i common_lua.obj
 0001:00014c10       ??1?$_Hash@V?$_Umap_traits@ULuaJITString@lua@aw@@P6AHPAUlua_State@@@ZV?$_Uhash_compare@ULuaJITString@lua@aw@@ULuaJITStringHasher@23@ULuaJITStringEqual@23@@std@@V?$allocator@U?$pair@$$CBULuaJITString@lua@aw@@P6AHPAUlua_State@@@Z@std@@@6@$0A@@std@@@std@@QAE@XZ 10015c10 f i common_lua.obj
 0001:00014c90       ??1?$_Hash@V?$_Umap_traits@ULuaJITString@lua@aw@@UClassProperty@23@V?$_Uhash_compare@ULuaJITString@lua@aw@@ULuaJITStringHasher@23@ULuaJITStringEqual@23@@std@@V?$allocator@U?$pair@$$CBULuaJITString@lua@aw@@UClassProperty@23@@std@@@6@$0A@@std@@@std@@QAE@XZ 10015c90 f i common_lua.obj
 0001:00014d10       ??1ClassBase@lua@aw@@UAE@XZ 10015d10 f i common_lua.obj
 0001:00014d80       ??A?$map@V?$basic_string@DU?$char_traits@D@std@@V?$allocator@D@2@@std@@P6AHPAUlua_State@@@ZU?$less@V?$basic_string@DU?$char_traits@D@std@@V?$allocator@D@2@@std@@@2@V?$allocator@U?$pair@$$CBV?$basic_string@DU?$char_traits@D@std@@V?$allocator@D@2@@std@@P6AHPAUlua_State@@@Z@std@@@2@@std@@QAEAAP6AHPAUlua_State@@@Z$$QAV?$basic_string@DU?$char_traits@D@std@@V?$allocator@D@2@@1@@Z 10015d80 f i common_lua.obj
 0001:00014f10       ??R?$less@V?$basic_string@DU?$char_traits@D@std@@V?$allocator@D@2@@std@@@std@@QBE_NABV?$basic_string@DU?$char_traits@D@std@@V?$allocator@D@2@@1@0@Z 10015f10 f i common_lua.obj
 0001:00014fc0       ??_E?$Class@VClsDrawModelContext@lua@csgo@aw@@UDrawChamsModel@mod@34@$0A@@lua@aw@@UAEPAXI@Z 10015fc0 f i common_lua.obj
 0001:00014fc0       ??_G?$Class@VClsDrawModelContext@lua@csgo@aw@@UDrawChamsModel@mod@34@$0A@@lua@aw@@UAEPAXI@Z 10015fc0 f i common_lua.obj
 0001:00014ff0       ??_E?$Class@VClsEntity@lua@csgo@aw@@VBaseHandle@sdk@34@$00@lua@aw@@UAEPAXI@Z 10015ff0 f i common_lua.obj
 0001:00014ff0       ??_G?$Class@VClsEntity@lua@csgo@aw@@VBaseHandle@sdk@34@$00@lua@aw@@UAEPAXI@Z 10015ff0 f i common_lua.obj
 0001:00015020       ??_E?$Class@VClsEspBuilder@lua@csgo@aw@@VEspBuilder@mod@34@$0A@@lua@aw@@UAEPAXI@Z 10016020 f i common_lua.obj
 0001:00015020       ??_G?$Class@VClsEspBuilder@lua@csgo@aw@@VEspBuilder@mod@34@$0A@@lua@aw@@UAEPAXI@Z 10016020 f i common_lua.obj
 0001:00015050       ??_E?$Class@VClsGameEvent@lua@csgo@aw@@VGameEvent@sdk@34@$0A@@lua@aw@@UAEPAXI@Z 10016050 f i common_lua.obj
 0001:00015050       ??_G?$Class@VClsGameEvent@lua@csgo@aw@@VGameEvent@sdk@34@$0A@@lua@aw@@UAEPAXI@Z 10016050 f i common_lua.obj
 0001:00015080       ??_E?$Class@VClsMaterial@lua@csgo@aw@@VMaterial@sdk@34@$0A@@lua@aw@@UAEPAXI@Z 10016080 f i common_lua.obj
 0001:00015080       ??_G?$Class@VClsMaterial@lua@csgo@aw@@VMaterial@sdk@34@$0A@@lua@aw@@UAEPAXI@Z 10016080 f i common_lua.obj
 0001:000150b0       ??_E?$Class@VClsPlane@lua@csgo@aw@@Ucplane_t@sdk@34@$00@lua@aw@@UAEPAXI@Z 100160b0 f i common_lua.obj
 0001:000150b0       ??_G?$Class@VClsPlane@lua@csgo@aw@@Ucplane_t@sdk@34@$00@lua@aw@@UAEPAXI@Z 100160b0 f i common_lua.obj
 0001:000150e0       ??_E?$Class@VClsPlayerInfo@lua@csgo@aw@@ULuaPlayerInfo@234@$0A@@lua@aw@@UAEPAXI@Z 100160e0 f i common_lua.obj
 0001:000150e0       ??_G?$Class@VClsPlayerInfo@lua@csgo@aw@@ULuaPlayerInfo@234@$0A@@lua@aw@@UAEPAXI@Z 100160e0 f i common_lua.obj
 0001:00015110       ??_E?$Class@VClsStringCmd@lua@csgo@aw@@UStringCmd@234@$0A@@lua@aw@@UAEPAXI@Z 10016110 f i common_lua.obj
 0001:00015110       ??_G?$Class@VClsStringCmd@lua@csgo@aw@@UStringCmd@234@$0A@@lua@aw@@UAEPAXI@Z 10016110 f i common_lua.obj
 0001:00015140       ??_E?$Class@VClsSurface@lua@csgo@aw@@Ucsurface_t@sdk@34@$00@lua@aw@@UAEPAXI@Z 10016140 f i common_lua.obj
 0001:00015140       ??_G?$Class@VClsSurface@lua@csgo@aw@@Ucsurface_t@sdk@34@$00@lua@aw@@UAEPAXI@Z 10016140 f i common_lua.obj
 0001:00015170       ??_E?$Class@VClsTrace@lua@csgo@aw@@VTrace@sdk@34@$0A@@lua@aw@@UAEPAXI@Z 10016170 f i common_lua.obj
 0001:00015170       ??_G?$Class@VClsTrace@lua@csgo@aw@@VTrace@sdk@34@$0A@@lua@aw@@UAEPAXI@Z 10016170 f i common_lua.obj
 0001:000151a0       ??_E?$Class@VClsUserCmd@lua@csgo@aw@@VUserCmdEx@234@$0A@@lua@aw@@UAEPAXI@Z 100161a0 f i common_lua.obj
 0001:000151a0       ??_G?$Class@VClsUserCmd@lua@csgo@aw@@VUserCmdEx@234@$0A@@lua@aw@@UAEPAXI@Z 100161a0 f i common_lua.obj
 0001:000151d0       ??_E?$Class@VClsUserMessage@lua@csgo@aw@@VUserMessage@sdk@34@$0A@@lua@aw@@UAEPAXI@Z 100161d0 f i common_lua.obj
 0001:000151d0       ??_G?$Class@VClsUserMessage@lua@csgo@aw@@VUserMessage@sdk@34@$0A@@lua@aw@@UAEPAXI@Z 100161d0 f i common_lua.obj
 0001:00015200       ??_E?$ModuleBaseImpl@VCommonLua@mod@csgo@aw@@V?$TypedObject@VCommonLua@mod@csgo@aw@@VModuleBase@4@@4@@aw@@UAEPAXI@Z 10016200 f i common_lua.obj
 0001:00015200       ??_G?$ModuleBaseImpl@VCommonLua@mod@csgo@aw@@V?$TypedObject@VCommonLua@mod@csgo@aw@@VModuleBase@4@@4@@aw@@UAEPAXI@Z 10016200 f i common_lua.obj
 0001:00015230       ??_EClassBase@lua@aw@@UAEPAXI@Z 10016230 f i common_lua.obj
 0001:00015230       ??_GClassBase@lua@aw@@UAEPAXI@Z 10016230 f i common_lua.obj
 0001:00015250       ??_EClsDrawModelContext@lua@csgo@aw@@UAEPAXI@Z 10016250 f i common_lua.obj
 0001:00015250       ??_GClsDrawModelContext@lua@csgo@aw@@UAEPAXI@Z 10016250 f i common_lua.obj
 0001:00015280       ??_EClsEntity@lua@csgo@aw@@UAEPAXI@Z 10016280 f i common_lua.obj
 0001:00015280       ??_GClsEntity@lua@csgo@aw@@UAEPAXI@Z 10016280 f i common_lua.obj
 0001:000152b0       ??_EClsEspBuilder@lua@csgo@aw@@UAEPAXI@Z 100162b0 f i common_lua.obj
 0001:000152b0       ??_GClsEspBuilder@lua@csgo@aw@@UAEPAXI@Z 100162b0 f i common_lua.obj
 0001:000152e0       ??_EClsGameEvent@lua@csgo@aw@@UAEPAXI@Z 100162e0 f i common_lua.obj
 0001:000152e0       ??_GClsGameEvent@lua@csgo@aw@@UAEPAXI@Z 100162e0 f i common_lua.obj
 0001:00015310       ??_EClsMaterial@lua@csgo@aw@@UAEPAXI@Z 10016310 f i common_lua.obj
 0001:00015310       ??_GClsMaterial@lua@csgo@aw@@UAEPAXI@Z 10016310 f i common_lua.obj
 0001:00015340       ??_EClsPlane@lua@csgo@aw@@UAEPAXI@Z 10016340 f i common_lua.obj
 0001:00015340       ??_GClsPlane@lua@csgo@aw@@UAEPAXI@Z 10016340 f i common_lua.obj
 0001:00015370       ??_EClsPlayerInfo@lua@csgo@aw@@UAEPAXI@Z 10016370 f i common_lua.obj
 0001:00015370       ??_GClsPlayerInfo@lua@csgo@aw@@UAEPAXI@Z 10016370 f i common_lua.obj
 0001:000153a0       ??_EClsStringCmd@lua@csgo@aw@@UAEPAXI@Z 100163a0 f i common_lua.obj
 0001:000153a0       ??_GClsStringCmd@lua@csgo@aw@@UAEPAXI@Z 100163a0 f i common_lua.obj
 0001:000153d0       ??_EClsSurface@lua@csgo@aw@@UAEPAXI@Z 100163d0 f i common_lua.obj
 0001:000153d0       ??_GClsSurface@lua@csgo@aw@@UAEPAXI@Z 100163d0 f i common_lua.obj
 0001:00015400       ??_EClsTrace@lua@csgo@aw@@UAEPAXI@Z 10016400 f i common_lua.obj
 0001:00015400       ??_GClsTrace@lua@csgo@aw@@UAEPAXI@Z 10016400 f i common_lua.obj
 0001:00015430       ??_EClsUserCmd@lua@csgo@aw@@UAEPAXI@Z 10016430 f i common_lua.obj
 0001:00015430       ??_GClsUserCmd@lua@csgo@aw@@UAEPAXI@Z 10016430 f i common_lua.obj
 0001:00015460       ??_EClsUserMessage@lua@csgo@aw@@UAEPAXI@Z 10016460 f i common_lua.obj
 0001:00015460       ??_GClsUserMessage@lua@csgo@aw@@UAEPAXI@Z 10016460 f i common_lua.obj
 0001:00015490       ??_ECommonLua@impl@mod@csgo@aw@@UAEPAXI@Z 10016490 f i common_lua.obj
 0001:00015490       ??_GCommonLua@impl@mod@csgo@aw@@UAEPAXI@Z 10016490 f i common_lua.obj
 0001:000154c0       ??_ELibCheat@lua@csgo@aw@@UAEPAXI@Z 100164c0 f i common_lua.obj
 0001:000154c0       ??_GLibCheat@lua@csgo@aw@@UAEPAXI@Z 100164c0 f i common_lua.obj
 0001:00015520       ??_ELibClient@lua@csgo@aw@@UAEPAXI@Z 10016520 f i common_lua.obj
 0001:00015520       ??_GLibClient@lua@csgo@aw@@UAEPAXI@Z 10016520 f i common_lua.obj
 0001:00015580       ??_ELibEngine@lua@csgo@aw@@UAEPAXI@Z 10016580 f i common_lua.obj
 0001:00015580       ??_GLibEngine@lua@csgo@aw@@UAEPAXI@Z 10016580 f i common_lua.obj
 0001:000155e0       ??_ELibEntities@lua@csgo@aw@@UAEPAXI@Z 100165e0 f i common_lua.obj
 0001:000155e0       ??_GLibEntities@lua@csgo@aw@@UAEPAXI@Z 100165e0 f i common_lua.obj
 0001:00015640       ??_ELibGlobalVars@lua@csgo@aw@@UAEPAXI@Z 10016640 f i common_lua.obj
 0001:00015640       ??_GLibGlobalVars@lua@csgo@aw@@UAEPAXI@Z 10016640 f i common_lua.obj
 0001:000156a0       ??_ELibMaterials@lua@csgo@aw@@UAEPAXI@Z 100166a0 f i common_lua.obj
 0001:000156a0       ??_GLibMaterials@lua@csgo@aw@@UAEPAXI@Z 100166a0 f i common_lua.obj
 0001:00015700       ??_ELibPanorama@lua@csgo@aw@@UAEPAXI@Z 10016700 f i common_lua.obj
 0001:00015700       ??_GLibPanorama@lua@csgo@aw@@UAEPAXI@Z 10016700 f i common_lua.obj
 0001:00015760       ??_ELibraryBase@lua@aw@@UAEPAXI@Z 10016760 f i common_lua.obj
 0001:00015760       ??_GLibraryBase@lua@aw@@UAEPAXI@Z 10016760 f i common_lua.obj
 0001:000157c0       ?CreateModule@?$ModuleWithFactory@VCommonLua@mod@csgo@aw@@@aw@@SAPAVCommonLua@mod@csgo@2@XZ 100167c0 f   common_lua.obj
 0001:000157f0       ?Get@?$Class@VClsDrawModelContext@lua@csgo@aw@@UDrawChamsModel@mod@34@$0A@@lua@aw@@QAEPAUDrawChamsModel@mod@csgo@3@PAUlua_State@@H@Z 100167f0 f i common_lua.obj
 0001:00015960       ?Get@?$Class@VClsEntity@lua@csgo@aw@@VBaseHandle@sdk@34@$00@lua@aw@@QAEPAVBaseHandle@sdk@csgo@3@PAUlua_State@@H@Z 10016960 f i common_lua.obj
 0001:00015ad0       ?Get@?$Class@VClsEspBuilder@lua@csgo@aw@@VEspBuilder@mod@34@$0A@@lua@aw@@QAEPAVEspBuilder@mod@csgo@3@PAUlua_State@@H@Z 10016ad0 f i common_lua.obj
 0001:00015c40       ?Get@?$Class@VClsGameEvent@lua@csgo@aw@@VGameEvent@sdk@34@$0A@@lua@aw@@QAEPAVGameEvent@sdk@csgo@3@PAUlua_State@@H@Z 10016c40 f i common_lua.obj
 0001:00015db0       ?Get@?$Class@VClsMaterial@lua@csgo@aw@@VMaterial@sdk@34@$0A@@lua@aw@@QAEPAVMaterial@sdk@csgo@3@PAUlua_State@@H@Z 10016db0 f i common_lua.obj
 0001:00015f20       ?Get@?$Class@VClsPlane@lua@csgo@aw@@Ucplane_t@sdk@34@$00@lua@aw@@QAEPAUcplane_t@sdk@csgo@3@PAUlua_State@@H@Z 10016f20 f i common_lua.obj
 0001:00016090       ?Get@?$Class@VClsPlayerInfo@lua@csgo@aw@@ULuaPlayerInfo@234@$0A@@lua@aw@@QAEPAULuaPlayerInfo@2csgo@3@PAUlua_State@@H@Z 10017090 f i common_lua.obj
 0001:00016200       ?Get@?$Class@VClsStringCmd@lua@csgo@aw@@UStringCmd@234@$0A@@lua@aw@@QAEPAUStringCmd@2csgo@3@PAUlua_State@@H@Z 10017200 f i common_lua.obj
 0001:00016370       ?Get@?$Class@VClsSurface@lua@csgo@aw@@Ucsurface_t@sdk@34@$00@lua@aw@@QAEPAUcsurface_t@sdk@csgo@3@PAUlua_State@@H@Z 10017370 f i common_lua.obj
 0001:000164e0       ?Get@?$Class@VClsTrace@lua@csgo@aw@@VTrace@sdk@34@$0A@@lua@aw@@QAEPAVTrace@sdk@csgo@3@PAUlua_State@@H@Z 100174e0 f i common_lua.obj
 0001:00016650       ?Get@?$Class@VClsUserCmd@lua@csgo@aw@@VUserCmdEx@234@$0A@@lua@aw@@QAEPAVUserCmdEx@2csgo@3@PAUlua_State@@H@Z 10017650 f i common_lua.obj
 0001:000167c0       ?Get@?$Class@VClsUserMessage@lua@csgo@aw@@VUserMessage@sdk@34@$0A@@lua@aw@@QAEPAVUserMessage@sdk@csgo@3@PAUlua_State@@H@Z 100177c0 f i common_lua.obj
 0001:00016930       ?GetDrawModelCallbacks@CommonLua@impl@mod@csgo@aw@@UAEI_N000@Z 10017930 f   common_lua.obj
 0001:00016ed0       ?GetId@?$TypedObject@VCommonLua@mod@csgo@aw@@VModuleBase@4@@aw@@UAEIXZ 10017ed0 f i common_lua.obj
 0001:00016ee0       ?Init@?$Class@VClsDrawModelContext@lua@csgo@aw@@UDrawChamsModel@mod@34@$0A@@lua@aw@@UAEXPAVContext@23@@Z 10017ee0 f i common_lua.obj
 0001:00017250       ?Init@?$Class@VClsEntity@lua@csgo@aw@@VBaseHandle@sdk@34@$00@lua@aw@@UAEXPAVContext@23@@Z 10018250 f i common_lua.obj
 0001:000175c0       ?Init@?$Class@VClsEspBuilder@lua@csgo@aw@@VEspBuilder@mod@34@$0A@@lua@aw@@UAEXPAVContext@23@@Z 100185c0 f i common_lua.obj
 0001:00017930       ?Init@?$Class@VClsGameEvent@lua@csgo@aw@@VGameEvent@sdk@34@$0A@@lua@aw@@UAEXPAVContext@23@@Z 10018930 f i common_lua.obj
 0001:00017ca0       ?Init@?$Class@VClsMaterial@lua@csgo@aw@@VMaterial@sdk@34@$0A@@lua@aw@@UAEXPAVContext@23@@Z 10018ca0 f i common_lua.obj
 0001:00018010       ?Init@?$Class@VClsPlane@lua@csgo@aw@@Ucplane_t@sdk@34@$00@lua@aw@@UAEXPAVContext@23@@Z 10019010 f i common_lua.obj
 0001:00018380       ?Init@?$Class@VClsPlayerInfo@lua@csgo@aw@@ULuaPlayerInfo@234@$0A@@lua@aw@@UAEXPAVContext@23@@Z 10019380 f i common_lua.obj
 0001:000186f0       ?Init@?$Class@VClsStringCmd@lua@csgo@aw@@UStringCmd@234@$0A@@lua@aw@@UAEXPAVContext@23@@Z 100196f0 f i common_lua.obj
 0001:00018a60       ?Init@?$Class@VClsSurface@lua@csgo@aw@@Ucsurface_t@sdk@34@$00@lua@aw@@UAEXPAVContext@23@@Z 10019a60 f i common_lua.obj
 0001:00018dd0       ?Init@?$Class@VClsTrace@lua@csgo@aw@@VTrace@sdk@34@$0A@@lua@aw@@UAEXPAVContext@23@@Z 10019dd0 f i common_lua.obj
 0001:00019140       ?Init@?$Class@VClsUserCmd@lua@csgo@aw@@VUserCmdEx@234@$0A@@lua@aw@@UAEXPAVContext@23@@Z 1001a140 f i common_lua.obj
 0001:000194b0       ?Init@?$Class@VClsUserMessage@lua@csgo@aw@@VUserMessage@sdk@34@$0A@@lua@aw@@UAEXPAVContext@23@@Z 1001a4b0 f i common_lua.obj
 0001:00019820       ?OnCreateMove@CommonLua@impl@mod@csgo@aw@@IAEXAAULocalPostMove@345@@Z 1001a820 f   common_lua.obj
 0001:00019a80       ?OnDrawChamsModel@CommonLua@impl@mod@csgo@aw@@IAEXAAUDrawChamsModel@345@@Z 1001aa80 f   common_lua.obj
 0001:00019eb0       ?OnGameEvent@CommonLua@impl@mod@csgo@aw@@IAEXAAUGameEvent@hk@45@@Z 1001aeb0 f   common_lua.obj
 0001:0001a0c0       ?OnIsScriptRunning@LibraryBase@lua@aw@@UAEXAAUIsScriptRunning@23@@Z 1001b0c0 f i common_lua.obj
 0001:0001a0d0       ?OnLoadScript@LibraryBase@lua@aw@@UAEXAAULoadScript@23@@Z 1001b0d0 f i common_lua.obj
 0001:0001a0e0       ?OnParseNetMsg@CommonLua@impl@mod@csgo@aw@@IAEXAAUParseNetMsg@hk@45@@Z 1001b0e0 f   common_lua.obj
 0001:0001a3d0       ?OnPreMove@CommonLua@impl@mod@csgo@aw@@IAEXAAULocalPreMove@345@@Z 1001b3d0 f   common_lua.obj
 0001:0001a510       ?OnSendNetMsg@CommonLua@impl@mod@csgo@aw@@IAEXAAUSendNetMsg@hk@45@@Z 1001b510 f   common_lua.obj
 0001:0001a9b0       ?OnUnloadScript@LibraryBase@lua@aw@@UAEXAAUUnloadScript@23@@Z 1001b9b0 f i common_lua.obj
 0001:0001a9c0       ?_Insert_node@?$_Tree_val@U?$_Tree_simple_types@U?$pair@$$CBV?$basic_string@DU?$char_traits@D@std@@V?$allocator@D@2@@std@@P6AHPAUlua_State@@@Z@std@@@std@@@std@@QAEPAU?$_Tree_node@U?$pair@$$CBV?$basic_string@DU?$char_traits@D@std@@V?$allocator@D@2@@std@@P6AHPAUlua_State@@@Z@std@@PAX@2@U?$_Tree_id@PAU?$_Tree_node@U?$pair@$$CBV?$basic_string@DU?$char_traits@D@std@@V?$allocator@D@2@@std@@P6AHPAUlua_State@@@Z@std@@PAX@std@@@2@QAU32@@Z 1001b9c0 f i common_lua.obj
 0001:0001abb0       ?_Throw_tree_length_error@std@@YAXXZ 1001bbb0 f i common_lua.obj
 0001:0001abc0       ??$CreateModule@VCommonInput@mod@csgo@aw@@@ModuleMgr@aw@@QAEPAVCommonInput@mod@csgo@1@XZ 1001bbc0 f i common_modules.obj
 0001:0001abe0       ??$CreateModule@VCommonLua@mod@csgo@aw@@@ModuleMgr@aw@@QAEPAVCommonLua@mod@csgo@1@XZ 1001bbe0 f i common_modules.obj
 0001:0001abf0       ??$CreateModule@VCommonRender@mod@csgo@aw@@@ModuleMgr@aw@@QAEPAVCommonRender@mod@csgo@1@XZ 1001bbf0 f i common_modules.obj
 0001:0001ac00       ??$CreateModule@VCommonUI@mod@csgo@aw@@@ModuleMgr@aw@@QAEPAVCommonUI@mod@csgo@1@XZ 1001bc00 f i common_modules.obj
 0001:0001ac10       ??$CreateModule@VContext@lua@aw@@@ModuleMgr@aw@@QAEPAVContext@lua@1@XZ 1001bc10 f i common_modules.obj
 0001:0001ac30       ??$CreateModule@VContext@ui@aw@@@ModuleMgr@aw@@QAEPAVContext@ui@1@XZ 1001bc30 f i common_modules.obj
 0001:0001ac50       ??$CreateModule@VGameInput@mod@csgo@aw@@@ModuleMgr@aw@@QAEPAVGameInput@mod@csgo@1@XZ 1001bc50 f i common_modules.obj
 0001:0001acb0       ??$CreateModule@VRenderContext@gfx@aw@@@ModuleMgr@aw@@QAEPAVRenderContext@gfx@1@XZ 1001bcb0 f i common_modules.obj
 0001:0001acd0       ??$CreateModule@VRenderResources@gfx@aw@@@ModuleMgr@aw@@QAEPAVRenderResources@gfx@1@XZ 1001bcd0 f i common_modules.obj
 0001:0001ad10       ??$CreateModule@VRenderSystem@gfx@aw@@@ModuleMgr@aw@@QAEPAVRenderSystem@gfx@1@XZ 1001bd10 f i common_modules.obj
 0001:0001ae10       ??$CreateModule@VRenderThread@gfx@aw@@@ModuleMgr@aw@@QAEPAVRenderThread@gfx@1@XZ 1001be10 f i common_modules.obj
 0001:0001ae90       ??$FindModule@VCommonInput@mod@csgo@aw@@@ModuleMgr@aw@@QAEPAVCommonInput@mod@csgo@1@_N@Z 1001be90 f i common_modules.obj
 0001:0001af60       ??$FindModule@VCommonLua@mod@csgo@aw@@@ModuleMgr@aw@@QAEPAVCommonLua@mod@csgo@1@_N@Z 1001bf60 f i common_modules.obj
 0001:0001b030       ??$FindModule@VCommonRender@mod@csgo@aw@@@ModuleMgr@aw@@QAEPAVCommonRender@mod@csgo@1@_N@Z 1001c030 f i common_modules.obj
 0001:0001b100       ??$FindModule@VCommonUI@mod@csgo@aw@@@ModuleMgr@aw@@QAEPAVCommonUI@mod@csgo@1@_N@Z 1001c100 f i common_modules.obj
 0001:0001b1d0       ??$FindModule@VContext@lua@aw@@@ModuleMgr@aw@@QAEPAVContext@lua@1@_N@Z 1001c1d0 f i common_modules.obj
 0001:0001b2a0       ??$FindModule@VContext@ui@aw@@@ModuleMgr@aw@@QAEPAVContext@ui@1@_N@Z 1001c2a0 f i common_modules.obj
 0001:0001b370       ??$FindModule@VGameInput@mod@csgo@aw@@@ModuleMgr@aw@@QAEPAVGameInput@mod@csgo@1@_N@Z 1001c370 f i common_modules.obj
 0001:0001b440       ??$FindModule@VRenderContext@gfx@aw@@@ModuleMgr@aw@@QAEPAVRenderContext@gfx@1@_N@Z 1001c440 f i common_modules.obj
 0001:0001b510       ??$FindModule@VRenderResources@gfx@aw@@@ModuleMgr@aw@@QAEPAVRenderResources@gfx@1@_N@Z 1001c510 f i common_modules.obj
 0001:0001b5e0       ??$FindModule@VRenderSystem@gfx@aw@@@ModuleMgr@aw@@QAEPAVRenderSystem@gfx@1@_N@Z 1001c5e0 f i common_modules.obj
 0001:0001b6b0       ??$FindModule@VRenderThread@gfx@aw@@@ModuleMgr@aw@@QAEPAVRenderThread@gfx@1@_N@Z 1001c6b0 f i common_modules.obj
 0001:0001b780       ??$FindOrCreateModule@VCommonInput@mod@csgo@aw@@@ModuleMgr@aw@@QAEPAVCommonInput@mod@csgo@1@XZ 1001c780 f i common_modules.obj
 0001:0001b7a0       ??$FindOrCreateModule@VCommonLua@mod@csgo@aw@@@ModuleMgr@aw@@QAEPAVCommonLua@mod@csgo@1@XZ 1001c7a0 f i common_modules.obj
 0001:0001b7c0       ??$FindOrCreateModule@VCommonRender@mod@csgo@aw@@@ModuleMgr@aw@@QAEPAVCommonRender@mod@csgo@1@XZ 1001c7c0 f i common_modules.obj
 0001:0001b7e0       ??$FindOrCreateModule@VCommonUI@mod@csgo@aw@@@ModuleMgr@aw@@QAEPAVCommonUI@mod@csgo@1@XZ 1001c7e0 f i common_modules.obj
 0001:0001b800       ??$FindOrCreateModule@VContext@lua@aw@@@ModuleMgr@aw@@QAEPAVContext@lua@1@XZ 1001c800 f i common_modules.obj
 0001:0001b820       ??$FindOrCreateModule@VContext@ui@aw@@@ModuleMgr@aw@@QAEPAVContext@ui@1@XZ 1001c820 f i common_modules.obj
 0001:0001b840       ??$FindOrCreateModule@VGameInput@mod@csgo@aw@@@ModuleMgr@aw@@QAEPAVGameInput@mod@csgo@1@XZ 1001c840 f i common_modules.obj
 0001:0001b860       ??$FindOrCreateModule@VRenderContext@gfx@aw@@@ModuleMgr@aw@@QAEPAVRenderContext@gfx@1@XZ 1001c860 f i common_modules.obj
 0001:0001b880       ??$FindOrCreateModule@VRenderResources@gfx@aw@@@ModuleMgr@aw@@QAEPAVRenderResources@gfx@1@XZ 1001c880 f i common_modules.obj
 0001:0001b8a0       ??$FindOrCreateModule@VRenderSystem@gfx@aw@@@ModuleMgr@aw@@QAEPAVRenderSystem@gfx@1@XZ 1001c8a0 f i common_modules.obj
 0001:0001b8c0       ??$FindOrCreateModule@VRenderThread@gfx@aw@@@ModuleMgr@aw@@QAEPAVRenderThread@gfx@1@XZ 1001c8c0 f i common_modules.obj
 0001:0001b8e0       ??$RegisterModule@VCommonInput@mod@csgo@aw@@@ModuleMgr@aw@@QAEPAVCommonInput@mod@csgo@1@XZ 1001c8e0 f i common_modules.obj
 0001:0001b8f0       ??$RegisterModule@VCommonLua@mod@csgo@aw@@@ModuleMgr@aw@@QAEPAVCommonLua@mod@csgo@1@XZ 1001c8f0 f i common_modules.obj
 0001:0001b900       ??$RegisterModule@VCommonRender@mod@csgo@aw@@@ModuleMgr@aw@@QAEPAVCommonRender@mod@csgo@1@XZ 1001c900 f i common_modules.obj
 0001:0001b910       ??$RegisterModule@VCommonUI@mod@csgo@aw@@@ModuleMgr@aw@@QAEPAVCommonUI@mod@csgo@1@XZ 1001c910 f i common_modules.obj
 0001:0001b920       ??$RegisterModule@VContext@lua@aw@@@ModuleMgr@aw@@QAEPAVContext@lua@1@XZ 1001c920 f i common_modules.obj
 0001:0001b930       ??$RegisterModule@VContext@ui@aw@@@ModuleMgr@aw@@QAEPAVContext@ui@1@XZ 1001c930 f i common_modules.obj
 0001:0001b940       ??$RegisterModule@VGameInput@mod@csgo@aw@@@ModuleMgr@aw@@QAEPAVGameInput@mod@csgo@1@XZ 1001c940 f i common_modules.obj
 0001:0001b950       ??$RegisterModule@VRenderContext@gfx@aw@@@ModuleMgr@aw@@QAEPAVRenderContext@gfx@1@XZ 1001c950 f i common_modules.obj
 0001:0001b960       ??$RegisterModule@VRenderResources@gfx@aw@@@ModuleMgr@aw@@QAEPAVRenderResources@gfx@1@XZ 1001c960 f i common_modules.obj
 0001:0001b970       ??$RegisterModule@VRenderSystem@gfx@aw@@@ModuleMgr@aw@@QAEPAVRenderSystem@gfx@1@XZ 1001c970 f i common_modules.obj
 0001:0001b980       ??$_Erase_tree@V?$allocator@U?$_Tree_node@U?$pair@$$CBIV?$unique_ptr@VD3D9VertexBuffer@gfx@aw@@U?$default_delete@VD3D9VertexBuffer@gfx@aw@@@std@@@std@@@std@@PAX@std@@@std@@@?$_Tree_val@U?$_Tree_simple_types@U?$pair@$$CBIV?$unique_ptr@VD3D9VertexBuffer@gfx@aw@@U?$default_delete@VD3D9VertexBuffer@gfx@aw@@@std@@@std@@@std@@@std@@@std@@QAEXAAV?$allocator@U?$_Tree_node@U?$pair@$$CBIV?$unique_ptr@VD3D9VertexBuffer@gfx@aw@@U?$default_delete@VD3D9VertexBuffer@gfx@aw@@@std@@@std@@@std@@PAX@std@@@1@PAU?$_Tree_node@U?$pair@$$CBIV?$unique_ptr@VD3D9VertexBuffer@gfx@aw@@U?$default_delete@VD3D9VertexBuffer@gfx@aw@@@std@@@std@@@std@@PAX@1@@Z 1001c980 f i common_modules.obj
 0001:0001ba00       ??0D3D9RestorableState@gfx@aw@@QAE@XZ 1001ca00 f i common_modules.obj
 0001:0001bdb0       ??0Win32Input@hk@aw@@QAE@XZ 1001cdb0 f i common_modules.obj
 0001:0001bfc0       ??1?$_Hash@V?$_Umap_traits@IU?$HResultPair@UStreamSource@D3D9RestorableState@gfx@aw@@@nt@aw@@V?$_Uhash_compare@IU?$hash@I@std@@U?$equal_to@I@2@@std@@V?$allocator@U?$pair@$$CBIU?$HResultPair@UStreamSource@D3D9RestorableState@gfx@aw@@@nt@aw@@@std@@@5@$0A@@std@@@std@@QAE@XZ 1001cfc0 f i common_modules.obj
 0001:0001c040       ??1?$_Hash@V?$_Umap_traits@KU?$HResultPair@PAUIDirect3DBaseTexture9@@@nt@aw@@V?$_Uhash_compare@KU?$hash@K@std@@U?$equal_to@K@2@@std@@V?$allocator@U?$pair@$$CBKU?$HResultPair@PAUIDirect3DBaseTexture9@@@nt@aw@@@std@@@5@$0A@@std@@@std@@QAE@XZ 1001d040 f i common_modules.obj
 0001:0001c0c0       ??1?$_Hash@V?$_Umap_traits@W4_D3DRENDERSTATETYPE@@U?$HResultPair@K@nt@aw@@V?$_Uhash_compare@W4_D3DRENDERSTATETYPE@@U?$hash@W4_D3DRENDERSTATETYPE@@@std@@U?$equal_to@W4_D3DRENDERSTATETYPE@@@3@@std@@V?$allocator@U?$pair@$$CBW4_D3DRENDERSTATETYPE@@U?$HResultPair@K@nt@aw@@@std@@@6@$0A@@std@@@std@@QAE@XZ 1001d0c0 f i common_modules.obj
 0001:0001c140       ??1?$list@U?$pair@$$CBKV?$unordered_map@W4_D3DSAMPLERSTATETYPE@@U?$HResultPair@K@nt@aw@@U?$hash@W4_D3DSAMPLERSTATETYPE@@@std@@U?$equal_to@W4_D3DSAMPLERSTATETYPE@@@6@V?$allocator@U?$pair@$$CBW4_D3DSAMPLERSTATETYPE@@U?$HResultPair@K@nt@aw@@@std@@@6@@std@@@std@@V?$allocator@U?$pair@$$CBKV?$unordered_map@W4_D3DSAMPLERSTATETYPE@@U?$HResultPair@K@nt@aw@@U?$hash@W4_D3DSAMPLERSTATETYPE@@@std@@U?$equal_to@W4_D3DSAMPLERSTATETYPE@@@6@V?$allocator@U?$pair@$$CBW4_D3DSAMPLERSTATETYPE@@U?$HResultPair@K@nt@aw@@@std@@@6@@std@@@std@@@2@@std@@QAE@XZ 1001d140 f i common_modules.obj
 0001:0001c1f0       ??1?$list@U?$pair@$$CBKV?$unordered_map@W4_D3DTEXTURESTAGESTATETYPE@@U?$HResultPair@K@nt@aw@@U?$hash@W4_D3DTEXTURESTAGESTATETYPE@@@std@@U?$equal_to@W4_D3DTEXTURESTAGESTATETYPE@@@6@V?$allocator@U?$pair@$$CBW4_D3DTEXTURESTAGESTATETYPE@@U?$HResultPair@K@nt@aw@@@std@@@6@@std@@@std@@V?$allocator@U?$pair@$$CBKV?$unordered_map@W4_D3DTEXTURESTAGESTATETYPE@@U?$HResultPair@K@nt@aw@@U?$hash@W4_D3DTEXTURESTAGESTATETYPE@@@std@@U?$equal_to@W4_D3DTEXTURESTAGESTATETYPE@@@6@V?$allocator@U?$pair@$$CBW4_D3DTEXTURESTAGESTATETYPE@@U?$HResultPair@K@nt@aw@@@std@@@6@@std@@@std@@@2@@std@@QAE@XZ 1001d1f0 f i common_modules.obj
 0001:0001c2a0       ??1D3D9RestorableState@gfx@aw@@QAE@XZ 1001d2a0 f i common_modules.obj
 0001:0001c360       ??_E?$ModuleBaseImpl@VInputBase@hk@aw@@V?$TypedObject@VInputBase@hk@aw@@VModuleBase@3@@3@@aw@@UAEPAXI@Z 1001d360 f i common_modules.obj
 0001:0001c360       ??_G?$ModuleBaseImpl@VInputBase@hk@aw@@V?$TypedObject@VInputBase@hk@aw@@VModuleBase@3@@3@@aw@@UAEPAXI@Z 1001d360 f i common_modules.obj
 0001:0001c390       ??_E?$ModuleBaseImpl@VRenderSystem@gfx@aw@@V?$TypedObject@VRenderSystem@gfx@aw@@VModuleBase@3@@3@@aw@@UAEPAXI@Z 1001d390 f i common_modules.obj
 0001:0001c390       ??_G?$ModuleBaseImpl@VRenderSystem@gfx@aw@@V?$TypedObject@VRenderSystem@gfx@aw@@VModuleBase@3@@3@@aw@@UAEPAXI@Z 1001d390 f i common_modules.obj
 0001:0001c3c0       ??_ED3D9Resources@gfx@aw@@UAEPAXI@Z 1001d3c0 f i common_modules.obj
 0001:0001c3c0       ??_GD3D9Resources@gfx@aw@@UAEPAXI@Z 1001d3c0 f i common_modules.obj
 0001:0001c3e0       ??_ED3D9Thread@gfx@aw@@UAEPAXI@Z 1001d3e0 f i common_modules.obj
 0001:0001c3e0       ??_GD3D9Thread@gfx@aw@@UAEPAXI@Z 1001d3e0 f i common_modules.obj
 0001:0001c440       ??_EGameInput@mod@csgo@aw@@UAEPAXI@Z 1001d440 f i common_modules.obj
 0001:0001c440       ??_GGameInput@mod@csgo@aw@@UAEPAXI@Z 1001d440 f i common_modules.obj
 0001:0001c470       ??_EInputBase@hk@aw@@UAEPAXI@Z 1001d470 f i common_modules.obj
 0001:0001c470       ??_GInputBase@hk@aw@@UAEPAXI@Z 1001d470 f i common_modules.obj
 0001:0001c4a0       ??_ERenderSystem@gfx@aw@@UAEPAXI@Z 1001d4a0 f i common_modules.obj
 0001:0001c4a0       ??_GRenderSystem@gfx@aw@@UAEPAXI@Z 1001d4a0 f i common_modules.obj
 0001:0001c4d0       ??_EWin32Input@hk@aw@@UAEPAXI@Z 1001d4d0 f i common_modules.obj
 0001:0001c4d0       ??_GWin32Input@hk@aw@@UAEPAXI@Z 1001d4d0 f i common_modules.obj
 0001:0001c500       ?CreateModule@?$ModuleWithFactory@VInputBase@hk@aw@@@aw@@SAPAVInputBase@hk@2@XZ 1001d500 f   common_modules.obj
 0001:0001c560       ?CreateModule@?$ModuleWithFactory@VRenderResources@gfx@aw@@@aw@@SAPAVRenderResources@gfx@2@XZ 1001d560 f   common_modules.obj
 0001:0001c5a0       ?CreateModule@?$ModuleWithFactory@VRenderThread@gfx@aw@@@aw@@SAPAVRenderThread@gfx@2@XZ 1001d5a0 f   common_modules.obj
 0001:0001c620       ?GetId@?$TypedObject@VInputBase@hk@aw@@VModuleBase@3@@aw@@UAEIXZ 1001d620 f i common_modules.obj
 0001:0001c630       ?GetId@?$TypedObject@VRenderResources@gfx@aw@@VModuleBase@3@@aw@@UAEIXZ 1001d630 f i common_modules.obj
 0001:0001c640       ?GetId@?$TypedObject@VRenderSystem@gfx@aw@@VModuleBase@3@@aw@@UAEIXZ 1001d640 f i common_modules.obj
 0001:0001c650       ?GetId@?$TypedObject@VRenderThread@gfx@aw@@VModuleBase@3@@aw@@UAEIXZ 1001d650 f i common_modules.obj
 0001:0001c660       ??_E?$ModuleBaseImpl@VCommonRender@mod@csgo@aw@@V?$TypedObject@VCommonRender@mod@csgo@aw@@VModuleBase@4@@4@@aw@@UAEPAXI@Z 1001d660 f i common_render.obj
 0001:0001c660       ??_G?$ModuleBaseImpl@VCommonRender@mod@csgo@aw@@V?$TypedObject@VCommonRender@mod@csgo@aw@@VModuleBase@4@@4@@aw@@UAEPAXI@Z 1001d660 f i common_render.obj
 0001:0001c690       ??_ECommonRender@impl@mod@csgo@aw@@UAEPAXI@Z 1001d690 f i common_render.obj
 0001:0001c690       ??_GCommonRender@impl@mod@csgo@aw@@UAEPAXI@Z 1001d690 f i common_render.obj
 0001:0001c6c0       ?CreateModule@?$ModuleWithFactory@VCommonRender@mod@csgo@aw@@@aw@@SAPAVCommonRender@mod@csgo@2@XZ 1001d6c0 f   common_render.obj
 0001:0001c7a0       ?GetId@?$TypedObject@VCommonRender@mod@csgo@aw@@VModuleBase@4@@aw@@UAEIXZ 1001d7a0 f i common_render.obj
 0001:0001c7b0       ?GetPresentTime@CommonRender@impl@mod@csgo@aw@@UAEMXZ 1001d7b0 f   common_render.obj
 0001:0001c7c0       ?GetRenderTime@CommonRender@impl@mod@csgo@aw@@UAEMXZ 1001d7c0 f   common_render.obj
 0001:0001c7d0       ??_E?$ModuleBaseImpl@VCommonUI@mod@csgo@aw@@V?$TypedObject@VCommonUI@mod@csgo@aw@@VModuleBase@4@@4@@aw@@UAEPAXI@Z 1001d7d0 f i common_ui.obj
 0001:0001c7d0       ??_G?$ModuleBaseImpl@VCommonUI@mod@csgo@aw@@V?$TypedObject@VCommonUI@mod@csgo@aw@@VModuleBase@4@@4@@aw@@UAEPAXI@Z 1001d7d0 f i common_ui.obj
 0001:0001c800       ??_ECommonUI@impl@mod@csgo@aw@@UAEPAXI@Z 1001d800 f i common_ui.obj
 0001:0001c800       ??_GCommonUI@impl@mod@csgo@aw@@UAEPAXI@Z 1001d800 f i common_ui.obj
 0001:0001c830       ?CreateModule@?$ModuleWithFactory@VCommonUI@mod@csgo@aw@@@aw@@SAPAVCommonUI@mod@csgo@2@XZ 1001d830 f   common_ui.obj
 0001:0001c970       ?GetId@?$TypedObject@VCommonUI@mod@csgo@aw@@VModuleBase@4@@aw@@UAEIXZ 1001d970 f i common_ui.obj
 0001:0001c980       ?OnFrame@CommonUI@impl@mod@csgo@aw@@IAEXAAURenderFrame@gfx@5@@Z 1001d980 f   common_ui.obj
 0001:0001cbb0       ?OnGameEvent@CommonUI@impl@mod@csgo@aw@@IAEXAAUGameEvent@hk@45@@Z 1001dbb0 f   common_ui.obj
 0001:0001cc90       ??$CreateModule@VResources@ui@aw@@@ModuleMgr@aw@@QAEPAVResources@ui@1@XZ 1001dc90 f i lagcompensation.obj
 0001:0001ccb0       ??$FindModule@VResources@ui@aw@@@ModuleMgr@aw@@QAEPAVResources@ui@1@_N@Z 1001dcb0 f i lagcompensation.obj
 0001:0001cd80       ??$FindOrCreateModule@VResources@ui@aw@@@ModuleMgr@aw@@QAEPAVResources@ui@1@XZ 1001dd80 f i lagcompensation.obj
 0001:0001cda0       ?GetNumPoseParameters@ModelHdr@sdk@csgo@aw@@QAEHXZ 1001dda0 f i lagcompensation.obj
 0001:0001cdc0       ??$_Reallocate_grow_by@V<lambda_1>@?1??push_back@?$basic_string@DU?$char_traits@D@std@@V?$allocator@D@2@@std@@QAEXD@Z@D@?$basic_string@DU?$char_traits@D@std@@V?$allocator@D@2@@std@@AAEAAV01@IV<lambda_1>@?1??push_back@01@QAEXD@Z@D@Z 1001ddc0 f i esp_element_base.obj
 0001:0001cee0       ??0EspAnchorPicker@mod@csgo@aw@@QAE@PAVObjectBase@ui@3@@Z 1001dee0 f   esp_element_base.obj
 0001:0001cfd0       ??0EspElementBase@mod@csgo@aw@@QAE@PAVEspEntityBase@123@@Z 1001dfd0 f   esp_element_base.obj
 0001:0001d000       ??1?$vector@V?$unique_ptr@VColorPicker@ui@aw@@U?$default_delete@VColorPicker@ui@aw@@@std@@@std@@V?$allocator@V?$unique_ptr@VColorPicker@ui@aw@@U?$default_delete@VColorPicker@ui@aw@@@std@@@std@@@2@@std@@QAE@XZ 1001e000 f i esp_element_base.obj
 0001:0001d060       ??1EspElementBase@mod@csgo@aw@@UAE@XZ 1001e060 f i esp_element_base.obj
 0001:0001d080       ??1ObjectBase@ui@aw@@UAE@XZ 1001e080 f i esp_element_base.obj
 0001:0001d1b0       ??_EEspAnchorPicker@mod@csgo@aw@@UAEPAXI@Z 1001e1b0 f i esp_element_base.obj
 0001:0001d1b0       ??_GEspAnchorPicker@mod@csgo@aw@@UAEPAXI@Z 1001e1b0 f i esp_element_base.obj
 0001:0001d1e0       ??_EEspElementBase@mod@csgo@aw@@UAEPAXI@Z 1001e1e0 f i esp_element_base.obj
 0001:0001d1e0       ??_GEspElementBase@mod@csgo@aw@@UAEPAXI@Z 1001e1e0 f i esp_element_base.obj
 0001:0001d220       ??_EObjectBase@ui@aw@@UAEPAXI@Z 1001e220 f i esp_element_base.obj
 0001:0001d220       ??_GObjectBase@ui@aw@@UAEPAXI@Z 1001e220 f i esp_element_base.obj
 0001:0001d250       ?AllowVarHelper@EspAnchorPicker@mod@csgo@aw@@UAE_NXZ 1001e250 f   esp_element_base.obj
 0001:0001d260       ?AllowVarHelper@ObjectBase@ui@aw@@UAE_NXZ 1001e260 f i esp_element_base.obj
 0001:0001d270       ?DrawWeapon@EspElementBase@mod@csgo@aw@@IAEXAAVEspBuilder@234@HW4EspPosition@cheat@4@_NUColor@gfx@4@2@Z 1001e270 f   esp_element_base.obj
 0001:0001d410       ?GetAnchor@EspElementBase@mod@csgo@aw@@QAE?AW4EspPosition@cheat@4@XZ 1001e410 f   esp_element_base.obj
 0001:0001d430       ?GetAnchorPicker@EspElementBase@mod@csgo@aw@@QAEPAVEspAnchorPicker@234@XZ 1001e430 f   esp_element_base.obj
 0001:0001d440       ?GetColor@EspElementBase@mod@csgo@aw@@QAE?AUColor@gfx@4@XZ 1001e440 f   esp_element_base.obj
 0001:0001d460       ?GetType@?$Object@VEspAnchorPicker@mod@csgo@aw@@@ui@aw@@UAEIXZ 1001e460 f i esp_element_base.obj
 0001:0001d470       ?GetType@ObjectBase@ui@aw@@UAEIXZ 1001e470 f i esp_element_base.obj
 0001:0001d480       ?Load@EspAnchorPicker@mod@csgo@aw@@UAEXV?$basic_string_view@DU?$char_traits@D@std@@@std@@@Z 1001e480 f   esp_element_base.obj
 0001:0001d4d0       ?Load@ObjectBase@ui@aw@@UAEXV?$basic_string_view@DU?$char_traits@D@std@@@std@@@Z 1001e4d0 f i esp_element_base.obj
 0001:0001d4e0       ?Reset@EspAnchorPicker@mod@csgo@aw@@UAEXXZ 1001e4e0 f   esp_element_base.obj
 0001:0001d4f0       ?Reset@ObjectBase@ui@aw@@UAEXXZ 1001e4f0 f i esp_element_base.obj
 0001:0001d500       ?Save@EspAnchorPicker@mod@csgo@aw@@UAE?AV?$basic_string@DU?$char_traits@D@std@@V?$allocator@D@2@@std@@XZ 1001e500 f   esp_element_base.obj
 0001:0001d550       ?Save@ObjectBase@ui@aw@@UAE?AV?$basic_string@DU?$char_traits@D@std@@V?$allocator@D@2@@std@@XZ 1001e550 f i esp_element_base.obj
 0001:0001d570       ?SetDefault@ObjectBase@ui@aw@@UAEXXZ 1001e570 f i esp_element_base.obj
 0001:0001d580       ?Update@EspAnchorPicker@mod@csgo@aw@@UAEXAAVObjectUpdate@ui@4@@Z 1001e580 f   esp_element_base.obj
 0001:0001d590       ??$_Resize_reallocate@U_Value_init_tag@std@@@?$vector@V?$unique_ptr@VColorPicker@ui@aw@@U?$default_delete@VColorPicker@ui@aw@@@std@@@std@@V?$allocator@V?$unique_ptr@VColorPicker@ui@aw@@U?$default_delete@VColorPicker@ui@aw@@@std@@@std@@@2@@std@@AAEXIABU_Value_init_tag@1@@Z 1001e590 f i esp_element_ammo.obj
 0001:0001d6d0       ??0EspElementAmmo@mod@csgo@aw@@QAE@PAVEspEntityBase@123@@Z 1001e6d0 f   esp_element_ammo.obj
 0001:0001d9a0       ??_EEspElementAmmo@mod@csgo@aw@@UAEPAXI@Z 1001e9a0 f i esp_element_ammo.obj
 0001:0001d9a0       ??_GEspElementAmmo@mod@csgo@aw@@UAEPAXI@Z 1001e9a0 f i esp_element_ammo.obj
 0001:0001d9d0       ?IsEnabled@EspElementAmmo@mod@csgo@aw@@UAE_NXZ 1001e9d0 f   esp_element_ammo.obj
 0001:0001d9e0       ?Render@EspElementAmmo@mod@csgo@aw@@UAEXAAVEspBuilder@234@@Z 1001e9e0 f   esp_element_ammo.obj
 0001:0001dc00       ?_Xlength@?$vector@V?$unique_ptr@VColorPicker@ui@aw@@U?$default_delete@VColorPicker@ui@aw@@@std@@@std@@V?$allocator@V?$unique_ptr@VColorPicker@ui@aw@@U?$default_delete@VColorPicker@ui@aw@@@std@@@std@@@2@@std@@CAXXZ 1001ec00 f i esp_element_ammo.obj
 0001:0001dc10       ??0EspElementArmor@mod@csgo@aw@@QAE@PAVEspEntityBase@123@@Z 1001ec10 f   esp_element_armor.obj
 0001:0001de50       ??_EEspElementArmor@mod@csgo@aw@@UAEPAXI@Z 1001ee50 f i esp_element_armor.obj
 0001:0001de50       ??_GEspElementArmor@mod@csgo@aw@@UAEPAXI@Z 1001ee50 f i esp_element_armor.obj
 0001:0001de80       ?IsEnabled@EspElementArmor@mod@csgo@aw@@UAE_NXZ 1001ee80 f   esp_element_armor.obj
 0001:0001de90       ?Render@EspElementArmor@mod@csgo@aw@@UAEXAAVEspBuilder@234@@Z 1001ee90 f   esp_element_armor.obj
 0001:0001df50       ??0EspElementBarrel@mod@csgo@aw@@QAE@PAVEspEntityBase@123@@Z 1001ef50 f   esp_element_barrel.obj
 0001:0001e150       ??_EEspElementBarrel@mod@csgo@aw@@UAEPAXI@Z 1001f150 f i esp_element_barrel.obj
 0001:0001e150       ??_GEspElementBarrel@mod@csgo@aw@@UAEPAXI@Z 1001f150 f i esp_element_barrel.obj
 0001:0001e180       ?IsEnabled@EspElementBarrel@mod@csgo@aw@@UAE_NXZ 1001f180 f   esp_element_barrel.obj
 0001:0001e190       ?Render@EspElementBarrel@mod@csgo@aw@@UAEXAAVEspBuilder@234@@Z 1001f190 f   esp_element_barrel.obj
 0001:0001e530       ??$_Destroy_range@V?$allocator@V?$basic_string@DU?$char_traits@D@std@@V?$allocator@D@2@@std@@@std@@@std@@YAXPAV?$basic_string@DU?$char_traits@D@std@@V?$allocator@D@2@@0@QAV10@AAV?$allocator@V?$basic_string@DU?$char_traits@D@std@@V?$allocator@D@2@@std@@@0@@Z 1001f530 f i esp_element_box.obj
 0001:0001e580       ??0?$basic_string@DU?$char_traits@D@std@@V?$allocator@D@2@@std@@QAE@ABV01@@Z 1001f580 f i esp_element_box.obj
 0001:0001e630       ??0EspElementBox@mod@csgo@aw@@QAE@PAVEspEntityBase@123@@Z 1001f630 f   esp_element_box.obj
 0001:0001ea70       ??_EEspElementBox@mod@csgo@aw@@UAEPAXI@Z 1001fa70 f i esp_element_box.obj
 0001:0001ea70       ??_GEspElementBox@mod@csgo@aw@@UAEPAXI@Z 1001fa70 f i esp_element_box.obj
 0001:0001eab0       ?IsEnabled@EspElementBox@mod@csgo@aw@@UAE_NXZ 1001fab0 f   esp_element_box.obj
 0001:0001eac0       ?IsPrecision@EspElementBox@mod@csgo@aw@@QAE_NXZ 1001fac0 f   esp_element_box.obj
 0001:0001ead0       ?Render@EspElementBox@mod@csgo@aw@@UAEXAAVEspBuilder@234@@Z 1001fad0 f   esp_element_box.obj
 0001:0001eb40       ?SetColor@EspElementBox@mod@csgo@aw@@QAEXUColor@gfx@4@@Z 1001fb40 f   esp_element_box.obj
 0001:0001eb60       ?_Buy_raw@?$vector@V?$basic_string@DU?$char_traits@D@std@@V?$allocator@D@2@@std@@V?$allocator@V?$basic_string@DU?$char_traits@D@std@@V?$allocator@D@2@@std@@@2@@std@@AAEXI@Z 1001fb60 f i esp_element_box.obj
 0001:0001ebe0       ?_Xlength@?$vector@V?$basic_string@DU?$char_traits@D@std@@V?$allocator@D@2@@std@@V?$allocator@V?$basic_string@DU?$char_traits@D@std@@V?$allocator@D@2@@std@@@2@@std@@CAXXZ 1001fbe0 f i esp_element_box.obj
 0001:0001ebf0       ??$FormatString@AAM@aw@@YA?AV?$basic_string@DU?$char_traits@D@std@@V?$allocator@D@2@@std@@V?$basic_format_string@DAAM@v9@fmt@@AAM@Z 1001fbf0 f i esp_element_c4timer.obj
 0001:0001ec50       ??0EspElementC4Timer@mod@csgo@aw@@QAE@PAVEspEntityBase@123@@Z 1001fc50 f   esp_element_c4timer.obj
 0001:0001ed50       ??_EEspElementC4Timer@mod@csgo@aw@@UAEPAXI@Z 1001fd50 f i esp_element_c4timer.obj
 0001:0001ed50       ??_GEspElementC4Timer@mod@csgo@aw@@UAEPAXI@Z 1001fd50 f i esp_element_c4timer.obj
 0001:0001ed80       ?DrawC4Timer@EspElementC4Timer@mod@csgo@aw@@IAEXAAVEspBuilder@234@PAVPlantedC4@sdk@34@MM@Z 1001fd80 f   esp_element_c4timer.obj
 0001:0001f160       ?DrawTimerCircle@EspElementC4Timer@mod@csgo@aw@@IAEXPAVRenderContext@gfx@4@MMMMMUColor@64@@Z 10020160 f   esp_element_c4timer.obj
 0001:0001f430       ?IsEnabled@EspElementC4Timer@mod@csgo@aw@@UAE_NXZ 10020430 f   esp_element_c4timer.obj
 0001:0001f440       ?Render@EspElementC4Timer@mod@csgo@aw@@UAEXAAVEspBuilder@234@@Z 10020440 f   esp_element_c4timer.obj
 0001:0001f4c0       ??0EspElementDangerZone@mod@csgo@aw@@QAE@PAVEspEntityBase@123@@Z 100204c0 f   esp_element_dangerzone.obj
 0001:0001f640       ??_EEspElementDangerZone@mod@csgo@aw@@UAEPAXI@Z 10020640 f i esp_element_dangerzone.obj
 0001:0001f640       ??_GEspElementDangerZone@mod@csgo@aw@@UAEPAXI@Z 10020640 f i esp_element_dangerzone.obj
 0001:0001f680       ?IsDzItems@EspElementDangerZone@mod@csgo@aw@@QAE_NXZ 10020680 f   esp_element_dangerzone.obj
 0001:0001f690       ?IsDzTurret@EspElementDangerZone@mod@csgo@aw@@QAE_NXZ 10020690 f   esp_element_dangerzone.obj
 0001:0001f6a0       ?IsEnabled@EspElementDangerZone@mod@csgo@aw@@UAE_NXZ 100206a0 f   esp_element_dangerzone.obj
 0001:0001f6c0       ?Render@EspElementDangerZone@mod@csgo@aw@@UAEXAAVEspBuilder@234@@Z 100206c0 f   esp_element_dangerzone.obj
 0001:0001f6d0       ??0EspElementDefuser@mod@csgo@aw@@QAE@PAVEspEntityBase@123@@Z 100206d0 f   esp_element_defuser.obj
 0001:0001f7d0       ??_EEspElementDefuser@mod@csgo@aw@@UAEPAXI@Z 100207d0 f i esp_element_defuser.obj
 0001:0001f7d0       ??_GEspElementDefuser@mod@csgo@aw@@UAEPAXI@Z 100207d0 f i esp_element_defuser.obj
 0001:0001f800       ?IsEnabled@EspElementDefuser@mod@csgo@aw@@UAE_NXZ 10020800 f   esp_element_defuser.obj
 0001:0001f810       ?Render@EspElementDefuser@mod@csgo@aw@@UAEXAAVEspBuilder@234@@Z 10020810 f   esp_element_defuser.obj
 0001:0001f820       ??0EspElementDormant@mod@csgo@aw@@QAE@PAVEspEntityBase@123@@Z 10020820 f   esp_element_dormant.obj
 0001:0001f920       ??_EEspElementDormant@mod@csgo@aw@@UAEPAXI@Z 10020920 f i esp_element_dormant.obj
 0001:0001f920       ??_GEspElementDormant@mod@csgo@aw@@UAEPAXI@Z 10020920 f i esp_element_dormant.obj
 0001:0001f950       ?IsEnabled@EspElementDormant@mod@csgo@aw@@UAE_NXZ 10020950 f   esp_element_dormant.obj
 0001:0001f960       ?Render@EspElementDormant@mod@csgo@aw@@UAEXAAVEspBuilder@234@@Z 10020960 f   esp_element_dormant.obj
 0001:0001f970       ??0EspElementFlags@mod@csgo@aw@@QAE@PAVEspEntityBase@123@@Z 10020970 f   esp_element_flags.obj
 0001:00020310       ??1EspElementFlags@mod@csgo@aw@@UAE@XZ 10021310 f i esp_element_flags.obj
 0001:00020450       ??_EEspElementFlags@mod@csgo@aw@@UAEPAXI@Z 10021450 f i esp_element_flags.obj
 0001:00020450       ??_GEspElementFlags@mod@csgo@aw@@UAEPAXI@Z 10021450 f i esp_element_flags.obj
 0001:00020480       ?IsEnabled@EspElementFlags@mod@csgo@aw@@UAE_NXZ 10021480 f   esp_element_flags.obj
 0001:00020490       ?Render@EspElementFlags@mod@csgo@aw@@UAEXAAVEspBuilder@234@@Z 10021490 f   esp_element_flags.obj
 0001:00021260       ??0EspElementHealth@mod@csgo@aw@@QAE@PAVEspEntityBase@123@@Z 10022260 f   esp_element_health.obj
 0001:000215d0       ??_EEspElementHealth@mod@csgo@aw@@UAEPAXI@Z 100225d0 f i esp_element_health.obj
 0001:000215d0       ??_GEspElementHealth@mod@csgo@aw@@UAEPAXI@Z 100225d0 f i esp_element_health.obj
 0001:00021640       ?IsEnabled@EspElementHealth@mod@csgo@aw@@UAE_NXZ 10022640 f   esp_element_health.obj
 0001:00021660       ?Render@EspElementHealth@mod@csgo@aw@@UAEXAAVEspBuilder@234@@Z 10022660 f   esp_element_health.obj
 0001:00021830       ??0EspElementMoney@mod@csgo@aw@@QAE@PAVEspEntityBase@123@@Z 10022830 f   esp_element_money.obj
 0001:00021a70       ??_EEspElementMoney@mod@csgo@aw@@UAEPAXI@Z 10022a70 f i esp_element_money.obj
 0001:00021a70       ??_GEspElementMoney@mod@csgo@aw@@UAEPAXI@Z 10022a70 f i esp_element_money.obj
 0001:00021aa0       ?IsEnabled@EspElementMoney@mod@csgo@aw@@UAE_NXZ 10022aa0 f   esp_element_money.obj
 0001:00021ab0       ?Render@EspElementMoney@mod@csgo@aw@@UAEXAAVEspBuilder@234@@Z 10022ab0 f   esp_element_money.obj
 0001:00021c50       ??$_Erase_tree@V?$allocator@U?$_Tree_node@U?$pair@$$CBHM@std@@PAX@std@@@std@@@?$_Tree_val@U?$_Tree_simple_types@U?$pair@$$CBHM@std@@@std@@@std@@QAEXAAV?$allocator@U?$_Tree_node@U?$pair@$$CBHM@std@@PAX@std@@@1@PAU?$_Tree_node@U?$pair@$$CBHM@std@@PAX@1@@Z 10022c50 f i esp_element_nades.obj
 0001:00021c90       ??$_Find_lower_bound@H@?$_Tree@V?$_Tmap_traits@HMU?$less@H@std@@V?$allocator@U?$pair@$$CBHM@std@@@2@$0A@@std@@@std@@IBE?AU?$_Tree_find_result@PAU?$_Tree_node@U?$pair@$$CBHM@std@@PAX@std@@@1@ABH@Z 10022c90 f i esp_element_nades.obj
 0001:00021ce0       ??0EspElementNades@mod@csgo@aw@@QAE@PAVEspEntityBase@123@@Z 10022ce0 f   esp_element_nades.obj
 0001:00021fb0       ??1?$_Tree@V?$_Tmap_traits@HMU?$less@H@std@@V?$allocator@U?$pair@$$CBHM@std@@@2@$0A@@std@@@std@@QAE@XZ 10022fb0 f i esp_element_nades.obj
 0001:00021ff0       ??E?$_Tree_unchecked_const_iterator@V?$_Tree_val@U?$_Tree_simple_types@U?$pair@$$CBHM@std@@@std@@@std@@U_Iterator_base0@2@@std@@QAEAAV01@XZ 10022ff0 f i esp_element_nades.obj
 0001:00022050       ??_EEspElementNades@mod@csgo@aw@@UAEPAXI@Z 10023050 f i esp_element_nades.obj
 0001:00022050       ??_GEspElementNades@mod@csgo@aw@@UAEPAXI@Z 10023050 f i esp_element_nades.obj
 0001:000220b0       ?AddDecoyToTracker@EspElementNades@mod@csgo@aw@@QAEXHM@Z 100230b0 f   esp_element_nades.obj
 0001:00022140       ?IsEnabled@EspElementNades@mod@csgo@aw@@UAE_NXZ 10023140 f   esp_element_nades.obj
 0001:00022170       ?Render@EspElementNades@mod@csgo@aw@@UAEXAAVEspBuilder@234@@Z 10023170 f   esp_element_nades.obj
 0001:000224b0       ?UpdateDecoyTracker@EspElementNades@mod@csgo@aw@@QAEXXZ 100234b0 f   esp_element_nades.obj
 0001:00022540       ?_Extract@?$_Tree_val@U?$_Tree_simple_types@U?$pair@$$CBHM@std@@@std@@@std@@QAEPAU?$_Tree_node@U?$pair@$$CBHM@std@@PAX@2@V?$_Tree_unchecked_const_iterator@V?$_Tree_val@U?$_Tree_simple_types@U?$pair@$$CBHM@std@@@std@@@std@@U_Iterator_base0@2@@2@@Z 10023540 f i esp_element_nades.obj
 0001:00022840       ?_Insert_node@?$_Tree_val@U?$_Tree_simple_types@U?$pair@$$CBHM@std@@@std@@@std@@QAEPAU?$_Tree_node@U?$pair@$$CBHM@std@@PAX@2@U?$_Tree_id@PAU?$_Tree_node@U?$pair@$$CBHM@std@@PAX@std@@@2@QAU32@@Z 10023840 f i esp_element_nades.obj
 0001:00022a30       ?_Lrotate@?$_Tree_val@U?$_Tree_simple_types@U?$pair@$$CBHM@std@@@std@@@std@@QAEXPAU?$_Tree_node@U?$pair@$$CBHM@std@@PAX@2@@Z 10023a30 f i esp_element_nades.obj
 0001:00022a80       ?_Min@?$_Tree_val@U?$_Tree_simple_types@U?$pair@$$CBHM@std@@@std@@@std@@SAPAU?$_Tree_node@U?$pair@$$CBHM@std@@PAX@2@PAU32@@Z 10023a80 f i esp_element_nades.obj
 0001:00022aa0       ?_Rrotate@?$_Tree_val@U?$_Tree_simple_types@U?$pair@$$CBHM@std@@@std@@@std@@QAEXPAU?$_Tree_node@U?$pair@$$CBHM@std@@PAX@2@@Z 10023aa0 f i esp_element_nades.obj
 0001:00022b00       ??0EspElementNamePlayer@mod@csgo@aw@@QAE@PAVEspEntityBase@123@@Z 10023b00 f   esp_element_name_player.obj
 0001:00022d40       ??_EEspElementNamePlayer@mod@csgo@aw@@UAEPAXI@Z 10023d40 f i esp_element_name_player.obj
 0001:00022d40       ??_GEspElementNamePlayer@mod@csgo@aw@@UAEPAXI@Z 10023d40 f i esp_element_name_player.obj
 0001:00022d70       ?IsEnabled@EspElementNamePlayer@mod@csgo@aw@@UAE_NXZ 10023d70 f   esp_element_name_player.obj
 0001:00022d80       ?Render@EspElementNamePlayer@mod@csgo@aw@@UAEXAAVEspBuilder@234@@Z 10023d80 f   esp_element_name_player.obj
 0001:00022ed0       ??0EspElementNameWeapon@mod@csgo@aw@@QAE@PAVEspEntityBase@123@@Z 10023ed0 f   esp_element_name_weapon.obj
 0001:000232f0       ??_EEspElementNameWeapon@mod@csgo@aw@@UAEPAXI@Z 100242f0 f i esp_element_name_weapon.obj
 0001:000232f0       ??_GEspElementNameWeapon@mod@csgo@aw@@UAEPAXI@Z 100242f0 f i esp_element_name_weapon.obj
 0001:00023320       ?IsEnabled@EspElementNameWeapon@mod@csgo@aw@@UAE_NXZ 10024320 f   esp_element_name_weapon.obj
 0001:00023330       ?Render@EspElementNameWeapon@mod@csgo@aw@@UAEXAAVEspBuilder@234@@Z 10024330 f   esp_element_name_weapon.obj
 0001:00023450       ??0EspElementPing@mod@csgo@aw@@QAE@PAVEspEntityBase@123@@Z 10024450 f   esp_element_ping.obj
 0001:00023670       ??_EEspElementPing@mod@csgo@aw@@UAEPAXI@Z 10024670 f i esp_element_ping.obj
 0001:00023670       ??_GEspElementPing@mod@csgo@aw@@UAEPAXI@Z 10024670 f i esp_element_ping.obj
 0001:000236a0       ?IsEnabled@EspElementPing@mod@csgo@aw@@UAE_NXZ 100246a0 f   esp_element_ping.obj
 0001:000236b0       ?Render@EspElementPing@mod@csgo@aw@@UAEXAAVEspBuilder@234@@Z 100246b0 f   esp_element_ping.obj
 0001:00023870       ??0EspElementSkeleton@mod@csgo@aw@@QAE@PAVEspEntityBase@123@@Z 10024870 f   esp_element_skeleton.obj
 0001:00023a70       ??_EEspElementSkeleton@mod@csgo@aw@@UAEPAXI@Z 10024a70 f i esp_element_skeleton.obj
 0001:00023a70       ??_GEspElementSkeleton@mod@csgo@aw@@UAEPAXI@Z 10024a70 f i esp_element_skeleton.obj
 0001:00023aa0       ?IsEnabled@EspElementSkeleton@mod@csgo@aw@@UAE_NXZ 10024aa0 f   esp_element_skeleton.obj
 0001:00023ab0       ?Render@EspElementSkeleton@mod@csgo@aw@@UAEXAAVEspBuilder@234@@Z 10024ab0 f   esp_element_skeleton.obj
 0001:00023d00       ??0EspElementWeapon@mod@csgo@aw@@QAE@PAVEspEntityBase@123@@Z 10024d00 f   esp_element_weapon.obj
 0001:00024400       ??_EEspElementWeapon@mod@csgo@aw@@UAEPAXI@Z 10025400 f i esp_element_weapon.obj
 0001:00024400       ??_GEspElementWeapon@mod@csgo@aw@@UAEPAXI@Z 10025400 f i esp_element_weapon.obj
 0001:00024470       ?IsEnabled@EspElementWeapon@mod@csgo@aw@@UAE_NXZ 10025470 f   esp_element_weapon.obj
 0001:00024480       ?Render@EspElementWeapon@mod@csgo@aw@@UAEXAAVEspBuilder@234@@Z 10025480 f   esp_element_weapon.obj
 0001:000246f0       ??_E?$ModuleBaseImpl@VClientServerNetInfo@mod@csgo@aw@@V?$TypedObject@VClientServerNetInfo@mod@csgo@aw@@VModuleBase@4@@4@@aw@@UAEPAXI@Z 100256f0 f i clientservernetinfo.obj
 0001:000246f0       ??_G?$ModuleBaseImpl@VClientServerNetInfo@mod@csgo@aw@@V?$TypedObject@VClientServerNetInfo@mod@csgo@aw@@VModuleBase@4@@4@@aw@@UAEPAXI@Z 100256f0 f i clientservernetinfo.obj
 0001:00024720       ??_EClientServerNetInfo@impl@mod@csgo@aw@@UAEPAXI@Z 10025720 f i clientservernetinfo.obj
 0001:00024720       ??_GClientServerNetInfo@impl@mod@csgo@aw@@UAEPAXI@Z 10025720 f i clientservernetinfo.obj
 0001:00024750       ?CreateModule@?$ModuleWithFactory@VClientServerNetInfo@mod@csgo@aw@@@aw@@SAPAVClientServerNetInfo@mod@csgo@2@XZ 10025750 f   clientservernetinfo.obj
 0001:00024870       ?GetId@?$TypedObject@VClientServerNetInfo@mod@csgo@aw@@VModuleBase@4@@aw@@UAEIXZ 10025870 f i clientservernetinfo.obj
 0001:00024880       ?GetIncomingLatency@ClientServerNetInfo@impl@mod@csgo@aw@@UAEMXZ 10025880 f i clientservernetinfo.obj
 0001:00024890       ?GetLatencyInfo@ClientServerNetInfo@impl@mod@csgo@aw@@UAEAAULatencyInfo@345@W4LatencyType@345@@Z 10025890 f i clientservernetinfo.obj
 0001:000248b0       ?GetLatencyJitter@ClientServerNetInfo@impl@mod@csgo@aw@@UAEMW4LatencyType@345@@Z 100258b0 f i clientservernetinfo.obj
 0001:000248c0       ?GetLatencyTicks@ClientServerNetInfo@impl@mod@csgo@aw@@UAEHW4LatencyType@345@@Z 100258c0 f i clientservernetinfo.obj
 0001:000248d0       ?GetLatencyTime@ClientServerNetInfo@impl@mod@csgo@aw@@UAEMW4LatencyType@345@@Z 100258d0 f i clientservernetinfo.obj
 0001:000248e0       ?GetOutgoingLatency@ClientServerNetInfo@impl@mod@csgo@aw@@UAEMXZ 100258e0 f i clientservernetinfo.obj
 0001:000248f0       ??_E?$ModuleBaseImpl@VFakeLag@mod@csgo@aw@@V?$TypedObject@VFakeLag@mod@csgo@aw@@VModuleBase@4@@4@@aw@@UAEPAXI@Z 100258f0 f i fakelag.obj
 0001:000248f0       ??_G?$ModuleBaseImpl@VFakeLag@mod@csgo@aw@@V?$TypedObject@VFakeLag@mod@csgo@aw@@VModuleBase@4@@4@@aw@@UAEPAXI@Z 100258f0 f i fakelag.obj
 0001:00024920       ??_EFakeLag@impl@mod@csgo@aw@@UAEPAXI@Z 10025920 f i fakelag.obj
 0001:00024920       ??_GFakeLag@impl@mod@csgo@aw@@UAEPAXI@Z 10025920 f i fakelag.obj
 0001:00024950       ?CreateModule@?$ModuleWithFactory@VFakeLag@mod@csgo@aw@@@aw@@SAPAVFakeLag@mod@csgo@2@XZ 10025950 f   fakelag.obj
 0001:00024ab0       ?GetId@?$TypedObject@VFakeLag@mod@csgo@aw@@VModuleBase@4@@aw@@UAEIXZ 10025ab0 f i fakelag.obj
 0001:00024ac0       ?IsActive@FakeLag@impl@mod@csgo@aw@@UAE_NXZ 10025ac0 f   fakelag.obj
 0001:00024bf0       ?OnEnemyAttackRequest@FakeLag@impl@mod@csgo@aw@@IAEXAAUEnemyAttackCheckRequest@345@@Z 10025bf0 f   fakelag.obj
 0001:00024c20       ?OnFinishMove@FakeLag@impl@mod@csgo@aw@@IAEXAAULocalFinishMove@345@@Z 10025c20 f   fakelag.obj
 0001:00024c50       ?OnPostMove@FakeLag@impl@mod@csgo@aw@@IAEXAAULocalPostMove@345@@Z 10025c50 f   fakelag.obj
 0001:00024d00       ?OnServerStateRequest@FakeLag@impl@mod@csgo@aw@@IAEXAAUServerStateEarlyRequest@345@@Z 10025d00 f   fakelag.obj
 0001:00024f70       ??_E?$ModuleBaseImpl@VFakeLatency@mod@csgo@aw@@V?$TypedObject@VFakeLatency@mod@csgo@aw@@VModuleBase@4@@4@@aw@@UAEPAXI@Z 10025f70 f i fakelatency.obj
 0001:00024f70       ??_G?$ModuleBaseImpl@VFakeLatency@mod@csgo@aw@@V?$TypedObject@VFakeLatency@mod@csgo@aw@@VModuleBase@4@@4@@aw@@UAEPAXI@Z 10025f70 f i fakelatency.obj
 0001:00024fa0       ??_EFakeLatency@impl@mod@csgo@aw@@UAEPAXI@Z 10025fa0 f i fakelatency.obj
 0001:00024fa0       ??_GFakeLatency@impl@mod@csgo@aw@@UAEPAXI@Z 10025fa0 f i fakelatency.obj
 0001:00024fe0       ?CreateModule@?$ModuleWithFactory@VFakeLatency@mod@csgo@aw@@@aw@@SAPAVFakeLatency@mod@csgo@2@XZ 10025fe0 f   fakelatency.obj
 0001:000250f0       ?GetId@?$TypedObject@VFakeLatency@mod@csgo@aw@@VModuleBase@4@@aw@@UAEIXZ 100260f0 f i fakelatency.obj
 0001:00025100       ?OnNetChannelCreated@FakeLatency@impl@mod@csgo@aw@@IAEXAAUNetChannelCreated@hk@45@@Z 10026100 f   fakelatency.obj
 0001:00025120       ?OnNetUpdateEnd@FakeLatency@impl@mod@csgo@aw@@IAEXAAUSuppressLists_NetUpdateEnd@hk@45@@Z 10026120 f   fakelatency.obj
 0001:00025190       ?OnSendDatagram@FakeLatency@impl@mod@csgo@aw@@IAEXAAUSendDatagram@hk@45@@Z 10026190 f   fakelatency.obj
 0001:000252c0       ?IsFiring@LocalPostMove@mod@csgo@aw@@QAE_NXZ 100262c0 f   localmove.obj
 0001:00025350       ?IsInputMoving@LocalMoveBase@mod@csgo@aw@@QAE_NXZ 10026350 f   localmove.obj
 0001:00025360       ??_E?$ModuleBaseImpl@VLocalMovement@mod@csgo@aw@@V?$TypedObject@VLocalMovement@mod@csgo@aw@@VModuleBase@4@@4@@aw@@UAEPAXI@Z 10026360 f i localmovement.obj
 0001:00025360       ??_G?$ModuleBaseImpl@VLocalMovement@mod@csgo@aw@@V?$TypedObject@VLocalMovement@mod@csgo@aw@@VModuleBase@4@@4@@aw@@UAEPAXI@Z 10026360 f i localmovement.obj
 0001:00025390       ??_ELocalMovement@impl@mod@csgo@aw@@UAEPAXI@Z 10026390 f i localmovement.obj
 0001:00025390       ??_GLocalMovement@impl@mod@csgo@aw@@UAEPAXI@Z 10026390 f i localmovement.obj
 0001:000253c0       ?AutoJumpBug@LocalMovement@impl@mod@csgo@aw@@IAEXAAULocalPreMove@345@@Z 100263c0 f   localmovement.obj
 0001:00025600       ?AutoStopNextTick@LocalMovement@impl@mod@csgo@aw@@UAEX_N0@Z 10026600 f i localmovement.obj
 0001:00025620       ?CreateModule@?$ModuleWithFactory@VLocalMovement@mod@csgo@aw@@@aw@@SAPAVLocalMovement@mod@csgo@2@XZ 10026620 f   localmovement.obj
 0001:000257c0       ?GetId@?$TypedObject@VLocalMovement@mod@csgo@aw@@VModuleBase@4@@aw@@UAEIXZ 100267c0 f i localmovement.obj
 0001:000257d0       ?GetMoveSpeed@LocalMovement@impl@mod@csgo@aw@@UAEMXZ 100267d0 f i localmovement.obj
 0001:000257e0       ?GetViewAnglesMoveVectors@LocalMovement@impl@mod@csgo@aw@@IAEXABVEulerAngles@5@AAVVector3@5@1@Z 100267e0 f   localmovement.obj
 0001:00025940       ?IsAntiUntrustedValveDS@CheatSecurity@mod@csgo@aw@@QAE_NXZ 10026940 f i localmovement.obj
 0001:00025970       ?IsWalking@LocalMovement@impl@mod@csgo@aw@@UAE_NPAVCSPlayer@sdk@45@@Z 10026970 f   localmovement.obj
 0001:000259a0       ?OnPostMove@LocalMovement@impl@mod@csgo@aw@@IAEXAAULocalPostMove@345@@Z 100269a0 f   localmovement.obj
 0001:00025a10       ?OnPreMove@LocalMovement@impl@mod@csgo@aw@@IAEXAAULocalPreMove@345@@Z 10026a10 f   localmovement.obj
 0001:00025cf0       ?OnPreMoveStart@LocalMovement@impl@mod@csgo@aw@@IAEXAAULocalPreMove@345@@Z 10026cf0 f   localmovement.obj
 0001:00025d00       ?OnServerStateRequest@LocalMovement@impl@mod@csgo@aw@@IAEXAAUServerStateEarlyRequest@345@@Z 10026d00 f   localmovement.obj
 0001:00025d90       ?RequestSpeedBurst@LocalMovement@impl@mod@csgo@aw@@UAEXXZ 10026d90 f   localmovement.obj
 0001:00025da0       ?UpdateParameters@LocalMovement@impl@mod@csgo@aw@@IAEXAAULocalPreMove@345@@Z 10026da0 f   localmovement.obj
 0001:00025f60       ?__offset_GetGroundEntity@BaseEntity@sdk@csgo@aw@@QAEHXZ 10026f60 f i localmovement.obj
 0001:00025f90       ?__offset_GetWaterJumpTime@BasePlayer@sdk@csgo@aw@@QAEHXZ 10026f90 f i localmovement.obj
 0001:00025fc0       ?__offset_GetWaterType@BaseEntity@sdk@csgo@aw@@QAEHXZ 10026fc0 f i localmovement.obj
 0001:00025ff0       ??_E?$ModuleBaseImpl@VLocalPlayer@mod@csgo@aw@@V?$TypedObject@VLocalPlayer@mod@csgo@aw@@VModuleBase@4@@4@@aw@@UAEPAXI@Z 10026ff0 f i localplayer.obj
 0001:00025ff0       ??_G?$ModuleBaseImpl@VLocalPlayer@mod@csgo@aw@@V?$TypedObject@VLocalPlayer@mod@csgo@aw@@VModuleBase@4@@4@@aw@@UAEPAXI@Z 10026ff0 f i localplayer.obj
 0001:00026020       ??_ELocalFinishMove@mod@csgo@aw@@UAEPAXI@Z 10027020 f i localplayer.obj
 0001:00026020       ??_GLocalFinishMove@mod@csgo@aw@@UAEPAXI@Z 10027020 f i localplayer.obj
 0001:00026050       ??_ELocalPlayer@impl@mod@csgo@aw@@UAEPAXI@Z 10027050 f i localplayer.obj
 0001:00026050       ??_GLocalPlayer@impl@mod@csgo@aw@@UAEPAXI@Z 10027050 f i localplayer.obj
 0001:00026080       ??_ELocalPreMove@mod@csgo@aw@@UAEPAXI@Z 10027080 f i localplayer.obj
 0001:00026080       ??_GLocalPreMove@mod@csgo@aw@@UAEPAXI@Z 10027080 f i localplayer.obj
 0001:000260b0       ?CreateModule@?$ModuleWithFactory@VLocalPlayer@mod@csgo@aw@@@aw@@SAPAVLocalPlayer@mod@csgo@2@XZ 100270b0 f   localplayer.obj
 0001:000260d0       ?GetFrameTime@LocalPlayer@impl@mod@csgo@aw@@UAEMXZ 100270d0 f i localplayer.obj
 0001:000260e0       ?GetId@?$TypedObject@ULocalFinishMove@mod@csgo@aw@@UCallbackVars@4@@aw@@UAEIXZ 100270e0 f i localplayer.obj
 0001:000260f0       ?GetId@?$TypedObject@ULocalPreMove@mod@csgo@aw@@UCallbackVars@4@@aw@@UAEIXZ 100270f0 f i localplayer.obj
 0001:00026100       ?GetId@?$TypedObject@VLocalPlayer@mod@csgo@aw@@VModuleBase@4@@aw@@UAEIXZ 10027100 f i localplayer.obj
 0001:00026110       ??_E?$ModuleBaseImpl@VLocalWeapon@mod@csgo@aw@@V?$TypedObject@VLocalWeapon@mod@csgo@aw@@VModuleBase@4@@4@@aw@@UAEPAXI@Z 10027110 f i localweapon.obj
 0001:00026110       ??_G?$ModuleBaseImpl@VLocalWeapon@mod@csgo@aw@@V?$TypedObject@VLocalWeapon@mod@csgo@aw@@VModuleBase@4@@4@@aw@@UAEPAXI@Z 10027110 f i localweapon.obj
 0001:00026140       ??_ELocalWeapon@impl@mod@csgo@aw@@UAEPAXI@Z 10027140 f i localweapon.obj
 0001:00026140       ??_GLocalWeapon@impl@mod@csgo@aw@@UAEPAXI@Z 10027140 f i localweapon.obj
 0001:00026170       ?CreateModule@?$ModuleWithFactory@VLocalWeapon@mod@csgo@aw@@@aw@@SAPAVLocalWeapon@mod@csgo@2@XZ 10027170 f   localweapon.obj
 0001:00026190       ?GetId@?$TypedObject@VLocalWeapon@mod@csgo@aw@@VModuleBase@4@@aw@@UAEIXZ 10027190 f i localweapon.obj
 0001:000261a0       ?GetViewAnglesLock@LocalWeapon@impl@mod@csgo@aw@@UAEAAVEulerAngles@5@XZ 100271a0 f i localweapon.obj
 0001:000261b0       ?IsViewAnglesLocked@LocalWeapon@impl@mod@csgo@aw@@UAE_NXZ 100271b0 f i localweapon.obj
 0001:000261c0       ?OnFinishMove@LocalWeapon@impl@mod@csgo@aw@@IAEXAAULocalFinishMove@345@@Z 100271c0 f   localweapon.obj
 0001:00026210       ?OnPostRunCommand@LocalWeapon@impl@mod@csgo@aw@@IAEXAAURunCommand@hk@45@@Z 10027210 f   localweapon.obj
 0001:000262b0       ?OnPreMove@LocalWeapon@impl@mod@csgo@aw@@IAEXAAULocalPreMove@345@@Z 100272b0 f   localweapon.obj
 0001:000262d0       ?OnPreRunCommand@LocalWeapon@impl@mod@csgo@aw@@IAEXAAURunCommand@hk@45@@Z 100272d0 f   localweapon.obj
 0001:00026310       ?UpdateWeaponFireVars@LocalWeapon@impl@mod@csgo@aw@@UAEXAAULocalPostMove@345@M_N@Z 10027310 f   localweapon.obj
 0001:000264e0       ??$TransferDataMapFields@$00@PredictionCopy@mod@csgo@aw@@KA_NPAVBaseEntity@sdk@23@PAEPAUdatamapinfo_t@523@@Z 100274e0 f i predictioncopy.obj
 0001:000266f0       ??$TransferDataMapFields@$0A@@PredictionCopy@mod@csgo@aw@@KA_NPAVBaseEntity@sdk@23@PAEPAUdatamapinfo_t@523@@Z 100276f0 f i predictioncopy.obj
 0001:00026900       ??$_Destroy_range@V?$allocator@UPredictionSendPropFields@mod@csgo@aw@@@std@@@std@@YAXPAUPredictionSendPropFields@mod@csgo@aw@@QAU1234@AAV?$allocator@UPredictionSendPropFields@mod@csgo@aw@@@0@@Z 10027900 f i predictioncopy.obj
 0001:00026960       ??$_Emplace_reallocate@ABUPredictionSendPropEntry@mod@csgo@aw@@@?$vector@UPredictionSendPropEntry@mod@csgo@aw@@V?$allocator@UPredictionSendPropEntry@mod@csgo@aw@@@std@@@std@@AAEPAUPredictionSendPropEntry@mod@csgo@aw@@QAU2345@ABU2345@@Z 10027960 f i predictioncopy.obj
 0001:00026aa0       ??$_Find_last@I@?$_Hash@V?$_Umap_traits@IUPredictionSendPropMap@mod@csgo@aw@@V?$_Uhash_compare@IU?$hash@I@std@@U?$equal_to@I@2@@std@@V?$allocator@U?$pair@$$CBIUPredictionSendPropMap@mod@csgo@aw@@@std@@@6@$0A@@std@@@std@@IBE?AU?$_Hash_find_last_result@PAU?$_List_node@U?$pair@$$CBIUPredictionSendPropMap@mod@csgo@aw@@@std@@PAX@std@@@1@ABII@Z 10027aa0 f i predictioncopy.obj
 0001:00026b10       ??$_Resize@U_Value_init_tag@std@@@?$vector@EV?$allocator@E@std@@@std@@AAEXIABU_Value_init_tag@1@@Z 10027b10 f i predictioncopy.obj
 0001:00026c40       ??$_Resize_reallocate@U_Value_init_tag@std@@@?$vector@UPredictionSendPropFields@mod@csgo@aw@@V?$allocator@UPredictionSendPropFields@mod@csgo@aw@@@std@@@std@@AAEXIABU_Value_init_tag@1@@Z 10027c40 f i predictioncopy.obj
 0001:00026de0       ??$_Try_emplace@ABI$$V@?$_Hash@V?$_Umap_traits@IUPredictionSendPropMap@mod@csgo@aw@@V?$_Uhash_compare@IU?$hash@I@std@@U?$equal_to@I@2@@std@@V?$allocator@U?$pair@$$CBIUPredictionSendPropMap@mod@csgo@aw@@@std@@@6@$0A@@std@@@std@@IAE?AU?$pair@PAU?$_List_node@U?$pair@$$CBIUPredictionSendPropMap@mod@csgo@aw@@@std@@PAX@std@@_N@1@ABI@Z 10027de0 f i predictioncopy.obj
 0001:00026fc0       ??$_Uninitialized_value_construct_n@V?$allocator@UPredictionSendPropFields@mod@csgo@aw@@@std@@@std@@YAPAUPredictionSendPropFields@mod@csgo@aw@@PAU1234@IAAV?$allocator@UPredictionSendPropFields@mod@csgo@aw@@@0@@Z 10027fc0 f i predictioncopy.obj
 0001:00027010       ??$fill@PAV?$_List_unchecked_iterator@V?$_List_val@U?$_List_simple_types@U?$pair@$$CBIUPredictionSendPropMap@mod@csgo@aw@@@std@@@std@@@std@@@std@@V12@@std@@YAXQAV?$_List_unchecked_iterator@V?$_List_val@U?$_List_simple_types@U?$pair@$$CBIUPredictionSendPropMap@mod@csgo@aw@@@std@@@std@@@std@@@0@0ABV10@@Z 10028010 f i predictioncopy.obj
 0001:00027070       ??1?$list@U?$pair@$$CBIUPredictionSendPropMap@mod@csgo@aw@@@std@@V?$allocator@U?$pair@$$CBIUPredictionSendPropMap@mod@csgo@aw@@@std@@@2@@std@@QAE@XZ 10028070 f i predictioncopy.obj
 0001:000270c0       ??1?$vector@UPredictionSendPropFields@mod@csgo@aw@@V?$allocator@UPredictionSendPropFields@mod@csgo@aw@@@std@@@std@@QAE@XZ 100280c0 f i predictioncopy.obj
 0001:00027130       ?GetNetworkedDataMapProps@PredictionCopy@mod@csgo@aw@@KAAAUPredictionSendPropMap@234@PAVBaseEntity@sdk@34@PAUdatamapinfo_t@734@@Z 10028130 f   predictioncopy.obj
 0001:000273f0       ?TransferData@PredictionCopy@mod@csgo@aw@@QAE_NPAVBaseEntity@sdk@34@H@Z 100283f0 f   predictioncopy.obj
 0001:00027430       ?TransferDataMapCopy@PredictionCopy@mod@csgo@aw@@KA_NPAVBaseEntity@sdk@34@PAV?$vector@EV?$allocator@E@std@@@std@@PAUdatamap_t@634@W4TransferMode@1234@@Z 10028430 f   predictioncopy.obj
 0001:00027570       ?TransferFieldForProp@PredictionCopy@mod@csgo@aw@@KA_NPAX0HPBDPAVSendProp@sdk@34@@Z 10028570 f   predictioncopy.obj
 0001:00027660       ?_Assign_grow@?$_Hash_vec@V?$allocator@V?$_List_unchecked_iterator@V?$_List_val@U?$_List_simple_types@U?$pair@$$CBIUPredictionSendPropMap@mod@csgo@aw@@@std@@@std@@@std@@@std@@@std@@@std@@QAEXIV?$_List_unchecked_iterator@V?$_List_val@U?$_List_simple_types@U?$pair@$$CBIUPredictionSendPropMap@mod@csgo@aw@@@std@@@std@@@std@@@2@@Z 10028660 f i predictioncopy.obj
 0001:00027730       ?_Forced_rehash@?$_Hash@V?$_Umap_traits@IUPredictionSendPropMap@mod@csgo@aw@@V?$_Uhash_compare@IU?$hash@I@std@@U?$equal_to@I@2@@std@@V?$allocator@U?$pair@$$CBIUPredictionSendPropMap@mod@csgo@aw@@@std@@@6@$0A@@std@@@std@@IAEXI@Z 10028730 f i predictioncopy.obj
 0001:00027890       ?_Xlength@?$vector@EV?$allocator@E@std@@@std@@CAXXZ 10028890 f i predictioncopy.obj
 0001:000278a0       ?_Xlength@?$vector@UPredictionSendPropEntry@mod@csgo@aw@@V?$allocator@UPredictionSendPropEntry@mod@csgo@aw@@@std@@@std@@CAXXZ 100288a0 f i predictioncopy.obj
 0001:000278b0       ?_Xlength@?$vector@UPredictionSendPropFields@mod@csgo@aw@@V?$allocator@UPredictionSendPropFields@mod@csgo@aw@@@std@@@std@@CAXXZ 100288b0 f i predictioncopy.obj
 0001:000278c0       ??$_Assign_counted_range@PAE@?$vector@EV?$allocator@E@std@@@std@@AAEXPAEI@Z 100288c0 f i predictionstate.obj
 0001:00027a00       ??$_Emplace_reallocate@UEnemyAttackInfo@mod@csgo@aw@@@?$vector@UEnemyAttackInfo@mod@csgo@aw@@V?$allocator@UEnemyAttackInfo@mod@csgo@aw@@@std@@@std@@AAEPAUEnemyAttackInfo@mod@csgo@aw@@QAU2345@$$QAU2345@@Z 10028a00 f i predictionstate.obj
 0001:00027ba0       ??$_Find_last@PAVBaseEntity@sdk@csgo@aw@@@?$_Hash@V?$_Umap_traits@PAVBaseEntity@sdk@csgo@aw@@UPredictableLocalData@impl@mod@34@V?$_Uhash_compare@PAVBaseEntity@sdk@csgo@aw@@U?$hash@PAVBaseEntity@sdk@csgo@aw@@@std@@U?$equal_to@PAVBaseEntity@sdk@csgo@aw@@@6@@std@@V?$allocator@U?$pair@QAVBaseEntity@sdk@csgo@aw@@UPredictableLocalData@impl@mod@34@@std@@@9@$0A@@std@@@std@@IBE?AU?$_Hash_find_last_result@PAU?$_List_node@U?$pair@QAVBaseEntity@sdk@csgo@aw@@UPredictableLocalData@impl@mod@34@@std@@PAX@std@@@1@ABQAVBaseEntity@sdk@csgo@aw@@I@Z 10028ba0 f i predictionstate.obj
 0001:00027c10       ??$_Free_non_head@V?$allocator@U?$_List_node@U?$pair@QAVBaseEntity@sdk@csgo@aw@@UPredictableLocalData@impl@mod@34@@std@@PAX@std@@@std@@@?$_List_node@U?$pair@QAVBaseEntity@sdk@csgo@aw@@UPredictableLocalData@impl@mod@34@@std@@PAX@std@@SAXAAV?$allocator@U?$_List_node@U?$pair@QAVBaseEntity@sdk@csgo@aw@@UPredictableLocalData@impl@mod@34@@std@@PAX@std@@@1@PAU01@@Z 10028c10 f i predictionstate.obj
 0001:00027c50       ??$_Try_emplace@ABQAVBaseEntity@sdk@csgo@aw@@$$V@?$_Hash@V?$_Umap_traits@PAVBaseEntity@sdk@csgo@aw@@UPredictableLocalData@impl@mod@34@V?$_Uhash_compare@PAVBaseEntity@sdk@csgo@aw@@U?$hash@PAVBaseEntity@sdk@csgo@aw@@@std@@U?$equal_to@PAVBaseEntity@sdk@csgo@aw@@@6@@std@@V?$allocator@U?$pair@QAVBaseEntity@sdk@csgo@aw@@UPredictableLocalData@impl@mod@34@@std@@@9@$0A@@std@@@std@@IAE?AU?$pair@PAU?$_List_node@U?$pair@QAVBaseEntity@sdk@csgo@aw@@UPredictableLocalData@impl@mod@34@@std@@PAX@std@@_N@1@ABQAVBaseEntity@sdk@csgo@aw@@@Z 10028c50 f i predictionstate.obj
 0001:00027e30       ??$fill@PAV?$_List_unchecked_iterator@V?$_List_val@U?$_List_simple_types@U?$pair@QAVBaseEntity@sdk@csgo@aw@@UPredictableLocalData@impl@mod@34@@std@@@std@@@std@@@std@@V12@@std@@YAXQAV?$_List_unchecked_iterator@V?$_List_val@U?$_List_simple_types@U?$pair@QAVBaseEntity@sdk@csgo@aw@@UPredictableLocalData@impl@mod@34@@std@@@std@@@std@@@0@0ABV10@@Z 10028e30 f i predictionstate.obj
 0001:00027e90       ??0PredictableLocalData@impl@mod@csgo@aw@@QAE@XZ 10028e90 f i predictionstate.obj
 0001:00027f10       ??0PredictionState@impl@mod@csgo@aw@@QAE@XZ 10028f10 f i predictionstate.obj
 0001:000283b0       ??1?$CircularArray@UPredictableCommandData@impl@mod@csgo@aw@@$0JG@@aw@@QAE@XZ 100293b0 f i predictionstate.obj
 0001:00028410       ??1?$_Hash@V?$_Umap_traits@PAVBaseEntity@sdk@csgo@aw@@UPredictableLocalData@impl@mod@34@V?$_Uhash_compare@PAVBaseEntity@sdk@csgo@aw@@U?$hash@PAVBaseEntity@sdk@csgo@aw@@@std@@U?$equal_to@PAVBaseEntity@sdk@csgo@aw@@@6@@std@@V?$allocator@U?$pair@QAVBaseEntity@sdk@csgo@aw@@UPredictableLocalData@impl@mod@34@@std@@@9@$0A@@std@@@std@@QAE@XZ 10029410 f i predictionstate.obj
 0001:00028470       ??1PredictableLocalData@impl@mod@csgo@aw@@QAE@XZ 10029470 f i predictionstate.obj
 0001:000284f0       ??4PredictionCopy@mod@csgo@aw@@QAEAAV0123@$$QAV0123@@Z 100294f0 f i predictionstate.obj
 0001:00028560       ??_E?$ModuleBaseImpl@VPredictionState@mod@csgo@aw@@V?$TypedObject@VPredictionState@mod@csgo@aw@@VModuleBase@4@@4@@aw@@UAEPAXI@Z 10029560 f i predictionstate.obj
 0001:00028560       ??_G?$ModuleBaseImpl@VPredictionState@mod@csgo@aw@@V?$TypedObject@VPredictionState@mod@csgo@aw@@VModuleBase@4@@4@@aw@@UAEPAXI@Z 10029560 f i predictionstate.obj
 0001:00028590       ??_EEnemyAttackCheckRequest@mod@csgo@aw@@UAEPAXI@Z 10029590 f i predictionstate.obj
 0001:00028590       ??_GEnemyAttackCheckRequest@mod@csgo@aw@@UAEPAXI@Z 10029590 f i predictionstate.obj
 0001:000285c0       ??_EPredictionState@impl@mod@csgo@aw@@UAEPAXI@Z 100295c0 f i predictionstate.obj
 0001:000285c0       ??_GPredictionState@impl@mod@csgo@aw@@UAEPAXI@Z 100295c0 f i predictionstate.obj
 0001:00028650       ?BackupToCommandHistory@PredictionState@impl@mod@csgo@aw@@IAEXH@Z 10029650 f   predictionstate.obj
 0001:00028770       ?BackupToPostMove@PredictionState@impl@mod@csgo@aw@@UAEXAAULocalMoveBase@345@@Z 10029770 f   predictionstate.obj
 0001:00028780       ?BackupToPreMove@PredictionState@impl@mod@csgo@aw@@UAEXAAULocalMoveBase@345@@Z 10029780 f   predictionstate.obj
 0001:00028790       ?CreateModule@?$ModuleWithFactory@VPredictionState@mod@csgo@aw@@@aw@@SAPAVPredictionState@mod@csgo@2@XZ 10029790 f   predictionstate.obj
 0001:000287c0       ?FindDescMapPredictables@PredictionState@impl@mod@csgo@aw@@UAEXPAVBaseEntity@sdk@45@AAV?$StaticVector@PAVBaseEntity@sdk@csgo@aw@@$0BA@@5@@Z 100297c0 f   predictionstate.obj
 0001:000287f0       ?FindDescMapPredictablesR@PredictionState@impl@mod@csgo@aw@@IAEXPAVBaseEntity@sdk@45@0PAUdatamap_t@745@AAV?$StaticVector@PAVBaseEntity@sdk@csgo@aw@@$0BA@@5@@Z 100297f0 f   predictionstate.obj
 0001:00028980       ?Get@Prediction@sdk@csgo@aw@@SAPAV1234@XZ 10029980 f i predictionstate.obj
 0001:00028990       ?GetId@?$TypedObject@UEnemyAttackCheckRequest@mod@csgo@aw@@UCallbackVars@4@@aw@@UAEIXZ 10029990 f i predictionstate.obj
 0001:000289a0       ?GetId@?$TypedObject@VPredictionState@mod@csgo@aw@@VModuleBase@4@@aw@@UAEIXZ 100299a0 f i predictionstate.obj
 0001:000289b0       ?GetPotentialEnemyAttacks@PredictionState@impl@mod@csgo@aw@@UAEABV?$vector@UEnemyAttackInfo@mod@csgo@aw@@V?$allocator@UEnemyAttackInfo@mod@csgo@aw@@@std@@@std@@XZ 100299b0 f   predictionstate.obj
 0001:000289c0       ?GetPredictablesMemoryUsage@PredictionState@impl@mod@csgo@aw@@UAEHXZ 100299c0 f   predictionstate.obj
 0001:00028aa0       ?InvalidatePredictablesPhysics@PredictionState@impl@mod@csgo@aw@@IAEXAAULocalMoveBase@345@@Z 10029aa0 f   predictionstate.obj
 0001:00028af0       ?OnConnectionStart@PredictionState@impl@mod@csgo@aw@@IAEXAAUConnectionStart@hk@45@@Z 10029af0 f   predictionstate.obj
 0001:00028b00       ?OnFinishMove@PredictionState@impl@mod@csgo@aw@@IAEXAAULocalFinishMove@345@@Z 10029b00 f   predictionstate.obj
 0001:00028d20       ?OnLevelInit@PredictionState@impl@mod@csgo@aw@@IAEXAAULevelInit@hk@45@@Z 10029d20 f   predictionstate.obj
 0001:00028d30       ?OnPostMove@PredictionState@impl@mod@csgo@aw@@IAEXAAULocalPostMove@345@@Z 10029d30 f   predictionstate.obj
 0001:00028f00       ?OnPostPlayerPostThink@PredictionState@impl@mod@csgo@aw@@IAEXAAUPlayerPostThink@hk@45@@Z 10029f00 f   predictionstate.obj
 0001:00028f60       ?OnPostPrediction@PredictionState@impl@mod@csgo@aw@@IAEXAAURunPrediction@hk@45@@Z 10029f60 f   predictionstate.obj
 0001:00028f80       ?OnPostRunCommand@PredictionState@impl@mod@csgo@aw@@IAEXAAURunCommand@hk@45@@Z 10029f80 f   predictionstate.obj
 0001:00028f90       ?OnPreMove@PredictionState@impl@mod@csgo@aw@@IAEXAAULocalPreMove@345@@Z 10029f90 f   predictionstate.obj
 0001:00029070       ?OnPrePlayerPostThink@PredictionState@impl@mod@csgo@aw@@IAEXAAUPlayerPostThink@hk@45@@Z 1002a070 f   predictionstate.obj
 0001:000290b0       ?OnPrePrediction@PredictionState@impl@mod@csgo@aw@@IAEXAAURunPrediction@hk@45@@Z 1002a0b0 f   predictionstate.obj
 0001:000290d0       ?OnPreRunCommand@PredictionState@impl@mod@csgo@aw@@IAEXAAURunCommand@hk@45@@Z 1002a0d0 f   predictionstate.obj
 0001:00029160       ?OnPredictionGetUserCmd@PredictionState@impl@mod@csgo@aw@@IAEXAAUGetUserCmd@hk@45@@Z 1002a160 f   predictionstate.obj
 0001:000291c0       ?OnReadPacketEntities@PredictionState@impl@mod@csgo@aw@@IAEXAAUReadPacketEntities@hk@45@@Z 1002a1c0 f   predictionstate.obj
 0001:00029300       ?PredictEnemyAttacks@PredictionState@impl@mod@csgo@aw@@IAEXAAULocalMoveBase@345@@Z 1002a300 f   predictionstate.obj
 0001:00029a90       ?PredictFlinchState@PredictionState@impl@mod@csgo@aw@@IAEXAAULocalMoveBase@345@@Z 1002aa90 f   predictionstate.obj
 0001:00029fc0       ?PredictPlayerPostThink@PredictionState@impl@mod@csgo@aw@@UAEXAAULocalFinishMove@345@@Z 1002afc0 f   predictionstate.obj
 0001:0002a040       ?PredictPlayerTick@PredictionState@impl@mod@csgo@aw@@UAEXAAULocalPostMove@345@_N@Z 1002b040 f   predictionstate.obj
 0001:0002a1d0       ?ResetPredictableList@PredictionState@impl@mod@csgo@aw@@IAEXXZ 1002b1d0 f   predictionstate.obj
 0001:0002a240       ?RestoreClientPredictionState@PredictionState@impl@mod@csgo@aw@@UAEXAAULocalMoveBase@345@@Z 1002b240 f   predictionstate.obj
 0001:0002a3b0       ?RestoreEntityToPredictedFrame@Prediction@sdk@csgo@aw@@QAEXHH@Z 1002b3b0 f i predictionstate.obj
 0001:0002a4e0       ?RestoreOriginalEntityState@Prediction@sdk@csgo@aw@@QAEXH@Z 1002b4e0 f i predictionstate.obj
 0001:0002a6a0       ?RestoreToPostMove@PredictionState@impl@mod@csgo@aw@@UAEXAAULocalMoveBase@345@@Z 1002b6a0 f   predictionstate.obj
 0001:0002a6c0       ?RestoreToPreMove@PredictionState@impl@mod@csgo@aw@@UAEXAAULocalMoveBase@345@@Z 1002b6c0 f   predictionstate.obj
 0001:0002a6e0       ?TransferPredictableData@PredictionState@impl@mod@csgo@aw@@IAEXAAULocalMoveBase@345@HW4PredictableMoveSlot@345@@Z 1002b6e0 f   predictionstate.obj
 0001:0002a7d0       ?UpdatePredictableList@PredictionState@impl@mod@csgo@aw@@IAEXAAULocalMoveBase@345@@Z 1002b7d0 f   predictionstate.obj
 0001:0002ab60       ?UpdateTickTime@PredictionState@impl@mod@csgo@aw@@UAEXAAULocalMoveBase@345@@Z 1002bb60 f   predictionstate.obj
 0001:0002abe0       ?_Assign_grow@?$_Hash_vec@V?$allocator@V?$_List_unchecked_iterator@V?$_List_val@U?$_List_simple_types@U?$pair@QAVBaseEntity@sdk@csgo@aw@@UPredictableLocalData@impl@mod@34@@std@@@std@@@std@@@std@@@std@@@std@@QAEXIV?$_List_unchecked_iterator@V?$_List_val@U?$_List_simple_types@U?$pair@QAVBaseEntity@sdk@csgo@aw@@UPredictableLocalData@impl@mod@34@@std@@@std@@@std@@@2@@Z 1002bbe0 f i predictionstate.obj
 0001:0002acb0       ?_Forced_rehash@?$_Hash@V?$_Umap_traits@PAVBaseEntity@sdk@csgo@aw@@UPredictableLocalData@impl@mod@34@V?$_Uhash_compare@PAVBaseEntity@sdk@csgo@aw@@U?$hash@PAVBaseEntity@sdk@csgo@aw@@@std@@U?$equal_to@PAVBaseEntity@sdk@csgo@aw@@@6@@std@@V?$allocator@U?$pair@QAVBaseEntity@sdk@csgo@aw@@UPredictableLocalData@impl@mod@34@@std@@@9@$0A@@std@@@std@@IAEXI@Z 1002bcb0 f i predictionstate.obj
 0001:0002ae10       ?_Unchecked_erase@?$_Hash@V?$_Umap_traits@PAVBaseEntity@sdk@csgo@aw@@UPredictableLocalData@impl@mod@34@V?$_Uhash_compare@PAVBaseEntity@sdk@csgo@aw@@U?$hash@PAVBaseEntity@sdk@csgo@aw@@@std@@U?$equal_to@PAVBaseEntity@sdk@csgo@aw@@@6@@std@@V?$allocator@U?$pair@QAVBaseEntity@sdk@csgo@aw@@UPredictableLocalData@impl@mod@34@@std@@@9@$0A@@std@@@std@@AAEPAU?$_List_node@U?$pair@QAVBaseEntity@sdk@csgo@aw@@UPredictableLocalData@impl@mod@34@@std@@PAX@2@PAU32@QAU32@@Z 1002be10 f i predictionstate.obj
 0001:0002afc0       ?_Xlength@?$vector@UEnemyAttackInfo@mod@csgo@aw@@V?$allocator@UEnemyAttackInfo@mod@csgo@aw@@@std@@@std@@CAXXZ 1002bfc0 f i predictionstate.obj
 0001:0002afd0       ?__offset_GetButtons@BasePlayer@sdk@csgo@aw@@QAEHXZ 1002bfd0 f i predictionstate.obj
 0001:0002b000       ?__offset_GetButtonsLast@BasePlayer@sdk@csgo@aw@@QAEHXZ 1002c000 f i predictionstate.obj
 0001:0002b030       ?__offset_GetButtonsPressed@BasePlayer@sdk@csgo@aw@@QAEHXZ 1002c030 f i predictionstate.obj
 0001:0002b060       ?__offset_GetButtonsReleased@BasePlayer@sdk@csgo@aw@@QAEHXZ 1002c060 f i predictionstate.obj
 0001:0002b090       ?__offset_GetOldButtons@BasePlayer@sdk@csgo@aw@@QAEHXZ 1002c090 f i predictionstate.obj
 0001:0002b0c0       ??0ServerState@impl@mod@csgo@aw@@QAE@XZ 1002c0c0 f i serverstate.obj
 0001:0002b370       ??0ServerStateData@impl@mod@csgo@aw@@QAE@XZ 1002c370 f i serverstate.obj
 0001:0002b4f0       ??0UserCmd@sdk@csgo@aw@@QAE@ABV0123@@Z 1002c4f0 f i serverstate.obj
 0001:0002b5a0       ??_E?$ModuleBaseImpl@VServerState@mod@csgo@aw@@V?$TypedObject@VServerState@mod@csgo@aw@@VModuleBase@4@@4@@aw@@UAEPAXI@Z 1002c5a0 f i serverstate.obj
 0001:0002b5a0       ??_G?$ModuleBaseImpl@VServerState@mod@csgo@aw@@V?$TypedObject@VServerState@mod@csgo@aw@@VModuleBase@4@@4@@aw@@UAEPAXI@Z 1002c5a0 f i serverstate.obj
 0001:0002b5d0       ??_EServerState@impl@mod@csgo@aw@@UAEPAXI@Z 1002c5d0 f i serverstate.obj
 0001:0002b5d0       ??_GServerState@impl@mod@csgo@aw@@UAEPAXI@Z 1002c5d0 f i serverstate.obj
 0001:0002b600       ??_EServerStateEarlyRequest@mod@csgo@aw@@UAEPAXI@Z 1002c600 f i serverstate.obj
 0001:0002b600       ??_GServerStateEarlyRequest@mod@csgo@aw@@UAEPAXI@Z 1002c600 f i serverstate.obj
 0001:0002b630       ?CreateModule@?$ModuleWithFactory@VServerState@mod@csgo@aw@@@aw@@SAPAVServerState@mod@csgo@2@XZ 1002c630 f   serverstate.obj
 0001:0002b660       ?Get@HLClient@sdk@csgo@aw@@SAPAV1234@XZ 1002c660 f i serverstate.obj
 0001:0002b670       ?GetChokedCmds@ServerStateCommandMask@mod@csgo@aw@@QBEHXZ 1002c670 f   serverstate.obj
 0001:0002b680       ?GetClockCorrectionTicks@ServerState@impl@mod@csgo@aw@@MAEHXZ 1002c680 f   serverstate.obj
 0001:0002b700       ?GetCommandContext@ServerState@impl@mod@csgo@aw@@MAEPBUServerStateCommandContext@345@H@Z 1002c700 f   serverstate.obj
 0001:0002b740       ?GetCommandMask@ServerState@impl@mod@csgo@aw@@MAEABUServerStateCommandMask@345@XZ 1002c740 f i serverstate.obj
 0001:0002b750       ?GetCommandsAcknowledged@ServerState@impl@mod@csgo@aw@@MAEHXZ 1002c750 f i serverstate.obj
 0001:0002b760       ?GetCommandsBlocked@ServerState@impl@mod@csgo@aw@@MAEHXZ 1002c760 f i serverstate.obj
 0001:0002b770       ?GetCommandsBurstedThisMove@ServerState@impl@mod@csgo@aw@@MAEHXZ 1002c770 f i serverstate.obj
 0001:0002b780       ?GetCommandsChokedThisMove@ServerState@impl@mod@csgo@aw@@MAEHXZ 1002c780 f i serverstate.obj
 0001:0002b790       ?GetCommandsPredicted@ServerState@impl@mod@csgo@aw@@MAEHXZ 1002c790 f i serverstate.obj
 0001:0002b7a0       ?GetCommandsShifted@ServerState@impl@mod@csgo@aw@@MAEHXZ 1002c7a0 f i serverstate.obj
 0001:0002b7b0       ?GetDynamic@HLClient@sdk@csgo@aw@@SAPAV1234@XZ 1002c7b0 f i serverstate.obj
 0001:0002b7d0       ?GetId@?$TypedObject@UServerStateEarlyRequest@mod@csgo@aw@@UCallbackVars@4@@aw@@UAEIXZ 1002c7d0 f i serverstate.obj
 0001:0002b7e0       ?GetId@?$TypedObject@VServerState@mod@csgo@aw@@VModuleBase@4@@aw@@UAEIXZ 1002c7e0 f i serverstate.obj
 0001:0002b7f0       ?GetMaxUserCmdProcessTicks@ServerState@impl@mod@csgo@aw@@MAEHXZ 1002c7f0 f i serverstate.obj
 0001:0002b800       ?GetMin@ServerStateRequest@mod@csgo@aw@@QBEHXZ 1002c800 f   serverstate.obj
 0001:0002b810       ?GetProcessedCmds@ServerStateCommandMask@mod@csgo@aw@@QBEHXZ 1002c810 f   serverstate.obj
 0001:0002b870       ?GetRequestData@ServerState@impl@mod@csgo@aw@@UAEPAUServerStateRequestData@345@XZ 1002c870 f i serverstate.obj
 0001:0002b880       ?GetServerTick@ServerState@impl@mod@csgo@aw@@MAEHXZ 1002c880 f i serverstate.obj
 0001:0002b890       ?GetServerTickReceived@ServerState@impl@mod@csgo@aw@@MAEHXZ 1002c890 f i serverstate.obj
 0001:0002b8a0       ?GetTickBase@ServerState@impl@mod@csgo@aw@@MAEHXZ 1002c8a0 f i serverstate.obj
 0001:0002b8b0       ?GetTickBaseReceived@ServerState@impl@mod@csgo@aw@@MAEHXZ 1002c8b0 f i serverstate.obj
 0001:0002b8c0       ?GetTicksAllowedForProcessing@ServerState@impl@mod@csgo@aw@@MAEHXZ 1002c8c0 f i serverstate.obj
 0001:0002b8d0       ?GetTicksAllowedForProcessingServer@ServerState@impl@mod@csgo@aw@@MAEHXZ 1002c8d0 f i serverstate.obj
 0001:0002b8e0       ?GetTimeBase@ServerState@impl@mod@csgo@aw@@MAEMXZ 1002c8e0 f i serverstate.obj
 0001:0002b900       ?IsSet@ServerStateRequest@mod@csgo@aw@@QBE_NXZ 1002c900 f   serverstate.obj
 0001:0002b920       ?Max@ServerStateRequest@mod@csgo@aw@@QAEXH@Z 1002c920 f   serverstate.obj
 0001:0002b950       ?Min@ServerStateRequest@mod@csgo@aw@@QAEXH@Z 1002c950 f   serverstate.obj
 0001:0002b970       ?Process@ServerStateRequestData@mod@csgo@aw@@QAEXAAULocalMoveBase@234@PAVServerState@234@@Z 1002c970 f   serverstate.obj
 0001:0002ba80       ?Reset@ServerStateRequest@mod@csgo@aw@@QAEXXZ 1002ca80 f   serverstate.obj
 0001:0002ba90       ?Validate@ServerStateRequestData@mod@csgo@aw@@QAEXXZ 1002ca90 f   serverstate.obj
 0001:0002baf0       ??$_Find_last@I@?$_Hash@V?$_Uset_traits@IV?$_Uhash_compare@IU?$RawHasher@I@aw@@U?$equal_to@I@std@@@std@@V?$allocator@I@2@$0A@@std@@@std@@IBE?AU?$_Hash_find_last_result@PAU?$_List_node@IPAX@std@@@1@ABII@Z 1002caf0 f i cheatsecurity.obj
 0001:0002bb60       ??$_Find_last@V?$basic_string@DU?$char_traits@D@std@@V?$allocator@D@2@@std@@@?$_Hash@V?$_Umap_traits@V?$basic_string@DU?$char_traits@D@std@@V?$allocator@D@2@@std@@V12@V?$_Uhash_compare@V?$basic_string@DU?$char_traits@D@std@@V?$allocator@D@2@@std@@U?$hash@V?$basic_string@DU?$char_traits@D@std@@V?$allocator@D@2@@std@@@2@U?$equal_to@V?$basic_string@DU?$char_traits@D@std@@V?$allocator@D@2@@std@@@2@@2@V?$allocator@U?$pair@$$CBV?$basic_string@DU?$char_traits@D@std@@V?$allocator@D@2@@std@@V12@@std@@@2@$0A@@std@@@std@@IBE?AU?$_Hash_find_last_result@PAU?$_List_node@U?$pair@$$CBV?$basic_string@DU?$char_traits@D@std@@V?$allocator@D@2@@std@@V12@@std@@PAX@std@@@1@ABV?$basic_string@DU?$char_traits@D@std@@V?$allocator@D@2@@1@I@Z 1002cb60 f i cheatsecurity.obj
 0001:0002bc40       ??$_Resize@U_Value_init_tag@std@@@?$vector@IV?$allocator@I@std@@@std@@AAEXIABU_Value_init_tag@1@@Z 1002cc40 f i cheatsecurity.obj
 0001:0002bd90       ??$_Resize_reallocate@U_Value_init_tag@std@@@?$vector@V?$basic_string@DU?$char_traits@D@std@@V?$allocator@D@2@@std@@V?$allocator@V?$basic_string@DU?$char_traits@D@std@@V?$allocator@D@2@@std@@@2@@std@@AAEXIABU_Value_init_tag@1@@Z 1002cd90 f i cheatsecurity.obj
 0001:0002bf00       ??$_Try_emplace@V?$basic_string@DU?$char_traits@D@std@@V?$allocator@D@2@@std@@$$V@?$_Hash@V?$_Umap_traits@V?$basic_string@DU?$char_traits@D@std@@V?$allocator@D@2@@std@@V12@V?$_Uhash_compare@V?$basic_string@DU?$char_traits@D@std@@V?$allocator@D@2@@std@@U?$hash@V?$basic_string@DU?$char_traits@D@std@@V?$allocator@D@2@@std@@@2@U?$equal_to@V?$basic_string@DU?$char_traits@D@std@@V?$allocator@D@2@@std@@@2@@2@V?$allocator@U?$pair@$$CBV?$basic_string@DU?$char_traits@D@std@@V?$allocator@D@2@@std@@V12@@std@@@2@$0A@@std@@@std@@IAE?AU?$pair@PAU?$_List_node@U?$pair@$$CBV?$basic_string@DU?$char_traits@D@std@@V?$allocator@D@2@@std@@V12@@std@@PAX@std@@_N@1@$$QAV?$basic_string@DU?$char_traits@D@std@@V?$allocator@D@2@@1@@Z 1002cf00 f i cheatsecurity.obj
 0001:0002c100       ??$_Uninitialized_value_construct_n@V?$allocator@V?$basic_string@DU?$char_traits@D@std@@V?$allocator@D@2@@std@@@std@@@std@@YAPAV?$basic_string@DU?$char_traits@D@std@@V?$allocator@D@2@@0@PAV10@IAAV?$allocator@V?$basic_string@DU?$char_traits@D@std@@V?$allocator@D@2@@std@@@0@@Z 1002d100 f i cheatsecurity.obj
 0001:0002c150       ??$emplace@ABI@?$_Hash@V?$_Uset_traits@IV?$_Uhash_compare@IU?$RawHasher@I@aw@@U?$equal_to@I@std@@@std@@V?$allocator@I@2@$0A@@std@@@std@@QAE?AU?$pair@V?$_List_const_iterator@V?$_List_val@U?$_List_simple_types@I@std@@@std@@@std@@_N@1@ABI@Z 1002d150 f i cheatsecurity.obj
 0001:0002c2e0       ??$fill@PAV?$_List_unchecked_const_iterator@V?$_List_val@U?$_List_simple_types@I@std@@@std@@U_Iterator_base0@2@@std@@V12@@std@@YAXQAV?$_List_unchecked_const_iterator@V?$_List_val@U?$_List_simple_types@I@std@@@std@@U_Iterator_base0@2@@0@0ABV10@@Z 1002d2e0 f i cheatsecurity.obj
 0001:0002c340       ??$fill@PAV?$_List_unchecked_iterator@V?$_List_val@U?$_List_simple_types@U?$pair@$$CBV?$basic_string@DU?$char_traits@D@std@@V?$allocator@D@2@@std@@V12@@std@@@std@@@std@@@std@@V12@@std@@YAXQAV?$_List_unchecked_iterator@V?$_List_val@U?$_List_simple_types@U?$pair@$$CBV?$basic_string@DU?$char_traits@D@std@@V?$allocator@D@2@@std@@V12@@std@@@std@@@std@@@0@0ABV10@@Z 1002d340 f i cheatsecurity.obj
 0001:0002c3a0       ??0?$unordered_map@V?$basic_string@DU?$char_traits@D@std@@V?$allocator@D@2@@std@@V12@U?$hash@V?$basic_string@DU?$char_traits@D@std@@V?$allocator@D@2@@std@@@2@U?$equal_to@V?$basic_string@DU?$char_traits@D@std@@V?$allocator@D@2@@std@@@2@V?$allocator@U?$pair@$$CBV?$basic_string@DU?$char_traits@D@std@@V?$allocator@D@2@@std@@V12@@std@@@2@@std@@QAE@XZ 1002d3a0 f i cheatsecurity.obj
 0001:0002c410       ??0CheatSecurity@impl@mod@csgo@aw@@QAE@XZ 1002d410 f i cheatsecurity.obj
 0001:0002c6a0       ??1?$_Hash@V?$_Uset_traits@IV?$_Uhash_compare@IU?$RawHasher@I@aw@@U?$equal_to@I@std@@@std@@V?$allocator@I@2@$0A@@std@@@std@@QAE@XZ 1002d6a0 f i cheatsecurity.obj
 0001:0002c720       ??1?$list@U?$pair@$$CBV?$basic_string@DU?$char_traits@D@std@@V?$allocator@D@2@@std@@V12@@std@@V?$allocator@U?$pair@$$CBV?$basic_string@DU?$char_traits@D@std@@V?$allocator@D@2@@std@@V12@@std@@@2@@std@@QAE@XZ 1002d720 f i cheatsecurity.obj
 0001:0002c770       ??1?$pair@$$CBV?$basic_string@DU?$char_traits@D@std@@V?$allocator@D@2@@std@@V12@@std@@QAE@XZ 1002d770 f i cheatsecurity.obj
 0001:0002c7e0       ??1ServerAntiCheat@impl@mod@csgo@aw@@QAE@XZ 1002d7e0 f i cheatsecurity.obj
 0001:0002c870       ??4?$unordered_set@IU?$RawHasher@I@aw@@U?$equal_to@I@std@@V?$allocator@I@4@@std@@QAEAAV01@V?$initializer_list@I@1@@Z 1002d870 f i cheatsecurity.obj
 0001:0002ca30       ??4ServerAntiCheat@impl@mod@csgo@aw@@QAEAAU01234@$$QAU01234@@Z 1002da30 f i cheatsecurity.obj
 0001:0002cb50       ??_E?$ModuleBaseImpl@VCheatSecurity@mod@csgo@aw@@V?$TypedObject@VCheatSecurity@mod@csgo@aw@@VModuleBase@4@@4@@aw@@UAEPAXI@Z 1002db50 f i cheatsecurity.obj
 0001:0002cb50       ??_G?$ModuleBaseImpl@VCheatSecurity@mod@csgo@aw@@V?$TypedObject@VCheatSecurity@mod@csgo@aw@@VModuleBase@4@@4@@aw@@UAEPAXI@Z 1002db50 f i cheatsecurity.obj
 0001:0002cb80       ??_ECheatSecurity@impl@mod@csgo@aw@@UAEPAXI@Z 1002db80 f i cheatsecurity.obj
 0001:0002cb80       ??_GCheatSecurity@impl@mod@csgo@aw@@UAEPAXI@Z 1002db80 f i cheatsecurity.obj
 0001:0002cbc0       ?AddDetectedGameEvent@CheatSecurity@impl@mod@csgo@aw@@UAEXI@Z 1002dbc0 f   cheatsecurity.obj
 0001:0002cc10       ?CreateModule@?$ModuleWithFactory@VCheatSecurity@mod@csgo@aw@@@aw@@SAPAVCheatSecurity@mod@csgo@2@XZ 1002dc10 f   cheatsecurity.obj
 0001:0002cc40       ?GetId@?$TypedObject@VCheatSecurity@mod@csgo@aw@@VModuleBase@4@@aw@@UAEIXZ 1002dc40 f i cheatsecurity.obj
 0001:0002cc50       ?IsAntiSMAC@CheatSecurity@impl@mod@csgo@aw@@UAE_NXZ 1002dc50 f   cheatsecurity.obj
 0001:0002cca0       ?IsAntiUntrusted@CheatSecurity@impl@mod@csgo@aw@@UAE_NXZ 1002dca0 f   cheatsecurity.obj
 0001:0002ccc0       ?IsServerInsecure@CheatSecurity@impl@mod@csgo@aw@@UAE_NXZ 1002dcc0 f   cheatsecurity.obj
 0001:0002cce0       ?IsValveDS@CheatSecurity@impl@mod@csgo@aw@@UAE_NXZ 1002dce0 f   cheatsecurity.obj
 0001:0002cd10       ?IsValveViewDeltaLimit@CheatSecurity@impl@mod@csgo@aw@@UAE_NXZ 1002dd10 f   cheatsecurity.obj
 0001:0002cd60       ?OnConnectionStart@CheatSecurity@impl@mod@csgo@aw@@IAEXAAUConnectionStart@hk@45@@Z 1002dd60 f   cheatsecurity.obj
 0001:0002ced0       ?OnFrameEnd@CheatSecurity@impl@mod@csgo@aw@@IAEXAAUFrameEnd@hk@45@@Z 1002ded0 f   cheatsecurity.obj
 0001:0002cee0       ?OnInit@CheatSecurity@impl@mod@csgo@aw@@IAEXAAUCommonInit@5@@Z 1002dee0 f   cheatsecurity.obj
 0001:0002d330       ?OnParseNetMsg@CheatSecurity@impl@mod@csgo@aw@@IAEXAAUParseNetMsg@hk@45@@Z 1002e330 f   cheatsecurity.obj
 0001:0002d380       ?OnSendGCMsg@CheatSecurity@impl@mod@csgo@aw@@IAEXAAUSendGCMsg@hk@45@@Z 1002e380 f   cheatsecurity.obj
 0001:0002d3a0       ?OnSendNetMsg@CheatSecurity@impl@mod@csgo@aw@@IAEXAAUSendNetMsg@hk@45@@Z 1002e3a0 f   cheatsecurity.obj
 0001:0002d3f0       ?_Assign_grow@?$_Hash_vec@V?$allocator@V?$_List_unchecked_const_iterator@V?$_List_val@U?$_List_simple_types@I@std@@@std@@U_Iterator_base0@2@@std@@@std@@@std@@QAEXIV?$_List_unchecked_const_iterator@V?$_List_val@U?$_List_simple_types@I@std@@@std@@U_Iterator_base0@2@@2@@Z 1002e3f0 f i cheatsecurity.obj
 0001:0002d4c0       ?_Assign_grow@?$_Hash_vec@V?$allocator@V?$_List_unchecked_iterator@V?$_List_val@U?$_List_simple_types@U?$pair@$$CBV?$basic_string@DU?$char_traits@D@std@@V?$allocator@D@2@@std@@V12@@std@@@std@@@std@@@std@@@std@@@std@@QAEXIV?$_List_unchecked_iterator@V?$_List_val@U?$_List_simple_types@U?$pair@$$CBV?$basic_string@DU?$char_traits@D@std@@V?$allocator@D@2@@std@@V12@@std@@@std@@@std@@@2@@Z 1002e4c0 f i cheatsecurity.obj
 0001:0002d590       ?_Forced_rehash@?$_Hash@V?$_Umap_traits@V?$basic_string@DU?$char_traits@D@std@@V?$allocator@D@2@@std@@V12@V?$_Uhash_compare@V?$basic_string@DU?$char_traits@D@std@@V?$allocator@D@2@@std@@U?$hash@V?$basic_string@DU?$char_traits@D@std@@V?$allocator@D@2@@std@@@2@U?$equal_to@V?$basic_string@DU?$char_traits@D@std@@V?$allocator@D@2@@std@@@2@@2@V?$allocator@U?$pair@$$CBV?$basic_string@DU?$char_traits@D@std@@V?$allocator@D@2@@std@@V12@@std@@@2@$0A@@std@@@std@@IAEXI@Z 1002e590 f i cheatsecurity.obj
 0001:0002d810       ?_Forced_rehash@?$_Hash@V?$_Uset_traits@IV?$_Uhash_compare@IU?$RawHasher@I@aw@@U?$equal_to@I@std@@@std@@V?$allocator@I@2@$0A@@std@@@std@@IAEXI@Z 1002e810 f i cheatsecurity.obj
 0001:0002d930       ?_Tidy@?$vector@V?$basic_string@DU?$char_traits@D@std@@V?$allocator@D@2@@std@@V?$allocator@V?$basic_string@DU?$char_traits@D@std@@V?$allocator@D@2@@std@@@2@@std@@AAEXXZ 1002e930 f i cheatsecurity.obj
 0001:0002d9a0       ?_Unchecked_erase@?$_Hash@V?$_Umap_traits@V?$basic_string@DU?$char_traits@D@std@@V?$allocator@D@2@@std@@V12@V?$_Uhash_compare@V?$basic_string@DU?$char_traits@D@std@@V?$allocator@D@2@@std@@U?$hash@V?$basic_string@DU?$char_traits@D@std@@V?$allocator@D@2@@std@@@2@U?$equal_to@V?$basic_string@DU?$char_traits@D@std@@V?$allocator@D@2@@std@@@2@@2@V?$allocator@U?$pair@$$CBV?$basic_string@DU?$char_traits@D@std@@V?$allocator@D@2@@std@@V12@@std@@@2@$0A@@std@@@std@@AAEPAU?$_List_node@U?$pair@$$CBV?$basic_string@DU?$char_traits@D@std@@V?$allocator@D@2@@std@@V12@@std@@PAX@2@PAU32@QAU32@@Z 1002e9a0 f i cheatsecurity.obj
 0001:0002db30       ?_Xlength@?$vector@IV?$allocator@I@std@@@std@@CAXXZ 1002eb30 f i cheatsecurity.obj
 0001:0002db40       ?_Xran@?$_String_val@U?$_Simple_types@D@std@@@std@@SAXXZ 1002eb40 f i cheatsecurity.obj
 0001:0002db50       ?allocate@?$allocator@V?$basic_string@DU?$char_traits@D@std@@V?$allocator@D@2@@std@@@std@@QAEPAV?$basic_string@DU?$char_traits@D@std@@V?$allocator@D@2@@2@I@Z 1002eb50 f i cheatsecurity.obj
 0001:0002dbb0       ?assign@?$basic_string@DU?$char_traits@D@std@@V?$allocator@D@2@@std@@QAEAAV12@QBDI@Z 1002ebb0 f i cheatsecurity.obj
 0001:0002dcc0       ?clear@?$_Hash@V?$_Umap_traits@V?$basic_string@DU?$char_traits@D@std@@V?$allocator@D@2@@std@@V12@V?$_Uhash_compare@V?$basic_string@DU?$char_traits@D@std@@V?$allocator@D@2@@std@@U?$hash@V?$basic_string@DU?$char_traits@D@std@@V?$allocator@D@2@@std@@@2@U?$equal_to@V?$basic_string@DU?$char_traits@D@std@@V?$allocator@D@2@@std@@@2@@2@V?$allocator@U?$pair@$$CBV?$basic_string@DU?$char_traits@D@std@@V?$allocator@D@2@@std@@V12@@std@@@2@$0A@@std@@@std@@QAEXXZ 1002ecc0 f i cheatsecurity.obj
 0001:0002dd50       ?clear@?$_Hash@V?$_Uset_traits@IV?$_Uhash_compare@IU?$RawHasher@I@aw@@U?$equal_to@I@std@@@std@@V?$allocator@I@2@$0A@@std@@@std@@QAEXXZ 1002ed50 f i cheatsecurity.obj
 0001:0002ddc0       ??$_Emplace_reallocate@ABH@?$vector@HV?$allocator@H@std@@@std@@AAEPAHQAHABH@Z 1002edc0 f i appearance.obj
 0001:0002df00       ??_E?$ModuleBaseImpl@VAppearance@mod@csgo@aw@@V?$TypedObject@VAppearance@mod@csgo@aw@@VModuleBase@4@@4@@aw@@UAEPAXI@Z 1002ef00 f i appearance.obj
 0001:0002df00       ??_G?$ModuleBaseImpl@VAppearance@mod@csgo@aw@@V?$TypedObject@VAppearance@mod@csgo@aw@@VModuleBase@4@@4@@aw@@UAEPAXI@Z 1002ef00 f i appearance.obj
 0001:0002df30       ??_EAppearance@impl@mod@csgo@aw@@UAEPAXI@Z 1002ef30 f i appearance.obj
 0001:0002df30       ??_GAppearance@impl@mod@csgo@aw@@UAEPAXI@Z 1002ef30 f i appearance.obj
 0001:0002df60       ?CreateModule@?$ModuleWithFactory@VAppearance@mod@csgo@aw@@@aw@@SAPAVAppearance@mod@csgo@2@XZ 1002ef60 f   appearance.obj
 0001:0002e090       ?GetId@?$TypedObject@VAppearance@mod@csgo@aw@@VModuleBase@4@@aw@@UAEIXZ 1002f090 f i appearance.obj
 0001:0002e0a0       ?OnConnectionStart@Appearance@impl@mod@csgo@aw@@IAEXAAUConnectionStart@hk@45@@Z 1002f0a0 f   appearance.obj
 0001:0002e0b0       ?OnCreateMove@Appearance@impl@mod@csgo@aw@@IAEXAAUCreateMove@hk@45@@Z 1002f0b0 f   appearance.obj
 0001:0002e250       ?OnFrame@Appearance@impl@mod@csgo@aw@@IAEXAAURenderFrame@gfx@5@@Z 1002f250 f   appearance.obj
 0001:0002e710       ?_Xlength@?$vector@HV?$allocator@H@std@@@std@@CAXXZ 1002f710 f i appearance.obj
 0001:0002e720       ??_E?$ModuleBaseImpl@VAutoStrafer@mod@csgo@aw@@V?$TypedObject@VAutoStrafer@mod@csgo@aw@@VModuleBase@4@@4@@aw@@UAEPAXI@Z 1002f720 f i autostrafer.obj
 0001:0002e720       ??_G?$ModuleBaseImpl@VAutoStrafer@mod@csgo@aw@@V?$TypedObject@VAutoStrafer@mod@csgo@aw@@VModuleBase@4@@4@@aw@@UAEPAXI@Z 1002f720 f i autostrafer.obj
 0001:0002e750       ??_EAutoStrafer@impl@mod@csgo@aw@@UAEPAXI@Z 1002f750 f i autostrafer.obj
 0001:0002e750       ??_GAutoStrafer@impl@mod@csgo@aw@@UAEPAXI@Z 1002f750 f i autostrafer.obj
 0001:0002e780       ?CircleStrafe@AutoStrafer@impl@mod@csgo@aw@@IAEXPAVUserCmd@sdk@45@@Z 1002f780 f   autostrafer.obj
 0001:0002eb30       ?CreateModule@?$ModuleWithFactory@VAutoStrafer@mod@csgo@aw@@@aw@@SAPAVAutoStrafer@mod@csgo@2@XZ 1002fb30 f   autostrafer.obj
 0001:0002ebf0       ?GetId@?$TypedObject@VAutoStrafer@mod@csgo@aw@@VModuleBase@4@@aw@@UAEIXZ 1002fbf0 f i autostrafer.obj
 0001:0002ec00       ?IsHittingObstacleInFuture@AutoStrafer@impl@mod@csgo@aw@@IAE_NMM@Z 1002fc00 f   autostrafer.obj
 0001:0002ed30       ??$_Erase_tree@V?$allocator@U?$_Tree_node@PAVBaseEntity@sdk@csgo@aw@@PAX@std@@@std@@@?$_Tree_val@U?$_Tree_simple_types@PAVBaseEntity@sdk@csgo@aw@@@std@@@std@@QAEXAAV?$allocator@U?$_Tree_node@PAVBaseEntity@sdk@csgo@aw@@PAX@std@@@1@PAU?$_Tree_node@PAVBaseEntity@sdk@csgo@aw@@PAX@1@@Z 1002fd30 f i autothrow.obj
 0001:0002ed70       ??1?$_Tree@V?$_Tset_traits@PAVBaseEntity@sdk@csgo@aw@@U?$less@PAVBaseEntity@sdk@csgo@aw@@@std@@V?$allocator@PAVBaseEntity@sdk@csgo@aw@@@6@$0A@@std@@@std@@QAE@XZ 1002fd70 f i autothrow.obj
 0001:0002edb0       ??_E?$ModuleBaseImpl@VAutoThrow@mod@csgo@aw@@V?$TypedObject@VAutoThrow@mod@csgo@aw@@VModuleBase@4@@4@@aw@@UAEPAXI@Z 1002fdb0 f i autothrow.obj
 0001:0002edb0       ??_G?$ModuleBaseImpl@VAutoThrow@mod@csgo@aw@@V?$TypedObject@VAutoThrow@mod@csgo@aw@@VModuleBase@4@@4@@aw@@UAEPAXI@Z 1002fdb0 f i autothrow.obj
 0001:0002ede0       ??_EAutoThrow@impl@mod@csgo@aw@@UAEPAXI@Z 1002fde0 f i autothrow.obj
 0001:0002ede0       ??_GAutoThrow@impl@mod@csgo@aw@@UAEPAXI@Z 1002fde0 f i autothrow.obj
 0001:0002ee10       ?CreateModule@?$ModuleWithFactory@VAutoThrow@mod@csgo@aw@@@aw@@SAPAVAutoThrow@mod@csgo@2@XZ 1002fe10 f   autothrow.obj
 0001:0002eee0       ?Get@GameMovement@sdk@csgo@aw@@SAPAV1234@XZ 1002fee0 f i autothrow.obj
 0001:0002eef0       ?GetId@?$TypedObject@VAutoThrow@mod@csgo@aw@@VModuleBase@4@@aw@@UAEIXZ 1002fef0 f i autothrow.obj
 0001:0002ef00       ?OnBounce@TraceGrenade@mod@csgo@aw@@UAEXABVVector3@4@0@Z 1002ff00 f i autothrow.obj
 0001:0002ef10       ?OnExplode@TraceGrenade@mod@csgo@aw@@UAEXABVVector3@4@@Z 1002ff10 f i autothrow.obj
 0001:0002ef20       ?OnPostMove@AutoThrow@impl@mod@csgo@aw@@IAEXAAULocalPostMove@345@@Z 1002ff20 f   autothrow.obj
 0001:0002f1f0       ?OnTravel@TraceGrenade@mod@csgo@aw@@UAEXABVVector3@4@0@Z 100301f0 f i autothrow.obj
 0001:0002f200       ??_E?$ModuleBaseImpl@VCustomGameState@mod@csgo@aw@@V?$TypedObject@VCustomGameState@mod@csgo@aw@@VModuleBase@4@@4@@aw@@UAEPAXI@Z 10030200 f i customgamestate.obj
 0001:0002f200       ??_G?$ModuleBaseImpl@VCustomGameState@mod@csgo@aw@@V?$TypedObject@VCustomGameState@mod@csgo@aw@@VModuleBase@4@@4@@aw@@UAEPAXI@Z 10030200 f i customgamestate.obj
 0001:0002f230       ??_ECustomGameState@impl@mod@csgo@aw@@UAEPAXI@Z 10030230 f i customgamestate.obj
 0001:0002f230       ??_GCustomGameState@impl@mod@csgo@aw@@UAEPAXI@Z 10030230 f i customgamestate.obj
 0001:0002f260       ?CreateModule@?$ModuleWithFactory@VCustomGameState@mod@csgo@aw@@@aw@@SAPAVCustomGameState@mod@csgo@2@XZ 10030260 f   customgamestate.obj
 0001:0002f3a0       ?GetId@?$TypedObject@VCustomGameState@mod@csgo@aw@@VModuleBase@4@@aw@@UAEIXZ 100303a0 f i customgamestate.obj
 0001:0002f3b0       ?OnPreMove@CustomGameState@impl@mod@csgo@aw@@IAEXAAULocalPreMove@345@@Z 100303b0 f   customgamestate.obj
 0001:0002f430       ?OnProcessPacket@CustomGameState@impl@mod@csgo@aw@@IAEXAAUProcessPacket@hk@45@@Z 10030430 f   customgamestate.obj
 0001:0002f470       ?OnRenderFrame@CustomGameState@impl@mod@csgo@aw@@IAEXAAURenderFrame@gfx@5@@Z 10030470 f   customgamestate.obj
 0001:0002f4e0       ?OnSendNetMsg@CustomGameState@impl@mod@csgo@aw@@IAEXAAUSendNetMsg@hk@45@@Z 100304e0 f   customgamestate.obj
 0001:0002f530       ??_ECrashHandlerPublic@aw@@UAEPAXI@Z 10030530 f i main.obj
 0001:0002f530       ??_GCrashHandlerPublic@aw@@UAEPAXI@Z 10030530 f i main.obj
 0001:0002f550       _aw_csgo_threadmain@4      10030550 f   main.obj
 0001:0002f560       ??$CreateModule@VAppearance@mod@csgo@aw@@@ModuleMgr@aw@@QAEPAVAppearance@mod@csgo@1@XZ 10030560 f i modules.obj
 0001:0002f570       ??$CreateModule@VAutoStrafer@mod@csgo@aw@@@ModuleMgr@aw@@QAEPAVAutoStrafer@mod@csgo@1@XZ 10030570 f i modules.obj
 0001:0002f580       ??$CreateModule@VAutoThrow@mod@csgo@aw@@@ModuleMgr@aw@@QAEPAVAutoThrow@mod@csgo@1@XZ 10030580 f i modules.obj
 0001:0002f590       ??$CreateModule@VCamera@mod@csgo@aw@@@ModuleMgr@aw@@QAEPAVCamera@mod@csgo@1@XZ 10030590 f i modules.obj
 0001:0002f5a0       ??$CreateModule@VCheatSecurity@mod@csgo@aw@@@ModuleMgr@aw@@QAEPAVCheatSecurity@mod@csgo@1@XZ 100305a0 f i modules.obj
 0001:0002f5b0       ??$CreateModule@VClientServerNetInfo@mod@csgo@aw@@@ModuleMgr@aw@@QAEPAVClientServerNetInfo@mod@csgo@1@XZ 100305b0 f i modules.obj
 0001:0002f5c0       ??$CreateModule@VCrosshair@mod@csgo@aw@@@ModuleMgr@aw@@QAEPAVCrosshair@mod@csgo@1@XZ 100305c0 f i modules.obj
 0001:0002f5d0       ??$CreateModule@VCustomGameState@mod@csgo@aw@@@ModuleMgr@aw@@QAEPAVCustomGameState@mod@csgo@1@XZ 100305d0 f i modules.obj
 0001:0002f5e0       ??$CreateModule@VEffectRemoval@mod@csgo@aw@@@ModuleMgr@aw@@QAEPAVEffectRemoval@mod@csgo@1@XZ 100305e0 f i modules.obj
 0001:0002f5f0       ??$CreateModule@VEntityExtender@mod@csgo@aw@@@ModuleMgr@aw@@QAEPAVEntityExtender@mod@csgo@1@XZ 100305f0 f i modules.obj
 0001:0002f600       ??$CreateModule@VEspBulletTracer@mod@csgo@aw@@@ModuleMgr@aw@@QAEPAVEspBulletTracer@mod@csgo@1@XZ 10030600 f i modules.obj
 0001:0002f610       ??$CreateModule@VEspDamageIndicator@mod@csgo@aw@@@ModuleMgr@aw@@QAEPAVEspDamageIndicator@mod@csgo@1@XZ 10030610 f i modules.obj
 0001:0002f620       ??$CreateModule@VEspDrawHelper@mod@csgo@aw@@@ModuleMgr@aw@@QAEPAVEspDrawHelper@mod@csgo@1@XZ 10030620 f i modules.obj
 0001:0002f630       ??$CreateModule@VEspGrenadeOverlay@mod@csgo@aw@@@ModuleMgr@aw@@QAEPAVEspGrenadeOverlay@mod@csgo@1@XZ 10030630 f i modules.obj
 0001:0002f640       ??$CreateModule@VEspInferno@mod@csgo@aw@@@ModuleMgr@aw@@QAEPAVEspInferno@mod@csgo@1@XZ 10030640 f i modules.obj
 0001:0002f650       ??$CreateModule@VEspOverlay@mod@csgo@aw@@@ModuleMgr@aw@@QAEPAVEspOverlay@mod@csgo@1@XZ 10030650 f i modules.obj
 0001:0002f660       ??$CreateModule@VEspSound@mod@csgo@aw@@@ModuleMgr@aw@@QAEPAVEspSound@mod@csgo@1@XZ 10030660 f i modules.obj
 0001:0002f670       ??$CreateModule@VEspWallbang@mod@csgo@aw@@@ModuleMgr@aw@@QAEPAVEspWallbang@mod@csgo@1@XZ 10030670 f i modules.obj
 0001:0002f680       ??$CreateModule@VEventLog@mod@csgo@aw@@@ModuleMgr@aw@@QAEPAVEventLog@mod@csgo@1@XZ 10030680 f i modules.obj
 0001:0002f690       ??$CreateModule@VFakeLag@mod@csgo@aw@@@ModuleMgr@aw@@QAEPAVFakeLag@mod@csgo@1@XZ 10030690 f i modules.obj
 0001:0002f6a0       ??$CreateModule@VFakeLatency@mod@csgo@aw@@@ModuleMgr@aw@@QAEPAVFakeLatency@mod@csgo@1@XZ 100306a0 f i modules.obj
 0001:0002f6b0       ??$CreateModule@VGameMaterials@mod@csgo@aw@@@ModuleMgr@aw@@QAEPAVGameMaterials@mod@csgo@1@XZ 100306b0 f i modules.obj
 0001:0002f6c0       ??$CreateModule@VGameSceneRenderer@mod@csgo@aw@@@ModuleMgr@aw@@QAEPAVGameSceneRenderer@mod@csgo@1@XZ 100306c0 f i modules.obj
 0001:0002f6e0       ??$CreateModule@VGameVisuals@mod@csgo@aw@@@ModuleMgr@aw@@QAEPAVGameVisuals@mod@csgo@1@XZ 100306e0 f i modules.obj
 0001:0002f6f0       ??$CreateModule@VHitmarker@mod@csgo@aw@@@ModuleMgr@aw@@QAEPAVHitmarker@mod@csgo@1@XZ 100306f0 f i modules.obj
 0001:0002f700       ??$CreateModule@VLegitAimbot@mod@csgo@aw@@@ModuleMgr@aw@@QAEPAVLegitAimbot@mod@csgo@1@XZ 10030700 f i modules.obj
 0001:0002f710       ??$CreateModule@VLocalMovement@mod@csgo@aw@@@ModuleMgr@aw@@QAEPAVLocalMovement@mod@csgo@1@XZ 10030710 f i modules.obj
 0001:0002f720       ??$CreateModule@VLocalPlayer@mod@csgo@aw@@@ModuleMgr@aw@@QAEPAVLocalPlayer@mod@csgo@1@XZ 10030720 f i modules.obj
 0001:0002f730       ??$CreateModule@VLocalWeapon@mod@csgo@aw@@@ModuleMgr@aw@@QAEPAVLocalWeapon@mod@csgo@1@XZ 10030730 f i modules.obj
 0001:0002f740       ??$CreateModule@VMapEntityBreakables@mod@csgo@aw@@@ModuleMgr@aw@@QAEPAVMapEntityBreakables@mod@csgo@1@XZ 10030740 f i modules.obj
 0001:0002f750       ??$CreateModule@VModelChams@mod@csgo@aw@@@ModuleMgr@aw@@QAEPAVModelChams@mod@csgo@1@XZ 10030750 f i modules.obj
 0001:0002f760       ??$CreateModule@VNetworkSharedInfo@mod@csgo@aw@@@ModuleMgr@aw@@QAEPAVNetworkSharedInfo@mod@csgo@1@XZ 10030760 f i modules.obj
 0001:0002f770       ??$CreateModule@VOverwatchRevealer@mod@csgo@aw@@@ModuleMgr@aw@@QAEPAVOverwatchRevealer@mod@csgo@1@XZ 10030770 f i modules.obj
 0001:0002f780       ??$CreateModule@VPlayerOverride@skinchanger@mod@csgo@aw@@@ModuleMgr@aw@@QAEPAVPlayerOverride@skinchanger@mod@csgo@1@XZ 10030780 f i modules.obj
 0001:0002f790       ??$CreateModule@VPredictionState@mod@csgo@aw@@@ModuleMgr@aw@@QAEPAVPredictionState@mod@csgo@1@XZ 10030790 f i modules.obj
 0001:0002f7a0       ??$CreateModule@VPreserveKillfeed@mod@csgo@aw@@@ModuleMgr@aw@@QAEPAVPreserveKillfeed@mod@csgo@1@XZ 100307a0 f i modules.obj
 0001:0002f7b0       ??$CreateModule@VRageAimbot@mod@csgo@aw@@@ModuleMgr@aw@@QAEPAVRageAimbot@mod@csgo@1@XZ 100307b0 f i modules.obj
 0001:0002f7c0       ??$CreateModule@VRageAntiAim@mod@csgo@aw@@@ModuleMgr@aw@@QAEPAVRageAntiAim@mod@csgo@1@XZ 100307c0 f i modules.obj
 0001:0002f7d0       ??$CreateModule@VReplicatedGameState@mod@csgo@aw@@@ModuleMgr@aw@@QAEPAVReplicatedGameState@mod@csgo@1@XZ 100307d0 f i modules.obj
 0001:0002f7e0       ??$CreateModule@VServerState@mod@csgo@aw@@@ModuleMgr@aw@@QAEPAVServerState@mod@csgo@1@XZ 100307e0 f i modules.obj
 0001:0002f7f0       ??$CreateModule@VShotAnalysis@mod@csgo@aw@@@ModuleMgr@aw@@QAEPAVShotAnalysis@mod@csgo@1@XZ 100307f0 f i modules.obj
 0001:0002f800       ??$CreateModule@VSkinChanger@mod@csgo@aw@@@ModuleMgr@aw@@QAEPAVSkinChanger@mod@csgo@1@XZ 10030800 f i modules.obj
 0001:0002f810       ??$CreateModule@VWeaponIconAtlas@mod@csgo@aw@@@ModuleMgr@aw@@QAEPAVWeaponIconAtlas@mod@csgo@1@XZ 10030810 f i modules.obj
 0001:0002f820       ??$CreateModule@VWeaponOverride@skinchanger@mod@csgo@aw@@@ModuleMgr@aw@@QAEPAVWeaponOverride@skinchanger@mod@csgo@1@XZ 10030820 f i modules.obj
 0001:0002f830       ??$CreateModule@VWearableOverride@skinchanger@mod@csgo@aw@@@ModuleMgr@aw@@QAEPAVWearableOverride@skinchanger@mod@csgo@1@XZ 10030830 f i modules.obj
 0001:0002f840       ??$FindModule@VAppearance@mod@csgo@aw@@@ModuleMgr@aw@@QAEPAVAppearance@mod@csgo@1@_N@Z 10030840 f i modules.obj
 0001:0002f910       ??$FindModule@VAutoStrafer@mod@csgo@aw@@@ModuleMgr@aw@@QAEPAVAutoStrafer@mod@csgo@1@_N@Z 10030910 f i modules.obj
 0001:0002f9e0       ??$FindModule@VAutoThrow@mod@csgo@aw@@@ModuleMgr@aw@@QAEPAVAutoThrow@mod@csgo@1@_N@Z 100309e0 f i modules.obj
 0001:0002fab0       ??$FindModule@VCamera@mod@csgo@aw@@@ModuleMgr@aw@@QAEPAVCamera@mod@csgo@1@_N@Z 10030ab0 f i modules.obj
 0001:0002fb80       ??$FindModule@VCheatSecurity@mod@csgo@aw@@@ModuleMgr@aw@@QAEPAVCheatSecurity@mod@csgo@1@_N@Z 10030b80 f i modules.obj
 0001:0002fc50       ??$FindModule@VClientServerNetInfo@mod@csgo@aw@@@ModuleMgr@aw@@QAEPAVClientServerNetInfo@mod@csgo@1@_N@Z 10030c50 f i modules.obj
 0001:0002fd20       ??$FindModule@VCrosshair@mod@csgo@aw@@@ModuleMgr@aw@@QAEPAVCrosshair@mod@csgo@1@_N@Z 10030d20 f i modules.obj
 0001:0002fdf0       ??$FindModule@VCustomGameState@mod@csgo@aw@@@ModuleMgr@aw@@QAEPAVCustomGameState@mod@csgo@1@_N@Z 10030df0 f i modules.obj
 0001:0002fec0       ??$FindModule@VEffectRemoval@mod@csgo@aw@@@ModuleMgr@aw@@QAEPAVEffectRemoval@mod@csgo@1@_N@Z 10030ec0 f i modules.obj
 0001:0002ff90       ??$FindModule@VEntityExtender@mod@csgo@aw@@@ModuleMgr@aw@@QAEPAVEntityExtender@mod@csgo@1@_N@Z 10030f90 f i modules.obj
 0001:00030060       ??$FindModule@VEspBulletTracer@mod@csgo@aw@@@ModuleMgr@aw@@QAEPAVEspBulletTracer@mod@csgo@1@_N@Z 10031060 f i modules.obj
 0001:00030130       ??$FindModule@VEspDamageIndicator@mod@csgo@aw@@@ModuleMgr@aw@@QAEPAVEspDamageIndicator@mod@csgo@1@_N@Z 10031130 f i modules.obj
 0001:00030200       ??$FindModule@VEspDrawHelper@mod@csgo@aw@@@ModuleMgr@aw@@QAEPAVEspDrawHelper@mod@csgo@1@_N@Z 10031200 f i modules.obj
 0001:000302d0       ??$FindModule@VEspGrenadeOverlay@mod@csgo@aw@@@ModuleMgr@aw@@QAEPAVEspGrenadeOverlay@mod@csgo@1@_N@Z 100312d0 f i modules.obj
 0001:000303a0       ??$FindModule@VEspInferno@mod@csgo@aw@@@ModuleMgr@aw@@QAEPAVEspInferno@mod@csgo@1@_N@Z 100313a0 f i modules.obj
 0001:00030470       ??$FindModule@VEspOverlay@mod@csgo@aw@@@ModuleMgr@aw@@QAEPAVEspOverlay@mod@csgo@1@_N@Z 10031470 f i modules.obj
 0001:00030540       ??$FindModule@VEspSound@mod@csgo@aw@@@ModuleMgr@aw@@QAEPAVEspSound@mod@csgo@1@_N@Z 10031540 f i modules.obj
 0001:00030610       ??$FindModule@VEspWallbang@mod@csgo@aw@@@ModuleMgr@aw@@QAEPAVEspWallbang@mod@csgo@1@_N@Z 10031610 f i modules.obj
 0001:000306e0       ??$FindModule@VEventLog@mod@csgo@aw@@@ModuleMgr@aw@@QAEPAVEventLog@mod@csgo@1@_N@Z 100316e0 f i modules.obj
 0001:000307b0       ??$FindModule@VFakeLag@mod@csgo@aw@@@ModuleMgr@aw@@QAEPAVFakeLag@mod@csgo@1@_N@Z 100317b0 f i modules.obj
 0001:00030880       ??$FindModule@VFakeLatency@mod@csgo@aw@@@ModuleMgr@aw@@QAEPAVFakeLatency@mod@csgo@1@_N@Z 10031880 f i modules.obj
 0001:00030950       ??$FindModule@VGameMaterials@mod@csgo@aw@@@ModuleMgr@aw@@QAEPAVGameMaterials@mod@csgo@1@_N@Z 10031950 f i modules.obj
 0001:00030a20       ??$FindModule@VGameSceneRenderer@mod@csgo@aw@@@ModuleMgr@aw@@QAEPAVGameSceneRenderer@mod@csgo@1@_N@Z 10031a20 f i modules.obj
 0001:00030af0       ??$FindModule@VGameVisuals@mod@csgo@aw@@@ModuleMgr@aw@@QAEPAVGameVisuals@mod@csgo@1@_N@Z 10031af0 f i modules.obj
 0001:00030bc0       ??$FindModule@VHitmarker@mod@csgo@aw@@@ModuleMgr@aw@@QAEPAVHitmarker@mod@csgo@1@_N@Z 10031bc0 f i modules.obj
 0001:00030c90       ??$FindModule@VLegitAimbot@mod@csgo@aw@@@ModuleMgr@aw@@QAEPAVLegitAimbot@mod@csgo@1@_N@Z 10031c90 f i modules.obj
 0001:00030d60       ??$FindModule@VLocalMovement@mod@csgo@aw@@@ModuleMgr@aw@@QAEPAVLocalMovement@mod@csgo@1@_N@Z 10031d60 f i modules.obj
 0001:00030e30       ??$FindModule@VLocalPlayer@mod@csgo@aw@@@ModuleMgr@aw@@QAEPAVLocalPlayer@mod@csgo@1@_N@Z 10031e30 f i modules.obj
 0001:00030f00       ??$FindModule@VLocalWeapon@mod@csgo@aw@@@ModuleMgr@aw@@QAEPAVLocalWeapon@mod@csgo@1@_N@Z 10031f00 f i modules.obj
 0001:00030fd0       ??$FindModule@VMapEntityBreakables@mod@csgo@aw@@@ModuleMgr@aw@@QAEPAVMapEntityBreakables@mod@csgo@1@_N@Z 10031fd0 f i modules.obj
 0001:000310a0       ??$FindModule@VModelChams@mod@csgo@aw@@@ModuleMgr@aw@@QAEPAVModelChams@mod@csgo@1@_N@Z 100320a0 f i modules.obj
 0001:00031170       ??$FindModule@VNetworkSharedInfo@mod@csgo@aw@@@ModuleMgr@aw@@QAEPAVNetworkSharedInfo@mod@csgo@1@_N@Z 10032170 f i modules.obj
 0001:00031240       ??$FindModule@VOverwatchRevealer@mod@csgo@aw@@@ModuleMgr@aw@@QAEPAVOverwatchRevealer@mod@csgo@1@_N@Z 10032240 f i modules.obj
 0001:00031310       ??$FindModule@VPlayerOverride@skinchanger@mod@csgo@aw@@@ModuleMgr@aw@@QAEPAVPlayerOverride@skinchanger@mod@csgo@1@_N@Z 10032310 f i modules.obj
 0001:000313e0       ??$FindModule@VPredictionState@mod@csgo@aw@@@ModuleMgr@aw@@QAEPAVPredictionState@mod@csgo@1@_N@Z 100323e0 f i modules.obj
 0001:000314b0       ??$FindModule@VPreserveKillfeed@mod@csgo@aw@@@ModuleMgr@aw@@QAEPAVPreserveKillfeed@mod@csgo@1@_N@Z 100324b0 f i modules.obj
 0001:00031580       ??$FindModule@VRageAimbot@mod@csgo@aw@@@ModuleMgr@aw@@QAEPAVRageAimbot@mod@csgo@1@_N@Z 10032580 f i modules.obj
 0001:00031650       ??$FindModule@VRageAntiAim@mod@csgo@aw@@@ModuleMgr@aw@@QAEPAVRageAntiAim@mod@csgo@1@_N@Z 10032650 f i modules.obj
 0001:00031720       ??$FindModule@VReplicatedGameState@mod@csgo@aw@@@ModuleMgr@aw@@QAEPAVReplicatedGameState@mod@csgo@1@_N@Z 10032720 f i modules.obj
 0001:000317f0       ??$FindModule@VServerState@mod@csgo@aw@@@ModuleMgr@aw@@QAEPAVServerState@mod@csgo@1@_N@Z 100327f0 f i modules.obj
 0001:000318c0       ??$FindModule@VShotAnalysis@mod@csgo@aw@@@ModuleMgr@aw@@QAEPAVShotAnalysis@mod@csgo@1@_N@Z 100328c0 f i modules.obj
 0001:00031990       ??$FindModule@VSkinChanger@mod@csgo@aw@@@ModuleMgr@aw@@QAEPAVSkinChanger@mod@csgo@1@_N@Z 10032990 f i modules.obj
 0001:00031a60       ??$FindModule@VWeaponIconAtlas@mod@csgo@aw@@@ModuleMgr@aw@@QAEPAVWeaponIconAtlas@mod@csgo@1@_N@Z 10032a60 f i modules.obj
 0001:00031b30       ??$FindModule@VWeaponOverride@skinchanger@mod@csgo@aw@@@ModuleMgr@aw@@QAEPAVWeaponOverride@skinchanger@mod@csgo@1@_N@Z 10032b30 f i modules.obj
 0001:00031c00       ??$FindModule@VWearableOverride@skinchanger@mod@csgo@aw@@@ModuleMgr@aw@@QAEPAVWearableOverride@skinchanger@mod@csgo@1@_N@Z 10032c00 f i modules.obj
 0001:00031cd0       ??$FindOrCreateModule@VAppearance@mod@csgo@aw@@@ModuleMgr@aw@@QAEPAVAppearance@mod@csgo@1@XZ 10032cd0 f i modules.obj
 0001:00031cf0       ??$FindOrCreateModule@VAutoStrafer@mod@csgo@aw@@@ModuleMgr@aw@@QAEPAVAutoStrafer@mod@csgo@1@XZ 10032cf0 f i modules.obj
 0001:00031d10       ??$FindOrCreateModule@VAutoThrow@mod@csgo@aw@@@ModuleMgr@aw@@QAEPAVAutoThrow@mod@csgo@1@XZ 10032d10 f i modules.obj
 0001:00031d30       ??$FindOrCreateModule@VCamera@mod@csgo@aw@@@ModuleMgr@aw@@QAEPAVCamera@mod@csgo@1@XZ 10032d30 f i modules.obj
 0001:00031d50       ??$FindOrCreateModule@VCheatSecurity@mod@csgo@aw@@@ModuleMgr@aw@@QAEPAVCheatSecurity@mod@csgo@1@XZ 10032d50 f i modules.obj
 0001:00031d70       ??$FindOrCreateModule@VClientServerNetInfo@mod@csgo@aw@@@ModuleMgr@aw@@QAEPAVClientServerNetInfo@mod@csgo@1@XZ 10032d70 f i modules.obj
 0001:00031d90       ??$FindOrCreateModule@VCrosshair@mod@csgo@aw@@@ModuleMgr@aw@@QAEPAVCrosshair@mod@csgo@1@XZ 10032d90 f i modules.obj
 0001:00031db0       ??$FindOrCreateModule@VCustomGameState@mod@csgo@aw@@@ModuleMgr@aw@@QAEPAVCustomGameState@mod@csgo@1@XZ 10032db0 f i modules.obj
 0001:00031dd0       ??$FindOrCreateModule@VEffectRemoval@mod@csgo@aw@@@ModuleMgr@aw@@QAEPAVEffectRemoval@mod@csgo@1@XZ 10032dd0 f i modules.obj
 0001:00031df0       ??$FindOrCreateModule@VEntityExtender@mod@csgo@aw@@@ModuleMgr@aw@@QAEPAVEntityExtender@mod@csgo@1@XZ 10032df0 f i modules.obj
 0001:00031e10       ??$FindOrCreateModule@VEspBulletTracer@mod@csgo@aw@@@ModuleMgr@aw@@QAEPAVEspBulletTracer@mod@csgo@1@XZ 10032e10 f i modules.obj
 0001:00031e30       ??$FindOrCreateModule@VEspDamageIndicator@mod@csgo@aw@@@ModuleMgr@aw@@QAEPAVEspDamageIndicator@mod@csgo@1@XZ 10032e30 f i modules.obj
 0001:00031e50       ??$FindOrCreateModule@VEspDrawHelper@mod@csgo@aw@@@ModuleMgr@aw@@QAEPAVEspDrawHelper@mod@csgo@1@XZ 10032e50 f i modules.obj
 0001:00031e70       ??$FindOrCreateModule@VEspGrenadeOverlay@mod@csgo@aw@@@ModuleMgr@aw@@QAEPAVEspGrenadeOverlay@mod@csgo@1@XZ 10032e70 f i modules.obj
 0001:00031e90       ??$FindOrCreateModule@VEspInferno@mod@csgo@aw@@@ModuleMgr@aw@@QAEPAVEspInferno@mod@csgo@1@XZ 10032e90 f i modules.obj
 0001:00031eb0       ??$FindOrCreateModule@VEspOverlay@mod@csgo@aw@@@ModuleMgr@aw@@QAEPAVEspOverlay@mod@csgo@1@XZ 10032eb0 f i modules.obj
 0001:00031ed0       ??$FindOrCreateModule@VEspSound@mod@csgo@aw@@@ModuleMgr@aw@@QAEPAVEspSound@mod@csgo@1@XZ 10032ed0 f i modules.obj
 0001:00031ef0       ??$FindOrCreateModule@VEspWallbang@mod@csgo@aw@@@ModuleMgr@aw@@QAEPAVEspWallbang@mod@csgo@1@XZ 10032ef0 f i modules.obj
 0001:00031f10       ??$FindOrCreateModule@VEventLog@mod@csgo@aw@@@ModuleMgr@aw@@QAEPAVEventLog@mod@csgo@1@XZ 10032f10 f i modules.obj
 0001:00031f30       ??$FindOrCreateModule@VFakeLag@mod@csgo@aw@@@ModuleMgr@aw@@QAEPAVFakeLag@mod@csgo@1@XZ 10032f30 f i modules.obj
 0001:00031f50       ??$FindOrCreateModule@VFakeLatency@mod@csgo@aw@@@ModuleMgr@aw@@QAEPAVFakeLatency@mod@csgo@1@XZ 10032f50 f i modules.obj
 0001:00031f70       ??$FindOrCreateModule@VGameMaterials@mod@csgo@aw@@@ModuleMgr@aw@@QAEPAVGameMaterials@mod@csgo@1@XZ 10032f70 f i modules.obj
 0001:00031f90       ??$FindOrCreateModule@VGameSceneRenderer@mod@csgo@aw@@@ModuleMgr@aw@@QAEPAVGameSceneRenderer@mod@csgo@1@XZ 10032f90 f i modules.obj
 0001:00031fb0       ??$FindOrCreateModule@VGameVisuals@mod@csgo@aw@@@ModuleMgr@aw@@QAEPAVGameVisuals@mod@csgo@1@XZ 10032fb0 f i modules.obj
 0001:00031fd0       ??$FindOrCreateModule@VHitmarker@mod@csgo@aw@@@ModuleMgr@aw@@QAEPAVHitmarker@mod@csgo@1@XZ 10032fd0 f i modules.obj
 0001:00031ff0       ??$FindOrCreateModule@VLegitAimbot@mod@csgo@aw@@@ModuleMgr@aw@@QAEPAVLegitAimbot@mod@csgo@1@XZ 10032ff0 f i modules.obj
 0001:00032010       ??$FindOrCreateModule@VLocalMovement@mod@csgo@aw@@@ModuleMgr@aw@@QAEPAVLocalMovement@mod@csgo@1@XZ 10033010 f i modules.obj
 0001:00032030       ??$FindOrCreateModule@VLocalPlayer@mod@csgo@aw@@@ModuleMgr@aw@@QAEPAVLocalPlayer@mod@csgo@1@XZ 10033030 f i modules.obj
 0001:00032050       ??$FindOrCreateModule@VLocalWeapon@mod@csgo@aw@@@ModuleMgr@aw@@QAEPAVLocalWeapon@mod@csgo@1@XZ 10033050 f i modules.obj
 0001:00032070       ??$FindOrCreateModule@VMapEntityBreakables@mod@csgo@aw@@@ModuleMgr@aw@@QAEPAVMapEntityBreakables@mod@csgo@1@XZ 10033070 f i modules.obj
 0001:00032090       ??$FindOrCreateModule@VModelChams@mod@csgo@aw@@@ModuleMgr@aw@@QAEPAVModelChams@mod@csgo@1@XZ 10033090 f i modules.obj
 0001:000320b0       ??$FindOrCreateModule@VNetworkSharedInfo@mod@csgo@aw@@@ModuleMgr@aw@@QAEPAVNetworkSharedInfo@mod@csgo@1@XZ 100330b0 f i modules.obj
 0001:000320d0       ??$FindOrCreateModule@VOverwatchRevealer@mod@csgo@aw@@@ModuleMgr@aw@@QAEPAVOverwatchRevealer@mod@csgo@1@XZ 100330d0 f i modules.obj
 0001:000320f0       ??$FindOrCreateModule@VPlayerOverride@skinchanger@mod@csgo@aw@@@ModuleMgr@aw@@QAEPAVPlayerOverride@skinchanger@mod@csgo@1@XZ 100330f0 f i modules.obj
 0001:00032110       ??$FindOrCreateModule@VPredictionState@mod@csgo@aw@@@ModuleMgr@aw@@QAEPAVPredictionState@mod@csgo@1@XZ 10033110 f i modules.obj
 0001:00032130       ??$FindOrCreateModule@VPreserveKillfeed@mod@csgo@aw@@@ModuleMgr@aw@@QAEPAVPreserveKillfeed@mod@csgo@1@XZ 10033130 f i modules.obj
 0001:00032150       ??$FindOrCreateModule@VRageAimbot@mod@csgo@aw@@@ModuleMgr@aw@@QAEPAVRageAimbot@mod@csgo@1@XZ 10033150 f i modules.obj
 0001:00032170       ??$FindOrCreateModule@VRageAntiAim@mod@csgo@aw@@@ModuleMgr@aw@@QAEPAVRageAntiAim@mod@csgo@1@XZ 10033170 f i modules.obj
 0001:00032190       ??$FindOrCreateModule@VReplicatedGameState@mod@csgo@aw@@@ModuleMgr@aw@@QAEPAVReplicatedGameState@mod@csgo@1@XZ 10033190 f i modules.obj
 0001:000321b0       ??$FindOrCreateModule@VServerState@mod@csgo@aw@@@ModuleMgr@aw@@QAEPAVServerState@mod@csgo@1@XZ 100331b0 f i modules.obj
 0001:000321d0       ??$FindOrCreateModule@VShotAnalysis@mod@csgo@aw@@@ModuleMgr@aw@@QAEPAVShotAnalysis@mod@csgo@1@XZ 100331d0 f i modules.obj
 0001:000321f0       ??$FindOrCreateModule@VSkinChanger@mod@csgo@aw@@@ModuleMgr@aw@@QAEPAVSkinChanger@mod@csgo@1@XZ 100331f0 f i modules.obj
 0001:00032210       ??$FindOrCreateModule@VWeaponIconAtlas@mod@csgo@aw@@@ModuleMgr@aw@@QAEPAVWeaponIconAtlas@mod@csgo@1@XZ 10033210 f i modules.obj
 0001:00032230       ??$FindOrCreateModule@VWeaponOverride@skinchanger@mod@csgo@aw@@@ModuleMgr@aw@@QAEPAVWeaponOverride@skinchanger@mod@csgo@1@XZ 10033230 f i modules.obj
 0001:00032250       ??$FindOrCreateModule@VWearableOverride@skinchanger@mod@csgo@aw@@@ModuleMgr@aw@@QAEPAVWearableOverride@skinchanger@mod@csgo@1@XZ 10033250 f i modules.obj
 0001:00032270       ??$RegisterModule@VAppearance@mod@csgo@aw@@@ModuleMgr@aw@@QAEPAVAppearance@mod@csgo@1@XZ 10033270 f i modules.obj
 0001:00032280       ??$RegisterModule@VAutoStrafer@mod@csgo@aw@@@ModuleMgr@aw@@QAEPAVAutoStrafer@mod@csgo@1@XZ 10033280 f i modules.obj
 0001:00032290       ??$RegisterModule@VAutoThrow@mod@csgo@aw@@@ModuleMgr@aw@@QAEPAVAutoThrow@mod@csgo@1@XZ 10033290 f i modules.obj
 0001:000322a0       ??$RegisterModule@VCamera@mod@csgo@aw@@@ModuleMgr@aw@@QAEPAVCamera@mod@csgo@1@XZ 100332a0 f i modules.obj
 0001:000322b0       ??$RegisterModule@VCheatSecurity@mod@csgo@aw@@@ModuleMgr@aw@@QAEPAVCheatSecurity@mod@csgo@1@XZ 100332b0 f i modules.obj
 0001:000322c0       ??$RegisterModule@VClientServerNetInfo@mod@csgo@aw@@@ModuleMgr@aw@@QAEPAVClientServerNetInfo@mod@csgo@1@XZ 100332c0 f i modules.obj
 0001:000322d0       ??$RegisterModule@VCrosshair@mod@csgo@aw@@@ModuleMgr@aw@@QAEPAVCrosshair@mod@csgo@1@XZ 100332d0 f i modules.obj
 0001:000322e0       ??$RegisterModule@VCustomGameState@mod@csgo@aw@@@ModuleMgr@aw@@QAEPAVCustomGameState@mod@csgo@1@XZ 100332e0 f i modules.obj
 0001:000322f0       ??$RegisterModule@VEffectRemoval@mod@csgo@aw@@@ModuleMgr@aw@@QAEPAVEffectRemoval@mod@csgo@1@XZ 100332f0 f i modules.obj
 0001:00032300       ??$RegisterModule@VEntityExtender@mod@csgo@aw@@@ModuleMgr@aw@@QAEPAVEntityExtender@mod@csgo@1@XZ 10033300 f i modules.obj
 0001:00032310       ??$RegisterModule@VEspBulletTracer@mod@csgo@aw@@@ModuleMgr@aw@@QAEPAVEspBulletTracer@mod@csgo@1@XZ 10033310 f i modules.obj
 0001:00032320       ??$RegisterModule@VEspDamageIndicator@mod@csgo@aw@@@ModuleMgr@aw@@QAEPAVEspDamageIndicator@mod@csgo@1@XZ 10033320 f i modules.obj
 0001:00032330       ??$RegisterModule@VEspDrawHelper@mod@csgo@aw@@@ModuleMgr@aw@@QAEPAVEspDrawHelper@mod@csgo@1@XZ 10033330 f i modules.obj
 0001:00032340       ??$RegisterModule@VEspGrenadeOverlay@mod@csgo@aw@@@ModuleMgr@aw@@QAEPAVEspGrenadeOverlay@mod@csgo@1@XZ 10033340 f i modules.obj
 0001:00032350       ??$RegisterModule@VEspInferno@mod@csgo@aw@@@ModuleMgr@aw@@QAEPAVEspInferno@mod@csgo@1@XZ 10033350 f i modules.obj
 0001:00032360       ??$RegisterModule@VEspOverlay@mod@csgo@aw@@@ModuleMgr@aw@@QAEPAVEspOverlay@mod@csgo@1@XZ 10033360 f i modules.obj
 0001:00032370       ??$RegisterModule@VEspSound@mod@csgo@aw@@@ModuleMgr@aw@@QAEPAVEspSound@mod@csgo@1@XZ 10033370 f i modules.obj
 0001:00032380       ??$RegisterModule@VEspWallbang@mod@csgo@aw@@@ModuleMgr@aw@@QAEPAVEspWallbang@mod@csgo@1@XZ 10033380 f i modules.obj
 0001:00032390       ??$RegisterModule@VEventLog@mod@csgo@aw@@@ModuleMgr@aw@@QAEPAVEventLog@mod@csgo@1@XZ 10033390 f i modules.obj
 0001:000323a0       ??$RegisterModule@VFakeLag@mod@csgo@aw@@@ModuleMgr@aw@@QAEPAVFakeLag@mod@csgo@1@XZ 100333a0 f i modules.obj
 0001:000323b0       ??$RegisterModule@VFakeLatency@mod@csgo@aw@@@ModuleMgr@aw@@QAEPAVFakeLatency@mod@csgo@1@XZ 100333b0 f i modules.obj
 0001:000323c0       ??$RegisterModule@VGameMaterials@mod@csgo@aw@@@ModuleMgr@aw@@QAEPAVGameMaterials@mod@csgo@1@XZ 100333c0 f i modules.obj
 0001:000323d0       ??$RegisterModule@VGameSceneRenderer@mod@csgo@aw@@@ModuleMgr@aw@@QAEPAVGameSceneRenderer@mod@csgo@1@XZ 100333d0 f i modules.obj
 0001:000323e0       ??$RegisterModule@VGameVisuals@mod@csgo@aw@@@ModuleMgr@aw@@QAEPAVGameVisuals@mod@csgo@1@XZ 100333e0 f i modules.obj
 0001:000323f0       ??$RegisterModule@VHitmarker@mod@csgo@aw@@@ModuleMgr@aw@@QAEPAVHitmarker@mod@csgo@1@XZ 100333f0 f i modules.obj
 0001:00032400       ??$RegisterModule@VLegitAimbot@mod@csgo@aw@@@ModuleMgr@aw@@QAEPAVLegitAimbot@mod@csgo@1@XZ 10033400 f i modules.obj
 0001:00032410       ??$RegisterModule@VLocalMovement@mod@csgo@aw@@@ModuleMgr@aw@@QAEPAVLocalMovement@mod@csgo@1@XZ 10033410 f i modules.obj
 0001:00032420       ??$RegisterModule@VLocalPlayer@mod@csgo@aw@@@ModuleMgr@aw@@QAEPAVLocalPlayer@mod@csgo@1@XZ 10033420 f i modules.obj
 0001:00032430       ??$RegisterModule@VLocalWeapon@mod@csgo@aw@@@ModuleMgr@aw@@QAEPAVLocalWeapon@mod@csgo@1@XZ 10033430 f i modules.obj
 0001:00032440       ??$RegisterModule@VMapEntityBreakables@mod@csgo@aw@@@ModuleMgr@aw@@QAEPAVMapEntityBreakables@mod@csgo@1@XZ 10033440 f i modules.obj
 0001:00032450       ??$RegisterModule@VModelChams@mod@csgo@aw@@@ModuleMgr@aw@@QAEPAVModelChams@mod@csgo@1@XZ 10033450 f i modules.obj
 0001:00032460       ??$RegisterModule@VNetworkSharedInfo@mod@csgo@aw@@@ModuleMgr@aw@@QAEPAVNetworkSharedInfo@mod@csgo@1@XZ 10033460 f i modules.obj
 0001:00032470       ??$RegisterModule@VOverwatchRevealer@mod@csgo@aw@@@ModuleMgr@aw@@QAEPAVOverwatchRevealer@mod@csgo@1@XZ 10033470 f i modules.obj
 0001:00032480       ??$RegisterModule@VPlayerOverride@skinchanger@mod@csgo@aw@@@ModuleMgr@aw@@QAEPAVPlayerOverride@skinchanger@mod@csgo@1@XZ 10033480 f i modules.obj
 0001:00032490       ??$RegisterModule@VPredictionState@mod@csgo@aw@@@ModuleMgr@aw@@QAEPAVPredictionState@mod@csgo@1@XZ 10033490 f i modules.obj
 0001:000324a0       ??$RegisterModule@VPreserveKillfeed@mod@csgo@aw@@@ModuleMgr@aw@@QAEPAVPreserveKillfeed@mod@csgo@1@XZ 100334a0 f i modules.obj
 0001:000324b0       ??$RegisterModule@VRageAimbot@mod@csgo@aw@@@ModuleMgr@aw@@QAEPAVRageAimbot@mod@csgo@1@XZ 100334b0 f i modules.obj
 0001:000324c0       ??$RegisterModule@VRageAntiAim@mod@csgo@aw@@@ModuleMgr@aw@@QAEPAVRageAntiAim@mod@csgo@1@XZ 100334c0 f i modules.obj
 0001:000324d0       ??$RegisterModule@VReplicatedGameState@mod@csgo@aw@@@ModuleMgr@aw@@QAEPAVReplicatedGameState@mod@csgo@1@XZ 100334d0 f i modules.obj
 0001:000324e0       ??$RegisterModule@VServerState@mod@csgo@aw@@@ModuleMgr@aw@@QAEPAVServerState@mod@csgo@1@XZ 100334e0 f i modules.obj
 0001:000324f0       ??$RegisterModule@VShotAnalysis@mod@csgo@aw@@@ModuleMgr@aw@@QAEPAVShotAnalysis@mod@csgo@1@XZ 100334f0 f i modules.obj
 0001:00032500       ??$RegisterModule@VSkinChanger@mod@csgo@aw@@@ModuleMgr@aw@@QAEPAVSkinChanger@mod@csgo@1@XZ 10033500 f i modules.obj
 0001:00032510       ??$RegisterModule@VWeaponIconAtlas@mod@csgo@aw@@@ModuleMgr@aw@@QAEPAVWeaponIconAtlas@mod@csgo@1@XZ 10033510 f i modules.obj
 0001:00032520       ??$RegisterModule@VWeaponOverride@skinchanger@mod@csgo@aw@@@ModuleMgr@aw@@QAEPAVWeaponOverride@skinchanger@mod@csgo@1@XZ 10033520 f i modules.obj
 0001:00032530       ??$RegisterModule@VWearableOverride@skinchanger@mod@csgo@aw@@@ModuleMgr@aw@@QAEPAVWearableOverride@skinchanger@mod@csgo@1@XZ 10033530 f i modules.obj
 0001:00032540       ??0ReplicatedMovement@mod@csgo@aw@@QAE@AAVVector3@3@000@Z 10033540 f   replicatedmovement.obj
 0001:00032650       ?PredictTick@ReplicatedMovement@mod@csgo@aw@@QAE_NMMABVEulerAngles@4@_N@Z 10033650 f   replicatedmovement.obj
 0001:00032d40       ??$_Find_last@V?$basic_string@DU?$char_traits@D@std@@V?$allocator@D@2@@std@@@?$_Hash@V?$_Uset_traits@V?$basic_string@DU?$char_traits@D@std@@V?$allocator@D@2@@std@@V?$_Uhash_compare@V?$basic_string@DU?$char_traits@D@std@@V?$allocator@D@2@@std@@U?$hash@V?$basic_string@DU?$char_traits@D@std@@V?$allocator@D@2@@std@@@2@U?$equal_to@V?$basic_string@DU?$char_traits@D@std@@V?$allocator@D@2@@std@@@2@@2@V?$allocator@V?$basic_string@DU?$char_traits@D@std@@V?$allocator@D@2@@std@@@2@$0A@@std@@@std@@IBE?AU?$_Hash_find_last_result@PAU?$_List_node@V?$basic_string@DU?$char_traits@D@std@@V?$allocator@D@2@@std@@PAX@std@@@1@ABV?$basic_string@DU?$char_traits@D@std@@V?$allocator@D@2@@1@I@Z 10033d40 f i mapentitybreakables.obj
 0001:00032e20       ??$_Free_non_head@V?$allocator@U?$_List_node@V?$basic_string@DU?$char_traits@D@std@@V?$allocator@D@2@@std@@PAX@std@@@std@@@?$_List_node@V?$basic_string@DU?$char_traits@D@std@@V?$allocator@D@2@@std@@PAX@std@@SAXAAV?$allocator@U?$_List_node@V?$basic_string@DU?$char_traits@D@std@@V?$allocator@D@2@@std@@PAX@std@@@1@PAU01@@Z 10033e20 f i mapentitybreakables.obj
 0001:00032e80       ??$emplace@ABV?$basic_string@DU?$char_traits@D@std@@V?$allocator@D@2@@std@@@?$_Hash@V?$_Uset_traits@V?$basic_string@DU?$char_traits@D@std@@V?$allocator@D@2@@std@@V?$_Uhash_compare@V?$basic_string@DU?$char_traits@D@std@@V?$allocator@D@2@@std@@U?$hash@V?$basic_string@DU?$char_traits@D@std@@V?$allocator@D@2@@std@@@2@U?$equal_to@V?$basic_string@DU?$char_traits@D@std@@V?$allocator@D@2@@std@@@2@@2@V?$allocator@V?$basic_string@DU?$char_traits@D@std@@V?$allocator@D@2@@std@@@2@$0A@@std@@@std@@QAE?AU?$pair@V?$_List_const_iterator@V?$_List_val@U?$_List_simple_types@V?$basic_string@DU?$char_traits@D@std@@V?$allocator@D@2@@std@@@std@@@std@@@std@@_N@1@ABV?$basic_string@DU?$char_traits@D@std@@V?$allocator@D@2@@1@@Z 10033e80 f i mapentitybreakables.obj
 0001:00033040       ??$fill@PAV?$_List_unchecked_const_iterator@V?$_List_val@U?$_List_simple_types@V?$basic_string@DU?$char_traits@D@std@@V?$allocator@D@2@@std@@@std@@@std@@U_Iterator_base0@2@@std@@V12@@std@@YAXQAV?$_List_unchecked_const_iterator@V?$_List_val@U?$_List_simple_types@V?$basic_string@DU?$char_traits@D@std@@V?$allocator@D@2@@std@@@std@@@std@@U_Iterator_base0@2@@0@0ABV10@@Z 10034040 f i mapentitybreakables.obj
 0001:000330a0       ??1?$_Hash@V?$_Uset_traits@V?$basic_string@DU?$char_traits@D@std@@V?$allocator@D@2@@std@@V?$_Uhash_compare@V?$basic_string@DU?$char_traits@D@std@@V?$allocator@D@2@@std@@U?$hash@V?$basic_string@DU?$char_traits@D@std@@V?$allocator@D@2@@std@@@2@U?$equal_to@V?$basic_string@DU?$char_traits@D@std@@V?$allocator@D@2@@std@@@2@@2@V?$allocator@V?$basic_string@DU?$char_traits@D@std@@V?$allocator@D@2@@std@@@2@$0A@@std@@@std@@QAE@XZ 100340a0 f i mapentitybreakables.obj
 0001:00033100       ??_E?$ModuleBaseImpl@VMapEntityBreakables@mod@csgo@aw@@V?$TypedObject@VMapEntityBreakables@mod@csgo@aw@@VModuleBase@4@@4@@aw@@UAEPAXI@Z 10034100 f i mapentitybreakables.obj
 0001:00033100       ??_G?$ModuleBaseImpl@VMapEntityBreakables@mod@csgo@aw@@V?$TypedObject@VMapEntityBreakables@mod@csgo@aw@@VModuleBase@4@@4@@aw@@UAEPAXI@Z 10034100 f i mapentitybreakables.obj
 0001:00033130       ??_EMapEntityBreakables@impl@mod@csgo@aw@@UAEPAXI@Z 10034130 f i mapentitybreakables.obj
 0001:00033130       ??_GMapEntityBreakables@impl@mod@csgo@aw@@UAEPAXI@Z 10034130 f i mapentitybreakables.obj
 0001:00033160       ?CreateModule@?$ModuleWithFactory@VMapEntityBreakables@mod@csgo@aw@@@aw@@SAPAVMapEntityBreakables@mod@csgo@2@XZ 10034160 f   mapentitybreakables.obj
 0001:000332d0       ?GetId@?$TypedObject@VMapEntityBreakables@mod@csgo@aw@@VModuleBase@4@@aw@@UAEIXZ 100342d0 f i mapentitybreakables.obj
 0001:000332e0       ?IsBreakable@MapEntityBreakables@impl@mod@csgo@aw@@UAE_NPAVBaseEntity@sdk@45@@Z 100342e0 f   mapentitybreakables.obj
 0001:00033470       ?OnHook@MapEntityBreakables@impl@mod@csgo@aw@@IAEXAAUCommonHook@5@@Z 10034470 f   mapentitybreakables.obj
 0001:00033480       ?OnLevelInit@MapEntityBreakables@impl@mod@csgo@aw@@IAEXAAULevelInit@hk@45@@Z 10034480 f   mapentitybreakables.obj
 0001:00033490       ?ParseEntity@MapEntityBreakables@impl@mod@csgo@aw@@IAEPBDPBD@Z 10034490 f   mapentitybreakables.obj
 0001:00033a10       ?ParseMapEntities@MapEntityBreakables@impl@mod@csgo@aw@@IAEXXZ 10034a10 f   mapentitybreakables.obj
 0001:00033a90       ?_Assign_grow@?$_Hash_vec@V?$allocator@V?$_List_unchecked_const_iterator@V?$_List_val@U?$_List_simple_types@V?$basic_string@DU?$char_traits@D@std@@V?$allocator@D@2@@std@@@std@@@std@@U_Iterator_base0@2@@std@@@std@@@std@@QAEXIV?$_List_unchecked_const_iterator@V?$_List_val@U?$_List_simple_types@V?$basic_string@DU?$char_traits@D@std@@V?$allocator@D@2@@std@@@std@@@std@@U_Iterator_base0@2@@2@@Z 10034a90 f i mapentitybreakables.obj
 0001:00033b60       ?_Forced_rehash@?$_Hash@V?$_Uset_traits@V?$basic_string@DU?$char_traits@D@std@@V?$allocator@D@2@@std@@V?$_Uhash_compare@V?$basic_string@DU?$char_traits@D@std@@V?$allocator@D@2@@std@@U?$hash@V?$basic_string@DU?$char_traits@D@std@@V?$allocator@D@2@@std@@@2@U?$equal_to@V?$basic_string@DU?$char_traits@D@std@@V?$allocator@D@2@@std@@@2@@2@V?$allocator@V?$basic_string@DU?$char_traits@D@std@@V?$allocator@D@2@@std@@@2@$0A@@std@@@std@@IAEXI@Z 10034b60 f i mapentitybreakables.obj
 0001:00033de0       ?_Unchecked_erase@?$_Hash@V?$_Uset_traits@V?$basic_string@DU?$char_traits@D@std@@V?$allocator@D@2@@std@@V?$_Uhash_compare@V?$basic_string@DU?$char_traits@D@std@@V?$allocator@D@2@@std@@U?$hash@V?$basic_string@DU?$char_traits@D@std@@V?$allocator@D@2@@std@@@2@U?$equal_to@V?$basic_string@DU?$char_traits@D@std@@V?$allocator@D@2@@std@@@2@@2@V?$allocator@V?$basic_string@DU?$char_traits@D@std@@V?$allocator@D@2@@std@@@2@$0A@@std@@@std@@AAEPAU?$_List_node@V?$basic_string@DU?$char_traits@D@std@@V?$allocator@D@2@@std@@PAX@2@PAU32@QAU32@@Z 10034de0 f i mapentitybreakables.obj
 0001:00034000       ?clear@?$_Hash@V?$_Uset_traits@V?$basic_string@DU?$char_traits@D@std@@V?$allocator@D@2@@std@@V?$_Uhash_compare@V?$basic_string@DU?$char_traits@D@std@@V?$allocator@D@2@@std@@U?$hash@V?$basic_string@DU?$char_traits@D@std@@V?$allocator@D@2@@std@@@2@U?$equal_to@V?$basic_string@DU?$char_traits@D@std@@V?$allocator@D@2@@std@@@2@@2@V?$allocator@V?$basic_string@DU?$char_traits@D@std@@V?$allocator@D@2@@std@@@2@$0A@@std@@@std@@QAEXXZ 10035000 f i mapentitybreakables.obj
 0001:00034060       ??$?5UNetworkSharedPlayer@msg@aw@@$0EA@@msg@aw@@YAAAVBuffer@net@1@AAV231@AAV?$Vector@UNetworkSharedPlayer@msg@aw@@$0EA@@01@@Z 10035060 f i networksharedinfo.obj
 0001:00034200       ??$_Erase_tree@V?$allocator@U?$_Tree_node@U?$pair@$$CB_KH@std@@PAX@std@@@std@@@?$_Tree_val@U?$_Tree_simple_types@U?$pair@$$CB_KH@std@@@std@@@std@@QAEXAAV?$allocator@U?$_Tree_node@U?$pair@$$CB_KH@std@@PAX@std@@@1@PAU?$_Tree_node@U?$pair@$$CB_KH@std@@PAX@1@@Z 10035200 f i networksharedinfo.obj
 0001:00034240       ??$_Uninitialized_value_construct_n@V?$allocator@UNetworkSharedPlayer@msg@aw@@@std@@@std@@YAPAUNetworkSharedPlayer@msg@aw@@PAU123@IAAV?$allocator@UNetworkSharedPlayer@msg@aw@@@0@@Z 10035240 f i networksharedinfo.obj
 0001:00034260       ??1?$_Tree@V?$_Tmap_traits@_KHU?$less@_K@std@@V?$allocator@U?$pair@$$CB_KH@std@@@2@$0A@@std@@@std@@QAE@XZ 10035260 f i networksharedinfo.obj
 0001:000342a0       ??_E?$ModuleBaseImpl@VNetworkSharedInfo@mod@csgo@aw@@V?$TypedObject@VNetworkSharedInfo@mod@csgo@aw@@VModuleBase@4@@4@@aw@@UAEPAXI@Z 100352a0 f i networksharedinfo.obj
 0001:000342a0       ??_G?$ModuleBaseImpl@VNetworkSharedInfo@mod@csgo@aw@@V?$TypedObject@VNetworkSharedInfo@mod@csgo@aw@@VModuleBase@4@@4@@aw@@UAEPAXI@Z 100352a0 f i networksharedinfo.obj
 0001:000342d0       ??_ENetworkSharedInfo@impl@mod@csgo@aw@@UAEPAXI@Z 100352d0 f i networksharedinfo.obj
 0001:000342d0       ??_GNetworkSharedInfo@impl@mod@csgo@aw@@UAEPAXI@Z 100352d0 f i networksharedinfo.obj
 0001:00034300       ??_ESteamNetworkingSession@impl@mod@csgo@aw@@UAEPAXI@Z 10035300 f i networksharedinfo.obj
 0001:00034300       ??_GSteamNetworkingSession@impl@mod@csgo@aw@@UAEPAXI@Z 10035300 f i networksharedinfo.obj
 0001:00034330       ?CreateModule@?$ModuleWithFactory@VNetworkSharedInfo@mod@csgo@aw@@@aw@@SAPAVNetworkSharedInfo@mod@csgo@2@XZ 10035330 f   networksharedinfo.obj
 0001:000344b0       ?GetId@?$TypedObject@USteamNetworkingSession@impl@mod@csgo@aw@@UCallbackVars@5@@aw@@UAEIXZ 100354b0 f i networksharedinfo.obj
 0001:000344c0       ?GetId@?$TypedObject@VNetworkSharedInfo@mod@csgo@aw@@VModuleBase@4@@aw@@UAEIXZ 100354c0 f i networksharedinfo.obj
 0001:000344d0       ?_Insert_node@?$_Tree_val@U?$_Tree_simple_types@U?$pair@$$CB_KH@std@@@std@@@std@@QAEPAU?$_Tree_node@U?$pair@$$CB_KH@std@@PAX@2@U?$_Tree_id@PAU?$_Tree_node@U?$pair@$$CB_KH@std@@PAX@std@@@2@QAU32@@Z 100354d0 f i networksharedinfo.obj
 0001:000346c0       ?_Xlength@?$vector@UNetworkSharedPlayer@msg@aw@@V?$allocator@UNetworkSharedPlayer@msg@aw@@@std@@@std@@CAXXZ 100356c0 f i networksharedinfo.obj
 0001:000346d0       ?allocate@?$allocator@UNetworkSharedPlayer@msg@aw@@@std@@QAEPAUNetworkSharedPlayer@msg@aw@@I@Z 100356d0 f i networksharedinfo.obj
 0001:00034730       ??$?4H@bigint@detail@v9@fmt@@QAEXH@Z 10035730 f i replicatedanimstate.obj
 0001:00034780       ??$?4Vuint128_fallback@detail@v9@fmt@@@bigint@detail@v9@fmt@@QAEXVuint128_fallback@123@@Z 10035780 f i replicatedanimstate.obj
 0001:00034800       ??$?XH@bigint@detail@v9@fmt@@QAEAAV0123@H@Z 10035800 f i replicatedanimstate.obj
 0001:00034880       ??$FormatStringBufferN@$0EA@PBD@aw@@YA?A_PAAY0EA@DV?$basic_format_string@DPBD@v9@fmt@@$$QAPBD@Z 10035880 f i replicatedanimstate.obj
 0001:000349d0       ??$_Assign_counted_range@PAVUtlSymbol@sdk@csgo@aw@@@?$vector@VUtlSymbol@sdk@csgo@aw@@V?$allocator@VUtlSymbol@sdk@csgo@aw@@@std@@@std@@AAEXPAVUtlSymbol@sdk@csgo@aw@@I@Z 100359d0 f i replicatedanimstate.obj
 0001:00034b40       ??$append@D@?$buffer@D@detail@v9@fmt@@QAEXPBD0@Z 10035b40 f i replicatedanimstate.obj
 0001:00034ba0       ??$apply@Vappender@v9@fmt@@D@?$digit_grouping@D@detail@v9@fmt@@QBE?AVappender@23@V423@V?$basic_string_view@D@23@@Z 10035ba0 f i replicatedanimstate.obj
 0001:00034dc0       ??$do_parse_arg_id@DAAUprecision_adapter@?1???$parse_precision@DAAV?$specs_checker@V?$specs_handler@D@detail@v9@fmt@@@detail@v9@fmt@@@detail@v9@fmt@@YAPBDPBD0AAV?$specs_checker@V?$specs_handler@D@detail@v9@fmt@@@234@@Z@@detail@v9@fmt@@YAPBDPBD0AAUprecision_adapter@?1???$parse_precision@DAAV?$specs_checker@V?$specs_handler@D@detail@v9@fmt@@@detail@v9@fmt@@@012@YAPBD00AAV?$specs_checker@V?$specs_handler@D@detail@v9@fmt@@@012@@Z@@Z 10035dc0 f i replicatedanimstate.obj
 0001:00034f70       ??$do_parse_arg_id@DAAUwidth_adapter@?1???$parse_width@DAAV?$specs_checker@V?$specs_handler@D@detail@v9@fmt@@@detail@v9@fmt@@@detail@v9@fmt@@YAPBDPBD0AAV?$specs_checker@V?$specs_handler@D@detail@v9@fmt@@@234@@Z@@detail@v9@fmt@@YAPBDPBD0AAUwidth_adapter@?1???$parse_width@DAAV?$specs_checker@V?$specs_handler@D@detail@v9@fmt@@@detail@v9@fmt@@@012@YAPBD00AAV?$specs_checker@V?$specs_handler@D@detail@v9@fmt@@@012@@Z@@Z 10035f70 f i replicatedanimstate.obj
 0001:00035120       ??$do_write_float@Vappender@v9@fmt@@U?$decimal_fp@M@dragonbox@detail@23@DV?$digit_grouping@D@623@@detail@v9@fmt@@YA?AVappender@12@V312@ABU?$decimal_fp@M@dragonbox@012@ABU?$basic_format_specs@D@12@Ufloat_specs@012@Vlocale_ref@012@@Z 10036120 f i replicatedanimstate.obj
 0001:00035670       ??$do_write_float@Vappender@v9@fmt@@U?$decimal_fp@N@dragonbox@detail@23@DV?$digit_grouping@D@623@@detail@v9@fmt@@YA?AVappender@12@V312@ABU?$decimal_fp@N@dragonbox@012@ABU?$basic_format_specs@D@12@Ufloat_specs@012@Vlocale_ref@012@@Z 10036670 f i replicatedanimstate.obj
 0001:00035c10       ??$do_write_float@Vappender@v9@fmt@@Ubig_decimal_fp@detail@23@DV?$digit_grouping@D@523@@detail@v9@fmt@@YA?AVappender@12@V312@ABUbig_decimal_fp@012@ABU?$basic_format_specs@D@12@Ufloat_specs@012@Vlocale_ref@012@@Z 10036c10 f i replicatedanimstate.obj
 0001:00036140       ??$fill@Vappender@v9@fmt@@D@detail@v9@fmt@@YA?AVappender@12@V312@IABU?$fill_t@D@012@@Z 10037140 f i replicatedanimstate.obj
 0001:000361a0       ??$fill_n@Vappender@v9@fmt@@HD@detail@v9@fmt@@YA?AVappender@12@V312@HABD@Z 100371a0 f i replicatedanimstate.obj
 0001:000361f0       ??$fill_n@Vappender@v9@fmt@@ID@detail@v9@fmt@@YA?AVappender@12@V312@IABD@Z 100371f0 f i replicatedanimstate.obj
 0001:00036240       ??$for_each_codepoint@Ucount_code_points@?1??compute_width@detail@v9@fmt@@YAIV?$basic_string_view@D@45@@Z@@detail@v9@fmt@@YAXV?$basic_string_view@D@12@Ucount_code_points@?1??compute_width@012@YAI0@Z@@Z 10037240 f i replicatedanimstate.obj
 0001:00036560       ??$format_decimal@DI@detail@v9@fmt@@YA?AU?$format_decimal_result@PAD@012@PADIH@Z 10037560 f i replicatedanimstate.obj
 0001:000365c0       ??$format_decimal@D_K@detail@v9@fmt@@YA?AU?$format_decimal_result@PAD@012@PAD_KH@Z 100375c0 f i replicatedanimstate.obj
 0001:000366e0       ??$format_float@N@detail@v9@fmt@@YAHNHUfloat_specs@012@AAV?$buffer@D@012@@Z 100376e0 f i replicatedanimstate.obj
 0001:00036bb0       ??$format_uint@$03DVappender@v9@fmt@@I@detail@v9@fmt@@YA?AVappender@12@V312@IH_N@Z 10037bb0 f i replicatedanimstate.obj
 0001:00036c70       ??$format_uint@$03D_K@detail@v9@fmt@@YAPADPAD_KH_N@Z 10037c70 f i replicatedanimstate.obj
 0001:00036cc0       ??$get_dynamic_spec@Vprecision_checker@detail@v9@fmt@@V?$basic_format_arg@V?$basic_format_context@Vappender@v9@fmt@@D@v9@fmt@@@34@Uerror_handler@234@@detail@v9@fmt@@YAHV?$basic_format_arg@V?$basic_format_context@Vappender@v9@fmt@@D@v9@fmt@@@12@Uerror_handler@012@@Z 10037cc0 f i replicatedanimstate.obj
 0001:00036db0       ??$get_dynamic_spec@Vwidth_checker@detail@v9@fmt@@V?$basic_format_arg@V?$basic_format_context@Vappender@v9@fmt@@D@v9@fmt@@@34@Uerror_handler@234@@detail@v9@fmt@@YAHV?$basic_format_arg@V?$basic_format_context@Vappender@v9@fmt@@D@v9@fmt@@@12@Uerror_handler@012@@Z 10037db0 f i replicatedanimstate.obj
 0001:00036ea0       ??$get_id@D@?$basic_format_args@V?$basic_format_context@Vappender@v9@fmt@@D@v9@fmt@@@v9@fmt@@QBEHV?$basic_string_view@D@12@@Z 10037ea0 f i replicatedanimstate.obj
 0001:00036fb0       ??$multiply@Vuint128_fallback@detail@v9@fmt@@$0A@@bigint@detail@v9@fmt@@AAEXVuint128_fallback@123@@Z 10037fb0 f i replicatedanimstate.obj
 0001:00037260       ??$parse_arg_id@DAAUid_adapter@?1???$parse_replacement_field@DAAUformat_handler@?1???$vformat_to@D@detail@v9@fmt@@YAXAAV?$buffer@D@234@V?$basic_string_view@D@34@V?$basic_format_args@V?$basic_format_context@Vappender@v9@fmt@@D@v9@fmt@@@34@Vlocale_ref@234@@Z@@detail@v9@fmt@@YAPBDPBD0AAUformat_handler@?1???$vformat_to@D@234@YAXAAV?$buffer@D@234@V?$basic_string_view@D@34@V?$basic_format_args@V?$basic_format_context@Vappender@v9@fmt@@D@v9@fmt@@@34@Vlocale_ref@234@@Z@@Z@@detail@v9@fmt@@YAPBDPBD0AAUid_adapter@?1???$parse_replacement_field@DAAUformat_handler@?1???$vformat_to@D@detail@v9@fmt@@YAXAAV?$buffer@D@234@V?$basic_string_view@D@34@V?$basic_format_args@V?$basic_format_context@Vappender@v9@fmt@@D@v9@fmt@@@34@Vlocale_ref@234@@Z@@012@YAPBD00AAUformat_handler@?1???$vformat_to@D@012@YAXAAV?$buffer@D@012@V?$basic_string_view@D@12@V?$basic_format_args@V?$basic_format_context@Vappender@v9@fmt@@D@v9@fmt@@@12@Vlocale_ref@012@@Z@@Z@@Z 10038260 f i replicatedanimstate.obj
 0001:000373b0       ??$parse_float_type_spec@Uerror_handler@detail@v9@fmt@@D@detail@v9@fmt@@YA?AUfloat_specs@012@ABU?$basic_format_specs@D@12@$$QAUerror_handler@012@@Z 100383b0 f i replicatedanimstate.obj
 0001:000374a0       ??$parse_format_specs@DAAV?$specs_checker@V?$specs_handler@D@detail@v9@fmt@@@detail@v9@fmt@@@detail@v9@fmt@@YAPBDPBD0AAV?$specs_checker@V?$specs_handler@D@detail@v9@fmt@@@012@@Z 100384a0 f i replicatedanimstate.obj
 0001:00037840       ??$parse_format_string@$0A@DUformat_handler@?1???$vformat_to@D@detail@v9@fmt@@YAXAAV?$buffer@D@234@V?$basic_string_view@D@34@V?$basic_format_args@V?$basic_format_context@Vappender@v9@fmt@@D@v9@fmt@@@34@Vlocale_ref@234@@Z@@detail@v9@fmt@@YAXV?$basic_string_view@D@12@$$QAUformat_handler@?1???$vformat_to@D@012@YAXAAV?$buffer@D@012@0V?$basic_format_args@V?$basic_format_context@Vappender@v9@fmt@@D@v9@fmt@@@12@Vlocale_ref@012@@Z@@Z 10038840 f i replicatedanimstate.obj
 0001:00037a20       ??$parse_nonnegative_int@D@detail@v9@fmt@@YAHAAPBDPBDH@Z 10038a20 f i replicatedanimstate.obj
 0001:00037aa0       ??$parse_precision@DAAV?$specs_checker@V?$specs_handler@D@detail@v9@fmt@@@detail@v9@fmt@@@detail@v9@fmt@@YAPBDPBD0AAV?$specs_checker@V?$specs_handler@D@detail@v9@fmt@@@012@@Z 10038aa0 f i replicatedanimstate.obj
 0001:00037c10       ??$parse_presentation_type@D@detail@v9@fmt@@YA?AW4presentation_type@12@D@Z 10038c10 f i replicatedanimstate.obj
 0001:00037cf0       ??$parse_replacement_field@DAAUformat_handler@?1???$vformat_to@D@detail@v9@fmt@@YAXAAV?$buffer@D@234@V?$basic_string_view@D@34@V?$basic_format_args@V?$basic_format_context@Vappender@v9@fmt@@D@v9@fmt@@@34@Vlocale_ref@234@@Z@@detail@v9@fmt@@YAPBDPBD0AAUformat_handler@?1???$vformat_to@D@012@YAXAAV?$buffer@D@012@V?$basic_string_view@D@12@V?$basic_format_args@V?$basic_format_context@Vappender@v9@fmt@@D@v9@fmt@@@12@Vlocale_ref@012@@Z@@Z 10038cf0 f i replicatedanimstate.obj
 0001:00037f60       ??$snprintf_float@N@detail@v9@fmt@@YAHNHUfloat_specs@012@AAV?$buffer@D@012@@Z 10038f60 f i replicatedanimstate.obj
 0001:00038060       ??$vformat_to@D@detail@v9@fmt@@YAXAAV?$buffer@D@012@V?$basic_string_view@D@12@V?$basic_format_args@V?$basic_format_context@Vappender@v9@fmt@@D@v9@fmt@@@12@Vlocale_ref@012@@Z 10039060 f i replicatedanimstate.obj
 0001:00038110       ??$visit_format_arg@AAU?$arg_formatter@D@detail@v9@fmt@@V?$basic_format_context@Vappender@v9@fmt@@D@34@@v9@fmt@@YA?AVappender@01@AAU?$arg_formatter@D@detail@01@ABV?$basic_format_arg@V?$basic_format_context@Vappender@v9@fmt@@D@v9@fmt@@@01@@Z 10039110 f i replicatedanimstate.obj
 0001:000385a0       ??$visit_format_arg@U?$default_arg_formatter@D@detail@v9@fmt@@V?$basic_format_context@Vappender@v9@fmt@@D@34@@v9@fmt@@YA?AVappender@01@$$QAU?$default_arg_formatter@D@detail@01@ABV?$basic_format_arg@V?$basic_format_context@Vappender@v9@fmt@@D@v9@fmt@@@01@@Z 100395a0 f i replicatedanimstate.obj
 0001:00038ae0       ??$write@DVappender@v9@fmt@@@detail@v9@fmt@@YA?AVappender@12@V312@V?$basic_string_view@D@12@ABU?$basic_format_specs@D@12@@Z 10039ae0 f i replicatedanimstate.obj
 0001:00038d80       ??$write@DVappender@v9@fmt@@H$0A@@detail@v9@fmt@@YA?AVappender@12@V312@HABU?$basic_format_specs@D@12@Vlocale_ref@012@@Z 10039d80 f i replicatedanimstate.obj
 0001:00038de0       ??$write@DVappender@v9@fmt@@I$0A@@detail@v9@fmt@@YA?AVappender@12@V312@I@Z 10039de0 f i replicatedanimstate.obj
 0001:00038e70       ??$write@DVappender@v9@fmt@@M$0A@@detail@v9@fmt@@YA?AVappender@12@V312@MU?$basic_format_specs@D@12@Vlocale_ref@012@@Z 10039e70 f i replicatedanimstate.obj
 0001:000391d0       ??$write@DVappender@v9@fmt@@N$0A@@detail@v9@fmt@@YA?AVappender@12@V312@NU?$basic_format_specs@D@12@Vlocale_ref@012@@Z 1003a1d0 f i replicatedanimstate.obj
 0001:00039530       ??$write@DVappender@v9@fmt@@O$0A@@detail@v9@fmt@@YA?AVappender@12@V312@OU?$basic_format_specs@D@12@Vlocale_ref@012@@Z 1003a530 f i replicatedanimstate.obj
 0001:00039890       ??$write@DVappender@v9@fmt@@_J$0A@@detail@v9@fmt@@YA?AVappender@12@V312@_J@Z 1003a890 f i replicatedanimstate.obj
 0001:000399b0       ??$write@DVappender@v9@fmt@@_K$0A@@detail@v9@fmt@@YA?AVappender@12@V312@_K@Z 1003a9b0 f i replicatedanimstate.obj
 0001:00039a70       ??$write@DVappender@v9@fmt@@_N$0A@@detail@v9@fmt@@YA?AVappender@12@V312@_NABU?$basic_format_specs@D@12@Vlocale_ref@012@@Z 1003aa70 f i replicatedanimstate.obj
 0001:00039b50       ??$write_bytes@$01DVappender@v9@fmt@@@detail@v9@fmt@@YA?AVappender@12@V312@V?$basic_string_view@D@12@ABU?$basic_format_specs@D@12@@Z 1003ab50 f i replicatedanimstate.obj
 0001:00039be0       ??$write_char@DVappender@v9@fmt@@@detail@v9@fmt@@YA?AVappender@12@V312@DABU?$basic_format_specs@D@12@@Z 1003abe0 f i replicatedanimstate.obj
 0001:00039c20       ??$write_codepoint@$01DVappender@v9@fmt@@@detail@v9@fmt@@YA?AVappender@12@V312@DI@Z 1003ac20 f i replicatedanimstate.obj
 0001:00039cb0       ??$write_escaped_cp@Vappender@v9@fmt@@D@detail@v9@fmt@@YA?AVappender@12@V312@ABU?$find_escape_result@D@012@@Z 1003acb0 f i replicatedanimstate.obj
 0001:00039e30       ??$write_exponent@DVappender@v9@fmt@@@detail@v9@fmt@@YA?AVappender@12@HV312@@Z 1003ae30 f i replicatedanimstate.obj
 0001:00039f60       ??$write_int@DVappender@v9@fmt@@I@detail@v9@fmt@@YA?AVappender@12@V312@U?$write_int_arg@I@012@ABU?$basic_format_specs@D@12@Vlocale_ref@012@@Z 1003af60 f i replicatedanimstate.obj
 0001:0003a1c0       ??$write_int@DVappender@v9@fmt@@_K@detail@v9@fmt@@YA?AVappender@12@V312@U?$write_int_arg@_K@012@ABU?$basic_format_specs@D@12@Vlocale_ref@012@@Z 1003b1c0 f i replicatedanimstate.obj
 0001:0003a450       ??$write_int@Vappender@v9@fmt@@DV<lambda_1>@?4???$write_int@DVappender@v9@fmt@@I@detail@23@YA?AV123@V123@U?$write_int_arg@I@523@ABU?$basic_format_specs@D@23@Vlocale_ref@523@@Z@@detail@v9@fmt@@YA?AVappender@12@V312@HIABU?$basic_format_specs@D@12@V<lambda_1>@?4???$write_int@DVappender@v9@fmt@@I@012@YA?AV312@0U?$write_int_arg@I@012@1Vlocale_ref@012@@Z@@Z 1003b450 f i replicatedanimstate.obj
 0001:0003a600       ??$write_int@Vappender@v9@fmt@@DV<lambda_1>@?4???$write_int@DVappender@v9@fmt@@_K@detail@23@YA?AV123@V123@U?$write_int_arg@_K@523@ABU?$basic_format_specs@D@23@Vlocale_ref@523@@Z@@detail@v9@fmt@@YA?AVappender@12@V312@HIABU?$basic_format_specs@D@12@V<lambda_1>@?4???$write_int@DVappender@v9@fmt@@_K@012@YA?AV312@0U?$write_int_arg@_K@012@1Vlocale_ref@012@@Z@@Z 1003b600 f i replicatedanimstate.obj
 0001:0003a7b0       ??$write_int@Vappender@v9@fmt@@DV<lambda_2>@?8???$write_int@DVappender@v9@fmt@@I@detail@23@YA?AV123@V123@U?$write_int_arg@I@523@ABU?$basic_format_specs@D@23@Vlocale_ref@523@@Z@@detail@v9@fmt@@YA?AVappender@12@V312@HIABU?$basic_format_specs@D@12@V<lambda_2>@?8???$write_int@DVappender@v9@fmt@@I@012@YA?AV312@0U?$write_int_arg@I@012@1Vlocale_ref@012@@Z@@Z 1003b7b0 f i replicatedanimstate.obj
 0001:0003a960       ??$write_int@Vappender@v9@fmt@@DV<lambda_2>@?8???$write_int@DVappender@v9@fmt@@_K@detail@23@YA?AV123@V123@U?$write_int_arg@_K@523@ABU?$basic_format_specs@D@23@Vlocale_ref@523@@Z@@detail@v9@fmt@@YA?AVappender@12@V312@HIABU?$basic_format_specs@D@12@V<lambda_2>@?8???$write_int@DVappender@v9@fmt@@_K@012@YA?AV312@0U?$write_int_arg@_K@012@1Vlocale_ref@012@@Z@@Z 1003b960 f i replicatedanimstate.obj
 0001:0003ab00       ??$write_int@Vappender@v9@fmt@@DV<lambda_3>@?M@???$write_int@DVappender@v9@fmt@@I@detail@23@YA?AV123@V123@U?$write_int_arg@I@523@ABU?$basic_format_specs@D@23@Vlocale_ref@523@@Z@@detail@v9@fmt@@YA?AVappender@12@V312@HIABU?$basic_format_specs@D@12@V<lambda_3>@?M@???$write_int@DVappender@v9@fmt@@I@012@YA?AV312@0U?$write_int_arg@I@012@1Vlocale_ref@012@@Z@@Z 1003bb00 f i replicatedanimstate.obj
 0001:0003acb0       ??$write_int@Vappender@v9@fmt@@DV<lambda_3>@?M@???$write_int@DVappender@v9@fmt@@_K@detail@23@YA?AV123@V123@U?$write_int_arg@_K@523@ABU?$basic_format_specs@D@23@Vlocale_ref@523@@Z@@detail@v9@fmt@@YA?AVappender@12@V312@HIABU?$basic_format_specs@D@12@V<lambda_3>@?M@???$write_int@DVappender@v9@fmt@@_K@012@YA?AV312@0U?$write_int_arg@_K@012@1Vlocale_ref@012@@Z@@Z 1003bcb0 f i replicatedanimstate.obj
 0001:0003ae50       ??$write_int@Vappender@v9@fmt@@DV<lambda_4>@?P@???$write_int@DVappender@v9@fmt@@I@detail@23@YA?AV123@V123@U?$write_int_arg@I@523@ABU?$basic_format_specs@D@23@Vlocale_ref@523@@Z@@detail@v9@fmt@@YA?AVappender@12@V312@HIABU?$basic_format_specs@D@12@V<lambda_4>@?P@???$write_int@DVappender@v9@fmt@@I@012@YA?AV312@0U?$write_int_arg@I@012@1Vlocale_ref@012@@Z@@Z 1003be50 f i replicatedanimstate.obj
 0001:0003b000       ??$write_int@Vappender@v9@fmt@@DV<lambda_4>@?P@???$write_int@DVappender@v9@fmt@@_K@detail@23@YA?AV123@V123@U?$write_int_arg@_K@523@ABU?$basic_format_specs@D@23@Vlocale_ref@523@@Z@@detail@v9@fmt@@YA?AVappender@12@V312@HIABU?$basic_format_specs@D@12@V<lambda_4>@?P@???$write_int@DVappender@v9@fmt@@_K@012@YA?AV312@0U?$write_int_arg@_K@012@1Vlocale_ref@012@@Z@@Z 1003c000 f i replicatedanimstate.obj
 0001:0003b1a0       ??$write_int_localized@Vappender@v9@fmt@@_KD@detail@v9@fmt@@YA?AVappender@12@V312@_KIABU?$basic_format_specs@D@12@ABV?$digit_grouping@D@012@@Z 1003c1a0 f i replicatedanimstate.obj
 0001:0003b2f0       ??$write_int_localized@Vappender@v9@fmt@@_KD@detail@v9@fmt@@YA_NAAVappender@12@_KIABU?$basic_format_specs@D@12@Vlocale_ref@012@@Z 1003c2f0 f i replicatedanimstate.obj
 0001:0003b360       ??$write_nonfinite@DVappender@v9@fmt@@@detail@v9@fmt@@YA?AVappender@12@V312@_NU?$basic_format_specs@D@12@ABUfloat_specs@012@@Z 1003c360 f i replicatedanimstate.obj
 0001:0003b470       ??$write_padded@$00Vappender@v9@fmt@@DAAV<lambda_1>@?1???$write_char@DVappender@v9@fmt@@@detail@23@YA?AV123@V123@DABU?$basic_format_specs@D@23@@Z@@detail@v9@fmt@@YA?AVappender@12@V312@ABU?$basic_format_specs@D@12@IIAAV<lambda_1>@?1???$write_char@DVappender@v9@fmt@@@012@YA?AV312@0D1@Z@@Z 1003c470 f i replicatedanimstate.obj
 0001:0003b5f0       ??$write_padded@$01Vappender@v9@fmt@@DAAV<lambda_5>@?1???$do_write_float@Vappender@v9@fmt@@U?$decimal_fp@M@dragonbox@detail@23@DV?$digit_grouping@D@623@@detail@23@YA?AV123@V123@ABU?$decimal_fp@M@dragonbox@523@ABU?$basic_format_specs@D@23@Ufloat_specs@523@Vlocale_ref@523@@Z@@detail@v9@fmt@@YA?AVappender@12@V312@ABU?$basic_format_specs@D@12@IIAAV<lambda_5>@?1???$do_write_float@Vappender@v9@fmt@@U?$decimal_fp@M@dragonbox@detail@23@DV?$digit_grouping@D@623@@012@YA?AV312@0ABU?$decimal_fp@M@dragonbox@012@1Ufloat_specs@012@Vlocale_ref@012@@Z@@Z 1003c5f0 f i replicatedanimstate.obj
 0001:0003b750       ??$write_padded@$01Vappender@v9@fmt@@DAAV<lambda_5>@?1???$do_write_float@Vappender@v9@fmt@@U?$decimal_fp@N@dragonbox@detail@23@DV?$digit_grouping@D@623@@detail@23@YA?AV123@V123@ABU?$decimal_fp@N@dragonbox@523@ABU?$basic_format_specs@D@23@Ufloat_specs@523@Vlocale_ref@523@@Z@@detail@v9@fmt@@YA?AVappender@12@V312@ABU?$basic_format_specs@D@12@IIAAV<lambda_5>@?1???$do_write_float@Vappender@v9@fmt@@U?$decimal_fp@N@dragonbox@detail@23@DV?$digit_grouping@D@623@@012@YA?AV312@0ABU?$decimal_fp@N@dragonbox@012@1Ufloat_specs@012@Vlocale_ref@012@@Z@@Z 1003c750 f i replicatedanimstate.obj
 0001:0003b8c0       ??$write_padded@$01Vappender@v9@fmt@@DAAV<lambda_5>@?1???$do_write_float@Vappender@v9@fmt@@Ubig_decimal_fp@detail@23@DV?$digit_grouping@D@523@@detail@23@YA?AV123@V123@ABUbig_decimal_fp@523@ABU?$basic_format_specs@D@23@Ufloat_specs@523@Vlocale_ref@523@@Z@@detail@v9@fmt@@YA?AVappender@12@V312@ABU?$basic_format_specs@D@12@IIAAV<lambda_5>@?1???$do_write_float@Vappender@v9@fmt@@Ubig_decimal_fp@detail@23@DV?$digit_grouping@D@523@@012@YA?AV312@0ABUbig_decimal_fp@012@1Ufloat_specs@012@Vlocale_ref@012@@Z@@Z 1003c8c0 f i replicatedanimstate.obj
 0001:0003ba10       ??$write_ptr@DVappender@v9@fmt@@I@detail@v9@fmt@@YA?AVappender@12@V312@IPBU?$basic_format_specs@D@12@@Z 1003ca10 f i replicatedanimstate.obj
 0001:0003bb20       ??$write_significand@Vappender@v9@fmt@@ID$0A@@detail@v9@fmt@@YA?AVappender@12@V312@IHHD@Z 1003cb20 f i replicatedanimstate.obj
 0001:0003bbf0       ??$write_significand@Vappender@v9@fmt@@_KD$0A@@detail@v9@fmt@@YA?AVappender@12@V312@_KHHD@Z 1003cbf0 f i replicatedanimstate.obj
 0001:0003bdb0       ??0?$digit_grouping@D@detail@v9@fmt@@QAE@Vlocale_ref@123@_N@Z 1003cdb0 f i replicatedanimstate.obj
 0001:0003bec0       ??0ReplicatedAnimState@mod@csgo@aw@@QAE@PAVReplicatedBoneState@123@PAVCSPlayer@sdk@23@@Z 1003cec0 f   replicatedanimstate.obj
 0001:0003c140       ??1?$digit_grouping@D@detail@v9@fmt@@QAE@XZ 1003d140 f i replicatedanimstate.obj
 0001:0003c180       ??1ReplicatedAnimState@mod@csgo@aw@@QAE@XZ 1003d180 f   replicatedanimstate.obj
 0001:0003c1d0       ??4?$back_insert_iterator@V?$buffer@D@detail@v9@fmt@@@std@@QAEAAV01@$$QAD@Z 1003d1d0 f i replicatedanimstate.obj
 0001:0003c200       ??4ReplicatedAnimState@mod@csgo@aw@@AAEAAV0123@ABV0123@@Z 1003d200 f i replicatedanimstate.obj
 0001:0003c7d0       ??R<lambda_1>@?1???$write@DVappender@v9@fmt@@@detail@v9@fmt@@YA?AVappender@23@V423@V?$basic_string_view@D@23@ABU?$basic_format_specs@D@23@@Z@QBE@0@Z 1003d7d0 f i replicatedanimstate.obj
 0001:0003c940       ??R<lambda_1>@?1???$write_ptr@DVappender@v9@fmt@@I@detail@v9@fmt@@YA?AVappender@23@V423@IPBU?$basic_format_specs@D@23@@Z@QBE@0@Z 1003d940 f i replicatedanimstate.obj
 0001:0003c9b0       ??R<lambda_2>@?4???$do_write_float@Vappender@v9@fmt@@U?$decimal_fp@M@dragonbox@detail@23@DV?$digit_grouping@D@623@@detail@v9@fmt@@YA?AVappender@23@V423@ABU?$decimal_fp@M@dragonbox@123@ABU?$basic_format_specs@D@23@Ufloat_specs@123@Vlocale_ref@123@@Z@QBE@0@Z 1003d9b0 f i replicatedanimstate.obj
 0001:0003ca70       ??R<lambda_2>@?4???$do_write_float@Vappender@v9@fmt@@U?$decimal_fp@N@dragonbox@detail@23@DV?$digit_grouping@D@623@@detail@v9@fmt@@YA?AVappender@23@V423@ABU?$decimal_fp@N@dragonbox@123@ABU?$basic_format_specs@D@23@Ufloat_specs@123@Vlocale_ref@123@@Z@QBE@0@Z 1003da70 f i replicatedanimstate.obj
 0001:0003cb30       ??R<lambda_2>@?4???$do_write_float@Vappender@v9@fmt@@Ubig_decimal_fp@detail@23@DV?$digit_grouping@D@523@@detail@v9@fmt@@YA?AVappender@23@V423@ABUbig_decimal_fp@123@ABU?$basic_format_specs@D@23@Ufloat_specs@123@Vlocale_ref@123@@Z@QBE@0@Z 1003db30 f i replicatedanimstate.obj
 0001:0003cc30       ??R<lambda_2>@?8???$write_int@DVappender@v9@fmt@@_K@detail@v9@fmt@@YA?AVappender@23@V423@U?$write_int_arg@_K@123@ABU?$basic_format_specs@D@23@Vlocale_ref@123@@Z@QBE@0@Z 1003dc30 f i replicatedanimstate.obj
 0001:0003cce0       ??R<lambda_3>@?BD@???$do_write_float@Vappender@v9@fmt@@U?$decimal_fp@M@dragonbox@detail@23@DV?$digit_grouping@D@623@@detail@v9@fmt@@YA?AVappender@23@V423@ABU?$decimal_fp@M@dragonbox@123@ABU?$basic_format_specs@D@23@Ufloat_specs@123@Vlocale_ref@123@@Z@QBE@0@Z 1003dce0 f i replicatedanimstate.obj
 0001:0003ce90       ??R<lambda_3>@?BD@???$do_write_float@Vappender@v9@fmt@@U?$decimal_fp@N@dragonbox@detail@23@DV?$digit_grouping@D@623@@detail@v9@fmt@@YA?AVappender@23@V423@ABU?$decimal_fp@N@dragonbox@123@ABU?$basic_format_specs@D@23@Ufloat_specs@123@Vlocale_ref@123@@Z@QBE@0@Z 1003de90 f i replicatedanimstate.obj
 0001:0003d050       ??R<lambda_3>@?BD@???$do_write_float@Vappender@v9@fmt@@Ubig_decimal_fp@detail@23@DV?$digit_grouping@D@523@@detail@v9@fmt@@YA?AVappender@23@V423@ABUbig_decimal_fp@123@ABU?$basic_format_specs@D@23@Ufloat_specs@123@Vlocale_ref@123@@Z@QBE@0@Z 1003e050 f i replicatedanimstate.obj
 0001:0003d1e0       ??R<lambda_3>@?M@???$write_int@DVappender@v9@fmt@@I@detail@v9@fmt@@YA?AVappender@23@V423@U?$write_int_arg@I@123@ABU?$basic_format_specs@D@23@Vlocale_ref@123@@Z@QBE@0@Z 1003e1e0 f i replicatedanimstate.obj
 0001:0003d270       ??R<lambda_3>@?M@???$write_int@DVappender@v9@fmt@@_K@detail@v9@fmt@@YA?AVappender@23@V423@U?$write_int_arg@_K@123@ABU?$basic_format_specs@D@23@Vlocale_ref@123@@Z@QBE@0@Z 1003e270 f i replicatedanimstate.obj
 0001:0003d310       ??R<lambda_4>@?BO@???$do_write_float@Vappender@v9@fmt@@U?$decimal_fp@M@dragonbox@detail@23@DV?$digit_grouping@D@623@@detail@v9@fmt@@YA?AVappender@23@V423@ABU?$decimal_fp@M@dragonbox@123@ABU?$basic_format_specs@D@23@Ufloat_specs@123@Vlocale_ref@123@@Z@QBE@0@Z 1003e310 f i replicatedanimstate.obj
 0001:0003d470       ??R<lambda_4>@?BO@???$do_write_float@Vappender@v9@fmt@@U?$decimal_fp@N@dragonbox@detail@23@DV?$digit_grouping@D@623@@detail@v9@fmt@@YA?AVappender@23@V423@ABU?$decimal_fp@N@dragonbox@123@ABU?$basic_format_specs@D@23@Ufloat_specs@123@Vlocale_ref@123@@Z@QBE@0@Z 1003e470 f i replicatedanimstate.obj
 0001:0003d5e0       ??R<lambda_4>@?BO@???$do_write_float@Vappender@v9@fmt@@Ubig_decimal_fp@detail@23@DV?$digit_grouping@D@523@@detail@v9@fmt@@YA?AVappender@23@V423@ABUbig_decimal_fp@123@ABU?$basic_format_specs@D@23@Ufloat_specs@123@Vlocale_ref@123@@Z@QBE@0@Z 1003e5e0 f i replicatedanimstate.obj
 0001:0003d7c0       ??R<lambda_4>@?P@???$write_int@DVappender@v9@fmt@@I@detail@v9@fmt@@YA?AVappender@23@V423@U?$write_int_arg@I@123@ABU?$basic_format_specs@D@23@Vlocale_ref@123@@Z@QBE@0@Z 1003e7c0 f i replicatedanimstate.obj
 0001:0003d860       ??R<lambda_4>@?P@???$write_int@DVappender@v9@fmt@@_K@detail@v9@fmt@@YA?AVappender@23@V423@U?$write_int_arg@_K@123@ABU?$basic_format_specs@D@23@Vlocale_ref@123@@Z@QBE@0@Z 1003e860 f i replicatedanimstate.obj
 0001:0003d900       ??Rwriter@?1???$parse_format_string@$0A@DUformat_handler@?1???$vformat_to@D@detail@v9@fmt@@YAXAAV?$buffer@D@234@V?$basic_string_view@D@34@V?$basic_format_args@V?$basic_format_context@Vappender@v9@fmt@@D@v9@fmt@@@34@Vlocale_ref@234@@Z@@detail@v9@fmt@@YAXV?$basic_string_view@D@23@$$QAUformat_handler@?1???$vformat_to@D@123@YAXAAV?$buffer@D@123@0V?$basic_format_args@V?$basic_format_context@Vappender@v9@fmt@@D@v9@fmt@@@23@Vlocale_ref@123@@Z@@Z@QAEXPBD5@Z 1003e900 f i replicatedanimstate.obj
 0001:0003d9c0       ??Yuint128_fallback@detail@v9@fmt@@QAEXV0123@@Z 1003e9c0 f i replicatedanimstate.obj
 0001:0003da20       ??_3bigint@detail@v9@fmt@@QAEAAV0123@H@Z 1003ea20 f i replicatedanimstate.obj
 0001:0003dac0       ?AddActivityModifier@ReplicatedAnimState@mod@csgo@aw@@IAEXPBD@Z 1003eac0 f   replicatedanimstate.obj
 0001:0003dc00       ?ApplyLayerOrderPreset@ReplicatedAnimState@mod@csgo@aw@@IAEXPBH_N@Z 1003ec00 f   replicatedanimstate.obj
 0001:0003dc60       ?CacheSequences@ReplicatedAnimState@mod@csgo@aw@@IAE_NXZ 1003ec60 f   replicatedanimstate.obj
 0001:0003ee70       ?CopyFrom@ReplicatedAnimState@mod@csgo@aw@@QAEXABV1234@@Z 1003fe70 f   replicatedanimstate.obj
 0001:0003eea0       ?DoAnimationEvent@ReplicatedAnimState@mod@csgo@aw@@QAEXW4PlayerAnimEvent_t@sdk@34@H@Z 1003fea0 f   replicatedanimstate.obj
 0001:0003f290       ?GetLayerActivity@ReplicatedAnimState@mod@csgo@aw@@QAE?AW4Activity@sdk@34@W4animstate_layer_t@634@@Z 10040290 f   replicatedanimstate.obj
 0001:0003f300       ?GetLayerCycle@ReplicatedAnimState@mod@csgo@aw@@QAEMW4animstate_layer_t@sdk@34@@Z 10040300 f   replicatedanimstate.obj
 0001:0003f320       ?GetLayerIdealWeightFromSeqCycle@ReplicatedAnimState@mod@csgo@aw@@IAEMW4animstate_layer_t@sdk@34@@Z 10040320 f   replicatedanimstate.obj
 0001:0003f420       ?GetLayerWeight@ReplicatedAnimState@mod@csgo@aw@@QAEMW4animstate_layer_t@sdk@34@@Z 10040420 f   replicatedanimstate.obj
 0001:0003f440       ?GetPoseMappingParameter@ReplicatedAnimState@mod@csgo@aw@@QAEMW4animstate_pose_param_idx_t@sdk@34@@Z 10040440 f   replicatedanimstate.obj
 0001:0003f480       ?GetSequenceDesc@ModelHdr@sdk@csgo@aw@@QAEAAUStudioSequenceDesc@234@H@Z 10040480 f i replicatedanimstate.obj
 0001:0003f500       ?GetWeaponPrefix@ReplicatedAnimState@mod@csgo@aw@@IAEPBDXZ 10040500 f   replicatedanimstate.obj
 0001:0003f590       ?IsLayerSequenceCompleted@ReplicatedAnimState@mod@csgo@aw@@IAE_NW4animstate_layer_t@sdk@34@@Z 10040590 f   replicatedanimstate.obj
 0001:0003f5d0       ?LayerSequenceHasActMod@ReplicatedAnimState@mod@csgo@aw@@IAE_NW4animstate_layer_t@sdk@34@PBD@Z 100405d0 f   replicatedanimstate.obj
 0001:0003f670       ?ModifyEyePosition@ReplicatedAnimState@mod@csgo@aw@@QAEXAAVVector3@4@PAVMatrix3x4@4@@Z 10040670 f   replicatedanimstate.obj
 0001:0003f780       ?OnAnimLayerNetworked@ReplicatedAnimState@mod@csgo@aw@@QAEXHPAVRecvProxyData@sdk@34@@Z 10040780 f   replicatedanimstate.obj
 0001:0003f8b0       ?OnEnterPVS@ReplicatedAnimState@mod@csgo@aw@@QAEXPAVCSPlayer@sdk@34@@Z 100408b0 f   replicatedanimstate.obj
 0001:0003f8f0       ?Reset@ReplicatedAnimState@mod@csgo@aw@@IAEXXZ 100408f0 f   replicatedanimstate.obj
 0001:0003fdc0       ?SelectSequenceFromActMods@ReplicatedAnimState@mod@csgo@aw@@IAEHW4Activity@sdk@34@@Z 10040dc0 f   replicatedanimstate.obj
 0001:0003fe10       ?SetLayerSequence@ReplicatedAnimState@mod@csgo@aw@@IAEXW4animstate_layer_t@sdk@34@H@Z 10040e10 f   replicatedanimstate.obj
 0001:0003fe70       ?SetLayerWeight@ReplicatedAnimState@mod@csgo@aw@@IAEXW4animstate_layer_t@sdk@34@M@Z 10040e70 f   replicatedanimstate.obj
 0001:0003fed0       ?SetLayerWeightRate@ReplicatedAnimState@mod@csgo@aw@@IAEXW4animstate_layer_t@sdk@34@M@Z 10040ed0 f   replicatedanimstate.obj
 0001:0003ff20       ?SetPoseMappingParameter@ReplicatedAnimState@mod@csgo@aw@@QAEXW4animstate_pose_param_idx_t@sdk@34@M@Z 10040f20 f   replicatedanimstate.obj
 0001:0003ff80       ?SetUpAimMatrix@ReplicatedAnimState@mod@csgo@aw@@IAEXXZ 10040f80 f   replicatedanimstate.obj
 0001:00040a80       ?SetUpAliveloop@ReplicatedAnimState@mod@csgo@aw@@IAEXXZ 10041a80 f   replicatedanimstate.obj
 0001:00040dc0       ?SetUpFlashedReaction@ReplicatedAnimState@mod@csgo@aw@@IAEXXZ 10041dc0 f   replicatedanimstate.obj
 0001:00040fb0       ?SetUpFlinch@ReplicatedAnimState@mod@csgo@aw@@IAEXXZ 10041fb0 f   replicatedanimstate.obj
 0001:000412b0       ?SetUpLean@ReplicatedAnimState@mod@csgo@aw@@IAEXXZ 100422b0 f   replicatedanimstate.obj
 0001:00041640       ?SetUpMovement@ReplicatedAnimState@mod@csgo@aw@@IAEXXZ 10042640 f   replicatedanimstate.obj
 0001:00042f50       ?SetUpVelocity@ReplicatedAnimState@mod@csgo@aw@@IAEXXZ 10043f50 f   replicatedanimstate.obj
 0001:00043de0       ?SetUpWeaponAction@ReplicatedAnimState@mod@csgo@aw@@IAEXXZ 10044de0 f   replicatedanimstate.obj
 0001:00044690       ?SetUpWholeBodyAction@ReplicatedAnimState@mod@csgo@aw@@IAEXXZ 10045690 f   replicatedanimstate.obj
 0001:00044b70       ?SimulatedRandomFloat@ReplicatedAnimState@mod@csgo@aw@@IAEMMM@Z 10045b70 f   replicatedanimstate.obj
 0001:00044be0       ?Update@ReplicatedAnimState@mod@csgo@aw@@QAEXMM@Z 10045be0 f   replicatedanimstate.obj
 0001:00044e70       ?UpdateActivityModifiers@ReplicatedAnimState@mod@csgo@aw@@IAEXXZ 10045e70 f   replicatedanimstate.obj
 0001:00045010       ?UpdateAnimLayer@ReplicatedAnimState@mod@csgo@aw@@IAEXW4animstate_layer_t@sdk@34@HMMM@Z 10046010 f   replicatedanimstate.obj
 0001:000450d0       ?UpdateLayerOrderPreset@ReplicatedAnimState@mod@csgo@aw@@IAEXW4animstate_layer_t@sdk@34@H@Z 100460d0 f   replicatedanimstate.obj
 0001:00045130       ?_Xlength@?$vector@VUtlSymbol@sdk@csgo@aw@@V?$allocator@VUtlSymbol@sdk@csgo@aw@@@std@@@std@@CAXXZ 10046130 f i replicatedanimstate.obj
 0001:00045140       ?__offset_GetPlaybackRate@BaseAnimating@sdk@csgo@aw@@QAEHXZ 10046140 f i replicatedanimstate.obj
 0001:00045170       ?add_compare@detail@v9@fmt@@YAHABVbigint@123@00@Z 10046170 f i replicatedanimstate.obj
 0001:00045310       ?allocate@?$allocator@VUtlSymbol@sdk@csgo@aw@@@std@@QAEPAVUtlSymbol@sdk@csgo@aw@@I@Z 10046310 f i replicatedanimstate.obj
 0001:00045370       ?assign_pow10@bigint@detail@v9@fmt@@QAEXH@Z 10046370 f i replicatedanimstate.obj
 0001:00045470       ?compare@detail@v9@fmt@@YAHABVbigint@123@0@Z 10046470 f i replicatedanimstate.obj
 0001:00045510       ?count_digits@detail@v9@fmt@@YAH_K@Z 10046510 f i replicatedanimstate.obj
 0001:00045570       ?count_separators@?$digit_grouping@D@detail@v9@fmt@@QBEHH@Z 10046570 f i replicatedanimstate.obj
 0001:000455e0       ?divmod_assign@bigint@detail@v9@fmt@@QAEHABV1234@@Z 100465e0 f i replicatedanimstate.obj
 0001:000457b0       ?format_dragon@detail@v9@fmt@@YAXU?$basic_fp@Vuint128_fallback@detail@v9@fmt@@@123@IHAAV?$buffer@D@123@AAH@Z 100467b0 f i replicatedanimstate.obj
 0001:000461c0       ?get@?$basic_format_args@V?$basic_format_context@Vappender@v9@fmt@@D@v9@fmt@@@v9@fmt@@QBE?AV?$basic_format_arg@V?$basic_format_context@Vappender@v9@fmt@@D@v9@fmt@@@23@H@Z 100471c0 f i replicatedanimstate.obj
 0001:00046240       ?get_round_direction@detail@v9@fmt@@YA?AW4round_direction@123@_K00@Z 10047240 f i replicatedanimstate.obj
 0001:000462f0       ?grisu_gen_digits@detail@v9@fmt@@YA?AW4result@digits@123@U?$basic_fp@_K@123@_KAAHAAUgen_digits_handler@123@@Z 100472f0 f i replicatedanimstate.obj
 0001:00046810       ?grow@?$basic_memory_buffer@D$0BPE@V?$allocator@D@std@@@v9@fmt@@MAEXI@Z 10047810 f i replicatedanimstate.obj
 0001:000468b0       ?grow@?$basic_memory_buffer@H$0BPE@V?$allocator@H@std@@@v9@fmt@@MAEXI@Z 100478b0 f i replicatedanimstate.obj
 0001:00046980       ?grow@?$basic_memory_buffer@I$0CA@V?$allocator@I@std@@@v9@fmt@@MAEXI@Z 10047980 f i replicatedanimstate.obj
 0001:00046a50       ?grow@?$iterator_buffer@PADDVfixed_buffer_traits@detail@v9@fmt@@@detail@v9@fmt@@MAEXI@Z 10047a50 f i replicatedanimstate.obj
 0001:00046aa0       ?on_replacement_field@format_handler@?1???$vformat_to@D@detail@v9@fmt@@YAXAAV?$buffer@D@234@V?$basic_string_view@D@34@V?$basic_format_args@V?$basic_format_context@Vappender@v9@fmt@@D@v9@fmt@@@34@Vlocale_ref@234@@Z@QAEXHPBD@Z 10047aa0 f i replicatedanimstate.obj
 0001:00046b10       ?on_sign@?$specs_checker@V?$specs_handler@D@detail@v9@fmt@@@detail@v9@fmt@@QAEXW4type@sign@34@@Z 10047b10 f i replicatedanimstate.obj
 0001:00046b70       ?square@bigint@detail@v9@fmt@@QAEXXZ 10047b70 f i replicatedanimstate.obj
 0001:00046eb0       ?try_resize@?$buffer@D@detail@v9@fmt@@QAEXI@Z 10047eb0 f i replicatedanimstate.obj
 0001:00046ee0       ?utf8_decode@detail@v9@fmt@@YAPBDPBDPAIPAH@Z 10047ee0 f i replicatedanimstate.obj
 0001:00047020       ?GetOverlay@ReplicatedAnimLayers@mod@csgo@aw@@QAEPAVAnimationLayer@sdk@34@H_N@Z 10048020 f   replicatedcommon.obj
 0001:000470a0       ??$Iterator@$00@ReplicatedRecordList@mod@csgo@aw@@IAE?AVReplicatedRecordIterator@123@XZ 100480a0 f i replicatedenemyplayer.obj
 0001:00047450       ??$Iterator@$0A@@ReplicatedRecordList@mod@csgo@aw@@IAE?AVReplicatedRecordIterator@123@XZ 10048450 f i replicatedenemyplayer.obj
 0001:00047800       ??0ReplicatedEnemyPlayer@mod@csgo@aw@@QAE@PAVCSPlayer@sdk@23@@Z 10048800 f   replicatedenemyplayer.obj
 0001:00047b00       ??9ReplicatedRecordIterator@mod@csgo@aw@@QBE_NABV0123@@Z 10048b00 f   replicatedenemyplayer.obj
 0001:00047b10       ??DReplicatedRecordIterator@mod@csgo@aw@@QAEPAUReplicatedRecord@123@XZ 10048b10 f   replicatedenemyplayer.obj
 0001:00047b30       ??EReplicatedRecordIterator@mod@csgo@aw@@QAEABV0123@XZ 10048b30 f   replicatedenemyplayer.obj
 0001:00047b40       ??_EReplicatedEnemyPlayer@mod@csgo@aw@@UAEPAXI@Z 10048b40 f i replicatedenemyplayer.obj
 0001:00047b40       ??_GReplicatedEnemyPlayer@mod@csgo@aw@@UAEPAXI@Z 10048b40 f i replicatedenemyplayer.obj
 0001:00047b90       ?CalcTargetTimeRange@ReplicatedRecordList@mod@csgo@aw@@QAEXAAM0@Z 10048b90 f   replicatedenemyplayer.obj
 0001:00047c50       ?FindNoCheck@ReplicatedRecordList@mod@csgo@aw@@QAEPAUReplicatedRecord@234@M@Z 10048c50 f   replicatedenemyplayer.obj
 0001:00047ca0       ?GetAbsAngles@ReplicatedEnemyPlayer@mod@csgo@aw@@UAEAAVEulerAngles@4@XZ 10048ca0 f i replicatedenemyplayer.obj
 0001:00047cb0       ?GetAbsOrigin@ReplicatedPlayer@mod@csgo@aw@@UAEAAVVector3@4@XZ 10048cb0 f i replicatedenemyplayer.obj
 0001:00047cc0       ?GetAnimLayers@ReplicatedEnemyPlayer@mod@csgo@aw@@UAEAAVReplicatedAnimLayers@234@XZ 10048cc0 f i replicatedenemyplayer.obj
 0001:00047cd0       ?GetEyeAngles@ReplicatedEnemyPlayer@mod@csgo@aw@@UAEAAVEulerAngles@4@XZ 10048cd0 f i replicatedenemyplayer.obj
 0001:00047ce0       ?GetPoseParams@ReplicatedEnemyPlayer@mod@csgo@aw@@UAEAAV?$array@M$0BI@@std@@XZ 10048ce0 f i replicatedenemyplayer.obj
 0001:00047cf0       ?GetType@ReplicatedEnemyPlayer@mod@csgo@aw@@UAE?AW4ReplicatedType@234@XZ 10048cf0 f i replicatedenemyplayer.obj
 0001:00047d00       ?IsEnabled@VisualsChamsBuilder@ui@csgo@aw@@QAE_NXZ 10048d00 f i replicatedenemyplayer.obj
 0001:00047d40       ?IsIterationValid@ReplicatedRecordList@mod@csgo@aw@@QAE_NPAUReplicatedRecord@234@0@Z 10048d40 f   replicatedenemyplayer.obj
 0001:00047e20       ?Newest@ReplicatedRecordList@mod@csgo@aw@@QAEPAUReplicatedRecord@234@XZ 10048e20 f   replicatedenemyplayer.obj
 0001:00047e40       ?NewestValid@ReplicatedRecordList@mod@csgo@aw@@QAEPAUReplicatedRecord@234@XZ 10048e40 f   replicatedenemyplayer.obj
 0001:00047ea0       ?OldestValid@ReplicatedRecordList@mod@csgo@aw@@QAEPAUReplicatedRecord@234@XZ 10048ea0 f   replicatedenemyplayer.obj
 0001:00047f00       ?begin@ReplicatedRecordList@mod@csgo@aw@@QAE?AVReplicatedRecordIterator@234@XZ 10048f00 f   replicatedenemyplayer.obj
 0001:00047f10       ?end@ReplicatedRecordList@mod@csgo@aw@@QAE?AVReplicatedRecordIterator@234@XZ 10048f10 f   replicatedenemyplayer.obj
 0001:00047f20       ??$_Find_last@PAVCSPlayer@sdk@csgo@aw@@@?$_Hash@V?$_Umap_traits@PAVCSPlayer@sdk@csgo@aw@@V?$unique_ptr@VReplicatedPlayer@mod@csgo@aw@@U?$default_delete@VReplicatedPlayer@mod@csgo@aw@@@std@@@std@@V?$_Uhash_compare@PAVCSPlayer@sdk@csgo@aw@@U?$hash@PAVCSPlayer@sdk@csgo@aw@@@std@@U?$equal_to@PAVCSPlayer@sdk@csgo@aw@@@6@@6@V?$allocator@U?$pair@QAVCSPlayer@sdk@csgo@aw@@V?$unique_ptr@VReplicatedPlayer@mod@csgo@aw@@U?$default_delete@VReplicatedPlayer@mod@csgo@aw@@@std@@@std@@@std@@@6@$0A@@std@@@std@@IBE?AU?$_Hash_find_last_result@PAU?$_List_node@U?$pair@QAVCSPlayer@sdk@csgo@aw@@V?$unique_ptr@VReplicatedPlayer@mod@csgo@aw@@U?$default_delete@VReplicatedPlayer@mod@csgo@aw@@@std@@@std@@@std@@PAX@std@@@1@ABQAVCSPlayer@sdk@csgo@aw@@I@Z 10048f20 f i replicatedgamestate.obj
 0001:00047f90       ??$_Free_non_head@V?$allocator@U?$_List_node@U?$pair@QAVCSPlayer@sdk@csgo@aw@@V?$unique_ptr@VReplicatedPlayer@mod@csgo@aw@@U?$default_delete@VReplicatedPlayer@mod@csgo@aw@@@std@@@std@@@std@@PAX@std@@@std@@@?$_List_node@U?$pair@QAVCSPlayer@sdk@csgo@aw@@V?$unique_ptr@VReplicatedPlayer@mod@csgo@aw@@U?$default_delete@VReplicatedPlayer@mod@csgo@aw@@@std@@@std@@@std@@PAX@std@@SAXAAV?$allocator@U?$_List_node@U?$pair@QAVCSPlayer@sdk@csgo@aw@@V?$unique_ptr@VReplicatedPlayer@mod@csgo@aw@@U?$default_delete@VReplicatedPlayer@mod@csgo@aw@@@std@@@std@@@std@@PAX@std@@@1@PAU01@@Z 10048f90 f i replicatedgamestate.obj
 0001:00047fd0       ??$_Resize_reallocate@U_Value_init_tag@std@@@?$vector@UShotMatrix@ReplicatedGameState@mod@csgo@aw@@V?$allocator@UShotMatrix@ReplicatedGameState@mod@csgo@aw@@@std@@@std@@AAEXIABU_Value_init_tag@1@@Z 10048fd0 f i replicatedgamestate.obj
 0001:00048110       ??$_Try_emplace@ABQAVCSPlayer@sdk@csgo@aw@@$$V@?$_Hash@V?$_Umap_traits@PAVCSPlayer@sdk@csgo@aw@@V?$unique_ptr@VReplicatedPlayer@mod@csgo@aw@@U?$default_delete@VReplicatedPlayer@mod@csgo@aw@@@std@@@std@@V?$_Uhash_compare@PAVCSPlayer@sdk@csgo@aw@@U?$hash@PAVCSPlayer@sdk@csgo@aw@@@std@@U?$equal_to@PAVCSPlayer@sdk@csgo@aw@@@6@@6@V?$allocator@U?$pair@QAVCSPlayer@sdk@csgo@aw@@V?$unique_ptr@VReplicatedPlayer@mod@csgo@aw@@U?$default_delete@VReplicatedPlayer@mod@csgo@aw@@@std@@@std@@@std@@@6@$0A@@std@@@std@@IAE?AU?$pair@PAU?$_List_node@U?$pair@QAVCSPlayer@sdk@csgo@aw@@V?$unique_ptr@VReplicatedPlayer@mod@csgo@aw@@U?$default_delete@VReplicatedPlayer@mod@csgo@aw@@@std@@@std@@@std@@PAX@std@@_N@1@ABQAVCSPlayer@sdk@csgo@aw@@@Z 10049110 f i replicatedgamestate.obj
 0001:000482d0       ??$fill@PAV?$_List_unchecked_iterator@V?$_List_val@U?$_List_simple_types@U?$pair@QAVCSPlayer@sdk@csgo@aw@@V?$unique_ptr@VReplicatedPlayer@mod@csgo@aw@@U?$default_delete@VReplicatedPlayer@mod@csgo@aw@@@std@@@std@@@std@@@std@@@std@@@std@@V12@@std@@YAXQAV?$_List_unchecked_iterator@V?$_List_val@U?$_List_simple_types@U?$pair@QAVCSPlayer@sdk@csgo@aw@@V?$unique_ptr@VReplicatedPlayer@mod@csgo@aw@@U?$default_delete@VReplicatedPlayer@mod@csgo@aw@@@std@@@std@@@std@@@std@@@std@@@0@0ABV10@@Z 100492d0 f i replicatedgamestate.obj
 0001:00048330       ??$find@X@?$_Hash@V?$_Umap_traits@PAVCSPlayer@sdk@csgo@aw@@V?$unique_ptr@VReplicatedPlayer@mod@csgo@aw@@U?$default_delete@VReplicatedPlayer@mod@csgo@aw@@@std@@@std@@V?$_Uhash_compare@PAVCSPlayer@sdk@csgo@aw@@U?$hash@PAVCSPlayer@sdk@csgo@aw@@@std@@U?$equal_to@PAVCSPlayer@sdk@csgo@aw@@@6@@6@V?$allocator@U?$pair@QAVCSPlayer@sdk@csgo@aw@@V?$unique_ptr@VReplicatedPlayer@mod@csgo@aw@@U?$default_delete@VReplicatedPlayer@mod@csgo@aw@@@std@@@std@@@std@@@6@$0A@@std@@@std@@QAE?AV?$_List_iterator@V?$_List_val@U?$_List_simple_types@U?$pair@QAVCSPlayer@sdk@csgo@aw@@V?$unique_ptr@VReplicatedPlayer@mod@csgo@aw@@U?$default_delete@VReplicatedPlayer@mod@csgo@aw@@@std@@@std@@@std@@@std@@@std@@@1@ABQAVCSPlayer@sdk@csgo@aw@@@Z 10049330 f i replicatedgamestate.obj
 0001:000483a0       ??0DrawChamsModel@mod@csgo@aw@@QAE@AAUDrawModelVars@hk@23@@Z 100493a0 f i replicatedgamestate.obj
 0001:000483e0       ??1?$_Hash@V?$_Umap_traits@PAVCSPlayer@sdk@csgo@aw@@V?$unique_ptr@VReplicatedPlayer@mod@csgo@aw@@U?$default_delete@VReplicatedPlayer@mod@csgo@aw@@@std@@@std@@V?$_Uhash_compare@PAVCSPlayer@sdk@csgo@aw@@U?$hash@PAVCSPlayer@sdk@csgo@aw@@@std@@U?$equal_to@PAVCSPlayer@sdk@csgo@aw@@@6@@6@V?$allocator@U?$pair@QAVCSPlayer@sdk@csgo@aw@@V?$unique_ptr@VReplicatedPlayer@mod@csgo@aw@@U?$default_delete@VReplicatedPlayer@mod@csgo@aw@@@std@@@std@@@std@@@6@$0A@@std@@@std@@QAE@XZ 100493e0 f i replicatedgamestate.obj
 0001:00048440       ??1?$vector@UShotMatrix@ReplicatedGameState@mod@csgo@aw@@V?$allocator@UShotMatrix@ReplicatedGameState@mod@csgo@aw@@@std@@@std@@QAE@XZ 10049440 f i replicatedgamestate.obj
 0001:000484a0       ??_E?$Callback@UDrawChamsModel@mod@csgo@aw@@@aw@@UAEPAXI@Z 100494a0 f i replicatedgamestate.obj
 0001:000484a0       ??_G?$Callback@UDrawChamsModel@mod@csgo@aw@@@aw@@UAEPAXI@Z 100494a0 f i replicatedgamestate.obj
 0001:000484d0       ??_E?$ModuleBaseImpl@VReplicatedGameState@mod@csgo@aw@@V?$TypedObject@VReplicatedGameState@mod@csgo@aw@@VModuleBase@4@@4@@aw@@UAEPAXI@Z 100494d0 f i replicatedgamestate.obj
 0001:000484d0       ??_G?$ModuleBaseImpl@VReplicatedGameState@mod@csgo@aw@@V?$TypedObject@VReplicatedGameState@mod@csgo@aw@@VModuleBase@4@@4@@aw@@UAEPAXI@Z 100494d0 f i replicatedgamestate.obj
 0001:00048500       ??_EDrawChamsModel@mod@csgo@aw@@UAEPAXI@Z 10049500 f i replicatedgamestate.obj
 0001:00048500       ??_GDrawChamsModel@mod@csgo@aw@@UAEPAXI@Z 10049500 f i replicatedgamestate.obj
 0001:00048530       ??_EReplicatedGameState@impl@mod@csgo@aw@@UAEPAXI@Z 10049530 f i replicatedgamestate.obj
 0001:00048530       ??_GReplicatedGameState@impl@mod@csgo@aw@@UAEPAXI@Z 10049530 f i replicatedgamestate.obj
 0001:00048570       ?AddPlayer@ReplicatedGameState@impl@mod@csgo@aw@@IAEPAVReplicatedPlayer@345@PAVCSPlayer@sdk@45@@Z 10049570 f   replicatedgamestate.obj
 0001:00048640       ?ClampSimulationTimeDelta@ReplicatedGameState@impl@mod@csgo@aw@@UAEMM@Z 10049640 f   replicatedgamestate.obj
 0001:000486a0       ?CreateModule@?$ModuleWithFactory@VReplicatedGameState@mod@csgo@aw@@@aw@@SAPAVReplicatedGameState@mod@csgo@2@XZ 100496a0 f   replicatedgamestate.obj
 0001:000486c0       ?DrawClientHitboxes@ReplicatedGameState@impl@mod@csgo@aw@@UAEXPAVCSPlayer@sdk@45@MUColor@745@PAVMatrix3x4@5@@Z 100496c0 f   replicatedgamestate.obj
 0001:00048900       ?DrawSkeleton@ReplicatedGameState@impl@mod@csgo@aw@@UAEXPAVCSPlayer@sdk@45@MUColor@745@PAVMatrix3x4@5@@Z 10049900 f   replicatedgamestate.obj
 0001:00048a80       ?Get@DebugOverlay@sdk@csgo@aw@@SAPAV1234@XZ 10049a80 f i replicatedgamestate.obj
 0001:00048a90       ?Get@MDLCache@sdk@csgo@aw@@SAPAV1234@XZ 10049a90 f i replicatedgamestate.obj
 0001:00048aa0       ?Get@ModelInfo@sdk@csgo@aw@@SAPAV1234@XZ 10049aa0 f i replicatedgamestate.obj
 0001:00048ab0       ?Get@StudioRender@sdk@csgo@aw@@SAPAV1234@XZ 10049ab0 f i replicatedgamestate.obj
 0001:00048ac0       ?GetAllPlayers@ReplicatedGameState@impl@mod@csgo@aw@@UAEABV?$unordered_map@PAVCSPlayer@sdk@csgo@aw@@V?$unique_ptr@VReplicatedPlayer@mod@csgo@aw@@U?$default_delete@VReplicatedPlayer@mod@csgo@aw@@@std@@@std@@U?$hash@PAVCSPlayer@sdk@csgo@aw@@@6@U?$equal_to@PAVCSPlayer@sdk@csgo@aw@@@6@V?$allocator@U?$pair@QAVCSPlayer@sdk@csgo@aw@@V?$unique_ptr@VReplicatedPlayer@mod@csgo@aw@@U?$default_delete@VReplicatedPlayer@mod@csgo@aw@@@std@@@std@@@std@@@6@@std@@XZ 10049ac0 f i replicatedgamestate.obj
 0001:00048ad0       ?GetCorrectTime@ReplicatedGameState@impl@mod@csgo@aw@@UAEMXZ 10049ad0 f   replicatedgamestate.obj
 0001:00048ae0       ?GetDynamic@DebugOverlay@sdk@csgo@aw@@SAPAV1234@XZ 10049ae0 f i replicatedgamestate.obj
 0001:00048b00       ?GetDynamic@MDLCache@sdk@csgo@aw@@SAPAV1234@XZ 10049b00 f i replicatedgamestate.obj
 0001:00048b20       ?GetDynamic@ModelInfo@sdk@csgo@aw@@SAPAV1234@XZ 10049b20 f i replicatedgamestate.obj
 0001:00048b40       ?GetEnemyPlayer@ReplicatedGameState@impl@mod@csgo@aw@@UAEPAVReplicatedEnemyPlayer@345@PAVCSPlayer@sdk@45@@Z 10049b40 f   replicatedgamestate.obj
 0001:00048b70       ?GetFrameTime@ReplicatedGameState@impl@mod@csgo@aw@@UAEMXZ 10049b70 f i replicatedgamestate.obj
 0001:00048b80       ?GetId@?$TypedObject@UDrawChamsModel@mod@csgo@aw@@UCallbackVars@4@@aw@@UAEIXZ 10049b80 f i replicatedgamestate.obj
 0001:00048b90       ?GetId@?$TypedObject@VReplicatedGameState@mod@csgo@aw@@VModuleBase@4@@aw@@UAEIXZ 10049b90 f i replicatedgamestate.obj
 0001:00048ba0       ?GetLerpTime@ReplicatedGameState@impl@mod@csgo@aw@@UAEMXZ 10049ba0 f i replicatedgamestate.obj
 0001:00048bb0       ?GetLocalPlayer@ReplicatedGameState@impl@mod@csgo@aw@@UAEPAVReplicatedLocalPlayer@345@XZ 10049bb0 f   replicatedgamestate.obj
 0001:00048bf0       ?GetMaxChokeCmds@ReplicatedGameState@impl@mod@csgo@aw@@UAEHXZ 10049bf0 f   replicatedgamestate.obj
 0001:00048c00       ?GetMaxUnlag@ReplicatedGameState@impl@mod@csgo@aw@@UAEMXZ 10049c00 f i replicatedgamestate.obj
 0001:00048c10       ?GetPlayer@ReplicatedGameState@impl@mod@csgo@aw@@UAEPAVReplicatedPlayer@345@PAVCSPlayer@sdk@45@@Z 10049c10 f   replicatedgamestate.obj
 0001:00048c50       ?GetServerTick@ReplicatedGameState@impl@mod@csgo@aw@@UAEHXZ 10049c50 f i replicatedgamestate.obj
 0001:00048c60       ?GetServerTime@ReplicatedGameState@impl@mod@csgo@aw@@UAEMXZ 10049c60 f i replicatedgamestate.obj
 0001:00048c70       ?GetShotMatrices@ReplicatedGameState@impl@mod@csgo@aw@@UAEABV?$vector@UShotMatrix@ReplicatedGameState@mod@csgo@aw@@V?$allocator@UShotMatrix@ReplicatedGameState@mod@csgo@aw@@@std@@@std@@XZ 10049c70 f i replicatedgamestate.obj
 0001:00048c80       ?GetTeamPlayer@ReplicatedGameState@impl@mod@csgo@aw@@UAEPAVReplicatedTeamPlayer@345@PAVCSPlayer@sdk@45@@Z 10049c80 f   replicatedgamestate.obj
 0001:00048cb0       ?GetTickBase@ReplicatedGameState@impl@mod@csgo@aw@@UAEHXZ 10049cb0 f i replicatedgamestate.obj
 0001:00048cc0       ?GetTickCountForSimulationTime@ReplicatedGameState@impl@mod@csgo@aw@@UAEHM@Z 10049cc0 f   replicatedgamestate.obj
 0001:00048d00       ?GetTimeBase@ReplicatedGameState@impl@mod@csgo@aw@@UAEMXZ 10049d00 f i replicatedgamestate.obj
 0001:00048d10       ?IsLagCompensationDisabled@ReplicatedGameState@impl@mod@csgo@aw@@UAE_NXZ 10049d10 f i replicatedgamestate.obj
 0001:00048d20       ?LogShotMatrix@ReplicatedGameState@impl@mod@csgo@aw@@UAEXPAVBasePlayer@sdk@45@PAVMatrix3x4@5@@Z 10049d20 f   replicatedgamestate.obj
 0001:00048e40       ?OnAnimLayerVar@ReplicatedGameState@impl@mod@csgo@aw@@IAEXAAUAnimLayerVar@hk@45@@Z 10049e40 f   replicatedgamestate.obj
 0001:00048e80       ?OnDrawModel_Backtrack@ReplicatedGameState@impl@mod@csgo@aw@@IAEXAAUDrawModel@hk@45@PAVCSPlayer@sdk@45@@Z 10049e80 f   replicatedgamestate.obj
 0001:000490a0       ?OnDrawModel_Ghost@ReplicatedGameState@impl@mod@csgo@aw@@IAEXAAUDrawModel@hk@45@PAVCSPlayer@sdk@45@@Z 1004a0a0 f   replicatedgamestate.obj
 0001:00049330       ?OnFrameEnd@ReplicatedGameState@impl@mod@csgo@aw@@IAEXAAUFrameEnd@hk@45@@Z 1004a330 f   replicatedgamestate.obj
 0001:00049340       ?OnGroundAccelLinearFracLastTime@ReplicatedGameState@impl@mod@csgo@aw@@IAEXAAUGroundAccelLinearFracLastTime@hk@45@@Z 1004a340 f   replicatedgamestate.obj
 0001:00049360       ?OnLatchInterpVars@ReplicatedGameState@impl@mod@csgo@aw@@IAEXAAUPlayerLatchInterpVars@hk@45@@Z 1004a360 f   replicatedgamestate.obj
 0001:000493c0       ?OnPostDrawModel@ReplicatedGameState@impl@mod@csgo@aw@@IAEXAAUDrawModel@hk@45@@Z 1004a3c0 f   replicatedgamestate.obj
 0001:00049450       ?OnPostViewDrawScene@ReplicatedGameState@impl@mod@csgo@aw@@IAEXAAUPostViewDrawScene@hk@45@@Z 1004a450 f   replicatedgamestate.obj
 0001:00049830       ?OnPreDrawModel@ReplicatedGameState@impl@mod@csgo@aw@@IAEXAAUDrawModel@hk@45@@Z 1004a830 f   replicatedgamestate.obj
 0001:000498b0       ?OnReadPacketEntities@ReplicatedGameState@impl@mod@csgo@aw@@IAEXAAUReadPacketEntities@hk@45@@Z 1004a8b0 f   replicatedgamestate.obj
 0001:00049990       ?OnRemoveEntity@ReplicatedGameState@impl@mod@csgo@aw@@IAEXAAUOnRemoveEntityCallback@hk@45@@Z 1004a990 f   replicatedgamestate.obj
 0001:000499a0       ?OnSetupBonesEnd@ReplicatedGameState@impl@mod@csgo@aw@@IAEXAAUPlayerSetupBones@hk@45@@Z 1004a9a0 f   replicatedgamestate.obj
 0001:00049b40       ?OnSetupBonesStart@ReplicatedGameState@impl@mod@csgo@aw@@IAEXAAUPlayerSetupBones@hk@45@@Z 1004ab40 f   replicatedgamestate.obj
 0001:00049be0       ?RemovePlayer@ReplicatedGameState@impl@mod@csgo@aw@@IAEXPAVBaseEntity@sdk@45@@Z 1004abe0 f   replicatedgamestate.obj
 0001:00049cf0       ?SetServerTick@ReplicatedGameState@impl@mod@csgo@aw@@UAEXH@Z 1004acf0 f   replicatedgamestate.obj
 0001:00049d10       ?SetTickBase@ReplicatedGameState@impl@mod@csgo@aw@@UAEXH@Z 1004ad10 f   replicatedgamestate.obj
 0001:00049d30       ?_Assign_grow@?$_Hash_vec@V?$allocator@V?$_List_unchecked_iterator@V?$_List_val@U?$_List_simple_types@U?$pair@QAVCSPlayer@sdk@csgo@aw@@V?$unique_ptr@VReplicatedPlayer@mod@csgo@aw@@U?$default_delete@VReplicatedPlayer@mod@csgo@aw@@@std@@@std@@@std@@@std@@@std@@@std@@@std@@@std@@QAEXIV?$_List_unchecked_iterator@V?$_List_val@U?$_List_simple_types@U?$pair@QAVCSPlayer@sdk@csgo@aw@@V?$unique_ptr@VReplicatedPlayer@mod@csgo@aw@@U?$default_delete@VReplicatedPlayer@mod@csgo@aw@@@std@@@std@@@std@@@std@@@std@@@2@@Z 1004ad30 f i replicatedgamestate.obj
 0001:00049e00       ?_Forced_rehash@?$_Hash@V?$_Umap_traits@PAVCSPlayer@sdk@csgo@aw@@V?$unique_ptr@VReplicatedPlayer@mod@csgo@aw@@U?$default_delete@VReplicatedPlayer@mod@csgo@aw@@@std@@@std@@V?$_Uhash_compare@PAVCSPlayer@sdk@csgo@aw@@U?$hash@PAVCSPlayer@sdk@csgo@aw@@@std@@U?$equal_to@PAVCSPlayer@sdk@csgo@aw@@@6@@6@V?$allocator@U?$pair@QAVCSPlayer@sdk@csgo@aw@@V?$unique_ptr@VReplicatedPlayer@mod@csgo@aw@@U?$default_delete@VReplicatedPlayer@mod@csgo@aw@@@std@@@std@@@std@@@6@$0A@@std@@@std@@IAEXI@Z 1004ae00 f i replicatedgamestate.obj
 0001:00049f60       ?_Xlength@?$vector@UShotMatrix@ReplicatedGameState@mod@csgo@aw@@V?$allocator@UShotMatrix@ReplicatedGameState@mod@csgo@aw@@@std@@@std@@CAXXZ 1004af60 f i replicatedgamestate.obj
 0001:00049f70       ?__offset_GetNetworkAngles@BaseEntity@sdk@csgo@aw@@QAEHXZ 1004af70 f i replicatedgamestate.obj
 0001:00049fa0       ??0ReplicatedLocalPlayer@mod@csgo@aw@@QAE@PAVCSPlayer@sdk@23@@Z 1004afa0 f   replicatedlocalplayer.obj
 0001:0004a1c0       ??_EReplicatedLocalPlayer@mod@csgo@aw@@UAEPAXI@Z 1004b1c0 f i replicatedlocalplayer.obj
 0001:0004a1c0       ??_GReplicatedLocalPlayer@mod@csgo@aw@@UAEPAXI@Z 1004b1c0 f i replicatedlocalplayer.obj
 0001:0004a220       ?CalcEyePosition@ReplicatedLocalPlayer@mod@csgo@aw@@QAEXAAVVector3@4@ABVEulerAngles@4@@Z 1004b220 f   replicatedlocalplayer.obj
 0001:0004a3a0       ?CalcTargetPitch@ReplicatedLocalPlayer@mod@csgo@aw@@QAEMXZ 1004b3a0 f   replicatedlocalplayer.obj
 0001:0004a550       ?CalcViewPosition@ReplicatedLocalPlayer@mod@csgo@aw@@QAEXAAVVector3@4@@Z 1004b550 f   replicatedlocalplayer.obj
 0001:0004a630       ?DoAnimationEvent@ReplicatedLocalPlayer@mod@csgo@aw@@IAEXW4PlayerAnimEvent_t@sdk@34@@Z 1004b630 f   replicatedlocalplayer.obj
 0001:0004a660       ?GetAbsAngles@ReplicatedLocalPlayer@mod@csgo@aw@@UAEAAVEulerAngles@4@XZ 1004b660 f i replicatedlocalplayer.obj
 0001:0004a670       ?GetAnimLayers@ReplicatedLocalPlayer@mod@csgo@aw@@UAEAAVReplicatedAnimLayers@234@XZ 1004b670 f i replicatedlocalplayer.obj
 0001:0004a680       ?GetEyeAngles@ReplicatedLocalPlayer@mod@csgo@aw@@UAEAAVEulerAngles@4@XZ 1004b680 f i replicatedlocalplayer.obj
 0001:0004a690       ?GetPoseParams@ReplicatedLocalPlayer@mod@csgo@aw@@UAEAAV?$array@M$0BI@@std@@XZ 1004b690 f i replicatedlocalplayer.obj
 0001:0004a6a0       ?GetType@ReplicatedLocalPlayer@mod@csgo@aw@@UAE?AW4ReplicatedType@234@XZ 1004b6a0 f i replicatedlocalplayer.obj
 0001:0004a6b0       ?PostDataUpdate@ReplicatedLocalPlayer@mod@csgo@aw@@UAEXW4DataUpdateType@sdk@34@@Z 1004b6b0 f   replicatedlocalplayer.obj
 0001:0004a700       ?PostMove@ReplicatedLocalPlayer@mod@csgo@aw@@QAEXPAVUserCmd@sdk@34@@Z 1004b700 f   replicatedlocalplayer.obj
 0001:0004a740       ?PostThink@ReplicatedLocalPlayer@mod@csgo@aw@@QAEXHAAVEulerAngles@4@_N11@Z 1004b740 f   replicatedlocalplayer.obj
 0001:0004ab50       ?PreMove@ReplicatedLocalPlayer@mod@csgo@aw@@QAEXPAVUserCmd@sdk@34@@Z 1004bb50 f   replicatedlocalplayer.obj
 0001:0004abf0       ?ResimulatePredictedFrame@ReplicatedLocalPlayer@mod@csgo@aw@@QAEXH@Z 1004bbf0 f   replicatedlocalplayer.obj
 0001:0004ac40       ?RestoreEntityToPredictedFrame@ReplicatedLocalPlayer@mod@csgo@aw@@QAEXH@Z 1004bc40 f   replicatedlocalplayer.obj
 0001:0004acb0       ?SetupFakeBones@ReplicatedLocalPlayer@mod@csgo@aw@@QAEXPAVMatrix3x4@4@@Z 1004bcb0 f   replicatedlocalplayer.obj
 0001:0004ad30       ?__offset_IsInReload@BaseCombatWeapon@sdk@csgo@aw@@QAEHXZ 1004bd30 f i replicatedlocalplayer.obj
 0001:0004ad60       ??0ReplicatedBoneState@mod@csgo@aw@@QAE@XZ 1004bd60 f i replicatedplayer.obj
 0001:0004b000       ??0ReplicatedPlayer@mod@csgo@aw@@QAE@PAVCSPlayer@sdk@23@@Z 1004c000 f   replicatedplayer.obj
 0001:0004b1d0       ??1ReplicatedPlayer@mod@csgo@aw@@UAE@XZ 1004c1d0 f   replicatedplayer.obj
 0001:0004b270       ??_EReplicatedPlayer@mod@csgo@aw@@UAEPAXI@Z 1004c270 f i replicatedplayer.obj
 0001:0004b270       ??_GReplicatedPlayer@mod@csgo@aw@@UAEPAXI@Z 1004c270 f i replicatedplayer.obj
 0001:0004b330       ?AnimLayerUpdate@ReplicatedPlayer@mod@csgo@aw@@UAEXAAUAnimLayerVar@hk@34@@Z 1004c330 f   replicatedplayer.obj
 0001:0004b370       ?AnimLayerUpdate@ReplicatedPlayer@mod@csgo@aw@@UAEXHPAVRecvProxyData@sdk@34@@Z 1004c370 f   replicatedplayer.obj
 0001:0004b3d0       ?GetAbsAngles@ReplicatedPlayer@mod@csgo@aw@@UAEAAVEulerAngles@4@XZ 1004c3d0 f i replicatedplayer.obj
 0001:0004b3e0       ?GetAnimLayers@ReplicatedPlayer@mod@csgo@aw@@UAEAAVReplicatedAnimLayers@234@XZ 1004c3e0 f i replicatedplayer.obj
 0001:0004b3f0       ?GetEyeAngles@ReplicatedPlayer@mod@csgo@aw@@UAEAAVEulerAngles@4@XZ 1004c3f0 f i replicatedplayer.obj
 0001:0004b400       ?GetPoseParams@ReplicatedPlayer@mod@csgo@aw@@UAEAAV?$array@M$0BI@@std@@XZ 1004c400 f i replicatedplayer.obj
 0001:0004b410       ?PostDataUpdate@ReplicatedPlayer@mod@csgo@aw@@UAEXW4DataUpdateType@sdk@34@@Z 1004c410 f   replicatedplayer.obj
 0001:0004b420       ?PostDataUpdateEnd@ReplicatedPlayer@mod@csgo@aw@@UAEXXZ 1004c420 f   replicatedplayer.obj
 0001:0004b430       ?PostDataUpdateStart@ReplicatedPlayer@mod@csgo@aw@@UAE_NXZ 1004c430 f   replicatedplayer.obj
 0001:0004b460       ?SetupBones@ReplicatedPlayer@mod@csgo@aw@@QAEXPAVMatrix3x4@4@HH@Z 1004c460 f   replicatedplayer.obj
 0001:0004b670       ??$_Resize_reallocate@U_Value_init_tag@std@@@?$vector@VAttachmentData@sdk@csgo@aw@@V?$allocator@VAttachmentData@sdk@csgo@aw@@@std@@@std@@AAEXIABU_Value_init_tag@1@@Z 1004c670 f i replicatedbonestate.obj
 0001:0004b7c0       ??0ReplicatedBoneStateBackup@mod@csgo@aw@@QAE@PAVReplicatedBoneState@123@@Z 1004c7c0 f   replicatedbonestate.obj
 0001:0004b8d0       ??0ReplicatedPlayerLock@mod@csgo@aw@@QAE@PAVReplicatedBoneState@123@PAVCSPlayer@sdk@23@MM@Z 1004c8d0 f   replicatedbonestate.obj
 0001:0004b920       ??0ReplicatedPlayerLock@mod@csgo@aw@@QAE@PAVReplicatedBoneState@123@PAVModelHdr@sdk@23@1MM@Z 1004c920 f   replicatedbonestate.obj
 0001:0004b970       ??1ReplicatedBoneStateBackup@mod@csgo@aw@@QAE@XZ 1004c970 f   replicatedbonestate.obj
 0001:0004ba00       ??1ReplicatedPlayerLock@mod@csgo@aw@@QAE@XZ 1004ca00 f   replicatedbonestate.obj
 0001:0004ba20       ??Bmatrix3x4_t@sdk@csgo@aw@@QAE?AVMatrix3x4@3@XZ 1004ca20 f i replicatedbonestate.obj
 0001:0004ba40       ?CalculateIKLocks@ReplicatedBoneState@mod@csgo@aw@@IAEXABVVector3@4@ABVEulerAngles@4@@Z 1004ca40 f   replicatedbonestate.obj
 0001:0004bca0       ?ClampBonesBoundingBox@ReplicatedBoneState@mod@csgo@aw@@IAEXPAVMatrix3x4@4@HABVVector3@4@ABVEulerAngles@4@@Z 1004cca0 f   replicatedbonestate.obj
 0001:0004c350       ?GetAttachment@ModelHdr@sdk@csgo@aw@@QAEAAUStudioAttachment@234@H@Z 1004d350 f i replicatedbonestate.obj
 0001:0004c3b0       ?GetLayerSequenceCycleRate@ReplicatedBoneState@mod@csgo@aw@@QAEMPAVAnimationLayer@sdk@34@HAAV?$array@M$0BI@@std@@@Z 1004d3b0 f   replicatedbonestate.obj
 0001:0004c400       ?GetSkeleton@ReplicatedBoneState@mod@csgo@aw@@IAEXPAVModelHdr@sdk@34@QAVVector3@4@QAVQuaternionAligned@4@HABV74@ABVEulerAngles@4@AAV?$array@M$0BI@@std@@AAVReplicatedAnimLayers@234@@Z 1004d400 f   replicatedbonestate.obj
 0001:0004ca20       ?Init@BoneMergeCache@mod@csgo@aw@@QAEXPAVModelHdr@sdk@34@0@Z 1004da20 f   replicatedbonestate.obj
 0001:0004cd80       ?IsValid@ReplicatedBoneState@mod@csgo@aw@@QAE_NXZ 1004dd80 f   replicatedbonestate.obj
 0001:0004cda0       ?SetupBones@ReplicatedBoneState@mod@csgo@aw@@QAEXABVVector3@4@ABVEulerAngles@4@1AAV?$array@M$0BI@@std@@AAVReplicatedAnimLayers@234@PAVMatrix3x4@4@H@Z 1004dda0 f   replicatedbonestate.obj
 0001:0004cf10       ?SetupBones_AttachmentHelper@ReplicatedBoneState@mod@csgo@aw@@QAEXPAVMatrix3x4@4@AAV?$vector@VAttachmentData@sdk@csgo@aw@@V?$allocator@VAttachmentData@sdk@csgo@aw@@@std@@@std@@@Z 1004df10 f   replicatedbonestate.obj
 0001:0004d250       ?SetupBones_DispatchOnly@ReplicatedBoneState@mod@csgo@aw@@QAEXAAVReplicatedAnimLayers@234@@Z 1004e250 f   replicatedbonestate.obj
 0001:0004d2c0       ?UpdateDispatchLayer@ReplicatedBoneState@mod@csgo@aw@@IAE_NPAVAnimationLayer@sdk@34@PAVModelHdr@634@H@Z 1004e2c0 f   replicatedbonestate.obj
 0001:0004d3f0       ?UpdateFromCSPlayer@ReplicatedBoneState@mod@csgo@aw@@QAEXPAVCSPlayer@sdk@34@MM@Z 1004e3f0 f   replicatedbonestate.obj
 0001:0004dbb0       ?UpdateFromCustom@ReplicatedBoneState@mod@csgo@aw@@QAEXPAVModelHdr@sdk@34@0MM@Z 1004ebb0 f   replicatedbonestate.obj
 0001:0004df10       ?_Xlength@?$vector@VAttachmentData@sdk@csgo@aw@@V?$allocator@VAttachmentData@sdk@csgo@aw@@@std@@@std@@CAXXZ 1004ef10 f i replicatedbonestate.obj
 0001:0004df20       ?__offset_GetEncodedController@BaseAnimating@sdk@csgo@aw@@QAEHXZ 1004ef20 f i replicatedbonestate.obj
 0001:0004df50       ??0ReplicatedTeamPlayer@mod@csgo@aw@@QAE@PAVCSPlayer@sdk@23@@Z 1004ef50 f   replicatedteamplayer.obj
 0001:0004dfa0       ??_EReplicatedTeamPlayer@mod@csgo@aw@@UAEPAXI@Z 1004efa0 f i replicatedteamplayer.obj
 0001:0004dfa0       ??_GReplicatedTeamPlayer@mod@csgo@aw@@UAEPAXI@Z 1004efa0 f i replicatedteamplayer.obj
 0001:0004dfd0       ?GetType@ReplicatedTeamPlayer@mod@csgo@aw@@UAE?AW4ReplicatedType@234@XZ 1004efd0 f i replicatedteamplayer.obj
 0001:0004dfe0       ??$?HDU?$char_traits@D@std@@V?$allocator@D@1@@std@@YA?AV?$basic_string@DU?$char_traits@D@std@@V?$allocator@D@2@@0@$$QAV10@QBD@Z 1004efe0 f i shotanalysis.obj
 0001:0004e030       ??$FormatString@AAV?$basic_string@DU?$char_traits@D@std@@V?$allocator@D@2@@std@@@aw@@YA?AV?$basic_string@DU?$char_traits@D@std@@V?$allocator@D@2@@std@@V?$basic_format_string@DAAV?$basic_string@DU?$char_traits@D@std@@V?$allocator@D@2@@std@@@v9@fmt@@AAV12@@Z 1004f030 f i shotanalysis.obj
 0001:0004e090       ??$FormatString@AAY0IA@DV?$basic_string@DU?$char_traits@D@std@@V?$allocator@D@2@@std@@AAV12@@aw@@YA?AV?$basic_string@DU?$char_traits@D@std@@V?$allocator@D@2@@std@@V?$basic_format_string@DAAY0IA@DV?$basic_string@DU?$char_traits@D@std@@V?$allocator@D@2@@std@@AAV12@@v9@fmt@@AAY0IA@D$$QAV12@AAV12@@Z 1004f090 f i shotanalysis.obj
 0001:0004e120       ??$FormatString@PBDV?$basic_string@DU?$char_traits@D@std@@V?$allocator@D@2@@std@@@aw@@YA?AV?$basic_string@DU?$char_traits@D@std@@V?$allocator@D@2@@std@@V?$basic_format_string@DPBDV?$basic_string@DU?$char_traits@D@std@@V?$allocator@D@2@@std@@@v9@fmt@@$$QAPBD$$QAV12@@Z 1004f120 f i shotanalysis.obj
 0001:0004e190       ??$_Reallocate_grow_by@V<lambda_1>@?1??append@?$basic_string@DU?$char_traits@D@std@@V?$allocator@D@2@@std@@QAEAAV34@QBDI@Z@PBDI@?$basic_string@DU?$char_traits@D@std@@V?$allocator@D@2@@std@@AAEAAV01@IV<lambda_1>@?1??append@01@QAEAAV01@QBDI@Z@PBDI@Z 1004f190 f i shotanalysis.obj
 0001:0004e2d0       ??0ShotAnalysis@impl@mod@csgo@aw@@QAE@XZ 1004f2d0 f i shotanalysis.obj
 0001:0004e4d0       ??4?$basic_string@DU?$char_traits@D@std@@V?$allocator@D@2@@std@@QAEAAV01@QBD@Z 1004f4d0 f i shotanalysis.obj
 0001:0004e500       ??_E?$ModuleBaseImpl@VShotAnalysis@mod@csgo@aw@@V?$TypedObject@VShotAnalysis@mod@csgo@aw@@VModuleBase@4@@4@@aw@@UAEPAXI@Z 1004f500 f i shotanalysis.obj
 0001:0004e500       ??_G?$ModuleBaseImpl@VShotAnalysis@mod@csgo@aw@@V?$TypedObject@VShotAnalysis@mod@csgo@aw@@VModuleBase@4@@4@@aw@@UAEPAXI@Z 1004f500 f i shotanalysis.obj
 0001:0004e530       ??_EShotAnalysis@impl@mod@csgo@aw@@UAEPAXI@Z 1004f530 f i shotanalysis.obj
 0001:0004e530       ??_GShotAnalysis@impl@mod@csgo@aw@@UAEPAXI@Z 1004f530 f i shotanalysis.obj
 0001:0004e560       ?CreateModule@?$ModuleWithFactory@VShotAnalysis@mod@csgo@aw@@@aw@@SAPAVShotAnalysis@mod@csgo@2@XZ 1004f560 f   shotanalysis.obj
 0001:0004e590       ?GetCSPlayer@sdk@csgo@aw@@YAPAVCSPlayer@123@H@Z 1004f590 f i shotanalysis.obj
 0001:0004e5d0       ?GetId@?$TypedObject@VShotAnalysis@mod@csgo@aw@@VModuleBase@4@@aw@@UAEIXZ 1004f5d0 f i shotanalysis.obj
 0001:0004e5e0       ?GetLastShot@ShotAnalysis@impl@mod@csgo@aw@@UAEPAUShotLog@345@_N@Z 1004f5e0 f   shotanalysis.obj
 0001:0004e650       ?GetLogs@ShotAnalysis@impl@mod@csgo@aw@@UAEAAV?$CircularBuffer@UShotLog@mod@csgo@aw@@$0CA@@5@XZ 1004f650 f i shotanalysis.obj
 0001:0004e660       ?LogOtherShot@ShotAnalysis@impl@mod@csgo@aw@@IAEXPAVGameEvent@sdk@45@HH@Z 1004f660 f   shotanalysis.obj
 0001:0004fb40       ?OnFinishMove@ShotAnalysis@impl@mod@csgo@aw@@IAEXAAULocalFinishMove@345@@Z 10050b40 f   shotanalysis.obj
 0001:0004fd60       ?OnGameEvent@ShotAnalysis@impl@mod@csgo@aw@@IAEXAAUGameEvent@hk@45@@Z 10050d60 f   shotanalysis.obj
 0001:00050860       ?OnPostDataUpdate@ShotAnalysis@impl@mod@csgo@aw@@IAEXAAUPlayerPostDataUpdate@hk@45@@Z 10051860 f   shotanalysis.obj
 0001:000508f0       ?ShotDistanceToHitboxes@ShotAnalysis@impl@mod@csgo@aw@@IAEMPAUShotLog@345@PAUStudioHitboxSet@sdk@45@PAVMatrix3x4@5@@Z 100518f0 f   shotanalysis.obj
 0001:00050a50       ?append@?$basic_string@DU?$char_traits@D@std@@V?$allocator@D@2@@std@@QAEAAV12@ABV12@@Z 10051a50 f i shotanalysis.obj
 0001:00050ac0       ?append@?$basic_string@DU?$char_traits@D@std@@V?$allocator@D@2@@std@@QAEAAV12@QBD@Z 10051ac0 f i shotanalysis.obj
 0001:00050b30       ??0Edge@dt@@QAE@AAUVector2@1@0@Z 10051b30 f   edge.obj
 0001:00050b50       ?almost_equal@dt@@YA_NABUEdge@1@0@Z 10051b50 f   edge.obj
 0001:00050bb0       ??$_Emplace_reallocate@UEdge@dt@@@?$vector@UEdge@dt@@V?$allocator@UEdge@dt@@@std@@@std@@AAEPAUEdge@dt@@QAU23@$$QAU23@@Z 10051bb0 f i delaunay.obj
 0001:00050d40       ??$_Emplace_reallocate@UTriangle@dt@@@?$vector@UTriangle@dt@@V?$allocator@UTriangle@dt@@@std@@@std@@AAEPAUTriangle@dt@@QAU23@$$QAU23@@Z 10051d40 f i delaunay.obj
 0001:00050ed0       ?_Xlength@?$vector@UEdge@dt@@V?$allocator@UEdge@dt@@@std@@@std@@CAXXZ 10051ed0 f i delaunay.obj
 0001:00050ee0       ?_Xlength@?$vector@UTriangle@dt@@V?$allocator@UTriangle@dt@@@std@@@std@@CAXXZ 10051ee0 f i delaunay.obj
 0001:00050ef0       ?triangulate@Delaunay@dt@@QAEAAV?$vector@UTriangle@dt@@V?$allocator@UTriangle@dt@@@std@@@std@@AAV?$vector@UVector2@dt@@V?$allocator@UVector2@dt@@@std@@@4@@Z 10051ef0 f   delaunay.obj
 0001:000516e0       ?almost_equal@dt@@YA_NMMH@Z 100526e0 f   numeric.obj
 0001:00051730       ?half@dt@@YAMM@Z           10052730 f   numeric.obj
 0001:00051740       ??0Triangle@dt@@QAE@AAUVector2@1@00@Z 10052740 f   triangle.obj
 0001:00051760       ?circumCircleContains@Triangle@dt@@QBE_NABUVector2@2@@Z 10052760 f   triangle.obj
 0001:00051900       ?containsVertex@Triangle@dt@@QBE_NABUVector2@2@@Z 10052900 f   triangle.obj
 0001:00051950       ??0Vector2@dt@@QAE@MM@Z    10052950 f   vector2.obj
 0001:00051970       ?almost_equal@dt@@YA_NABUVector2@1@0H@Z 10052970 f   vector2.obj
 0001:000519e0       ?dist2@Vector2@dt@@QBEMABU12@@Z 100529e0 f   vector2.obj
 0001:00051a10       ?norm2@Vector2@dt@@QBEMXZ  10052a10 f   vector2.obj
 0001:00051a30       ??$_Guess_median_unchecked@PAMU?$less@X@std@@@std@@YAXPAM00U?$less@X@0@@Z 10052a30 f i tracehitchance.obj
 0001:00051bb0       ??$_Pop_heap_hole_by_index@PAMMU?$less@X@std@@@std@@YAXPAMHH$$QAMU?$less@X@0@@Z 10052bb0 f i tracehitchance.obj
 0001:00051c50       ??$_Sort_unchecked@PAMU?$less@X@std@@@std@@YAXPAM0HU?$less@X@0@@Z 10052c50 f i tracehitchance.obj
 0001:00051f90       ?GetSpreadAtDistance@TraceHitChance@mod@csgo@aw@@QAEMM@Z 10052f90 f   tracehitchance.obj
 0001:00051fa0       ?GetSpreadMaxAtDistance@TraceHitChance@mod@csgo@aw@@QAEMM@Z 10052fa0 f   tracehitchance.obj
 0001:00051fb0       ?IsWeaponMostAccurate@TraceHitChance@mod@csgo@aw@@QAE_NXZ 10052fb0 f   tracehitchance.obj
 0001:00051fc0       ?_Change_array@?$vector@USpreadCache@TraceHitChance@mod@csgo@aw@@V?$allocator@USpreadCache@TraceHitChance@mod@csgo@aw@@@std@@@std@@AAEXQAUSpreadCache@TraceHitChance@mod@csgo@aw@@II@Z 10052fc0 f i tracehitchance.obj
 0001:00052030       ?_Xlength@?$vector@MV?$allocator@M@std@@@std@@CAXXZ 10053030 f i tracehitchance.obj
 0001:00052040       ?_Xlength@?$vector@USpreadCache@TraceHitChance@mod@csgo@aw@@V?$allocator@USpreadCache@TraceHitChance@mod@csgo@aw@@@std@@@std@@CAXXZ 10053040 f i tracehitchance.obj
 0001:00052050       ?allocate@?$allocator@M@std@@QAEPAMI@Z 10053050 f i tracehitchance.obj
 0001:000520b0       ?allocate@?$allocator@USpreadCache@TraceHitChance@mod@csgo@aw@@@std@@QAEPAUSpreadCache@TraceHitChance@mod@csgo@aw@@I@Z 100530b0 f i tracehitchance.obj
 0001:00052110       ?ClipTraceToTeammates@TraceBullet@mod@csgo@aw@@IAEXABURay@sdk@34@PAVTrace@634@MMPA_NM@Z 10053110 f   tracebullet.obj
 0001:00052300       ?Get@IPhysicsSurfaceProps@sdk@csgo@aw@@SAPAV1234@XZ 10053300 f i tracebullet.obj
 0001:00052310       ?GetDynamic@IPhysicsSurfaceProps@sdk@csgo@aw@@SAPAV1234@XZ 10053310 f i tracebullet.obj
 0001:00052330       ?GetPointContents@TraceBullet@mod@csgo@aw@@IAEHABVVector3@4@H@Z 10053330 f   tracebullet.obj
 0001:00052450       ?HandleBulletPenetration@TraceBullet@mod@csgo@aw@@IAE_NAAVTrace@sdk@34@@Z 10053450 f   tracebullet.obj
 0001:000527e0       ?Init@TraceBullet@mod@csgo@aw@@UAE_NPAVCSPlayer@sdk@34@@Z 100537e0 f   tracebullet.obj
 0001:00052810       ?Init@TraceBullet@mod@csgo@aw@@UAE_NPAVCSPlayer@sdk@34@PAVWeaponCSBase@634@@Z 10053810 f   tracebullet.obj
 0001:00052860       ?Process@TraceBullet@mod@csgo@aw@@UAE_NABVVector3@4@0I@Z 10053860 f   tracebullet.obj
 0001:00052990       ?SetupAttackerHitboxInfo@TraceBullet@mod@csgo@aw@@IAEXXZ 10053990 f   tracebullet.obj
 0001:00052b60       ?ShouldIgnoreEntity@TraceBullet@mod@csgo@aw@@SA_NPAVHandleEntity@sdk@34@@Z 10053b60 f   tracebullet.obj
 0001:00052ba0       ?TraceAccurate@TraceBullet@mod@csgo@aw@@IAE_NXZ 10053ba0 f   tracebullet.obj
 0001:00052f20       ?TraceToExit@TraceBullet@mod@csgo@aw@@IAE_NAAVTrace@sdk@34@0@Z 10053f20 f   tracebullet.obj
 0001:00053300       ?GetTraceType@TraceBulletFilter@mod@csgo@aw@@UAE?AW4TraceType@sdk@34@XZ 10054300 f   tracebulletfilter.obj
 0001:00053310       ?GetTraceType@TraceBulletFilterHitAll@mod@csgo@aw@@UAE?AW4TraceType@sdk@34@XZ 10054310 f   tracebulletfilter.obj
 0001:00053320       ?ShouldHitEntity@TraceBulletFilter@mod@csgo@aw@@UAE_NPAVHandleEntity@sdk@34@H@Z 10054320 f   tracebulletfilter.obj
 0001:00053350       ?ShouldHitEntity@TraceBulletFilterHitAll@mod@csgo@aw@@UAE_NPAVHandleEntity@sdk@34@H@Z 10054350 f   tracebulletfilter.obj
 0001:00053370       ??$_Find_lower_bound@PAVBaseEntity@sdk@csgo@aw@@@?$_Tree@V?$_Tset_traits@PAVBaseEntity@sdk@csgo@aw@@U?$less@PAVBaseEntity@sdk@csgo@aw@@@std@@V?$allocator@PAVBaseEntity@sdk@csgo@aw@@@6@$0A@@std@@@std@@IBE?AU?$_Tree_find_result@PAU?$_Tree_node@PAVBaseEntity@sdk@csgo@aw@@PAX@std@@@1@ABQAVBaseEntity@sdk@csgo@aw@@@Z 10054370 f i tracegrenade.obj
 0001:000533c0       ?CalcDistanceToTarget@TraceGrenade@mod@csgo@aw@@QAEMXZ 100543c0 f   tracegrenade.obj
 0001:00053940       ?CalcStartParameters@TraceGrenade@mod@csgo@aw@@MAEXAAVVector3@4@0@Z 10054940 f   tracegrenade.obj
 0001:00053d40       ?GetTraceType@TraceGrenadeFilter@mod@csgo@aw@@UAE?AW4TraceType@sdk@34@XZ 10054d40 f   tracegrenade.obj
 0001:00053d50       ?Init@TraceGrenade@mod@csgo@aw@@QAE_NPAVBaseCSGrenadeProjectile@sdk@34@@Z 10054d50 f   tracegrenade.obj
 0001:00053dd0       ?Init@TraceGrenade@mod@csgo@aw@@QAE_NPAVCSPlayer@sdk@34@@Z 10054dd0 f   tracegrenade.obj
 0001:00053e50       ?Process@TraceGrenade@mod@csgo@aw@@QAEXXZ 10054e50 f   tracegrenade.obj
 0001:000543e0       ?PushEntity@TraceGrenade@mod@csgo@aw@@IAEXABVVector3@4@PAVTrace@sdk@34@@Z 100553e0 f   tracegrenade.obj
 0001:00054510       ?ShouldHitEntity@TraceGrenadeFilter@mod@csgo@aw@@UAE_NPAVBaseEntity@sdk@34@H@Z 10055510 f   tracegrenade.obj
 0001:00054570       ?_Insert_node@?$_Tree_val@U?$_Tree_simple_types@PAVBaseEntity@sdk@csgo@aw@@@std@@@std@@QAEPAU?$_Tree_node@PAVBaseEntity@sdk@csgo@aw@@PAX@2@U?$_Tree_id@PAU?$_Tree_node@PAVBaseEntity@sdk@csgo@aw@@PAX@std@@@2@QAU32@@Z 10055570 f i tracegrenade.obj
 0001:00054760       ?clear@?$_Tree@V?$_Tset_traits@PAVBaseEntity@sdk@csgo@aw@@U?$less@PAVBaseEntity@sdk@csgo@aw@@@std@@V?$allocator@PAVBaseEntity@sdk@csgo@aw@@@6@$0A@@std@@@std@@QAEXXZ 10055760 f i tracegrenade.obj
 0001:000547b0       ??0TraceHideDirection@mod@csgo@aw@@QAE@PAVCSPlayer@sdk@23@ABVVector3@3@@Z 100557b0 f   tracehidedirection.obj
 0001:000547d0       ?_Xlength@?$vector@U?$pair@VVector2@aw@@V12@@std@@V?$allocator@U?$pair@VVector2@aw@@V12@@std@@@2@@std@@CAXXZ 100557d0 f i tracehidedirection.obj
 0001:000547e0       ?AddScanMatrix@TraceHitboxScan@mod@csgo@aw@@QAEXPAVMatrix3x4@4@@Z 100557e0 f   tracehitboxscan.obj
 0001:00054800       ?AddShootPos@TraceHitboxScan@mod@csgo@aw@@QAEXABVVector3@4@@Z 10055800 f   tracehitboxscan.obj
 0001:00054830       ?GetHitboxTransform@TraceHitboxScan@mod@csgo@aw@@SAXPAUStudioHitbox@sdk@34@PAVMatrix3x4@4@AAV74@@Z 10055830 f   tracehitboxscan.obj
 0001:000548f0       ?Init@TraceHitboxScan@mod@csgo@aw@@QAEXPAVCSPlayer@sdk@34@PAVWeaponCSBase@634@ABVVector3@4@0PAVMatrix3x4@4@@Z 100558f0 f   tracehitboxscan.obj
 0001:00054950       ?Process@TraceHitboxScan@mod@csgo@aw@@QAEXPAUStudioHitbox@sdk@34@PAUStudioHitboxSet@634@PAVTraceHitChance@234@_N3@Z 10055950 f   tracehitboxscan.obj
 0001:000559e0       ?CalcDamage@TraceKnifeAttack@mod@csgo@aw@@QAEH_N0@Z 100569e0 f   traceknifeattack.obj
 0001:00055aa0       ?Init@TraceKnifeAttack@mod@csgo@aw@@QAE_NPAVAimbotBase@234@AAULocalPostMove@234@@Z 10056aa0 f   traceknifeattack.obj
 0001:00055b00       ?SwingAnyPlayer@TraceKnifeAttack@mod@csgo@aw@@QAEXPAVUserCmd@sdk@34@M@Z 10056b00 f   traceknifeattack.obj
 0001:00055d10       ?SwingPlayer@TraceKnifeAttack@mod@csgo@aw@@QAE?AW4TraceKnifeResult@234@AAVEulerAngles@4@PAVCSPlayer@sdk@34@W4RageKnifebotMode@ui@34@PAUReplicatedRecord@234@@Z 10056d10 f   traceknifeattack.obj
 0001:00055fe0       ?TraceKnife@TraceKnifeAttack@mod@csgo@aw@@QAE?AW4TraceKnifeResult@234@PAVCSPlayer@sdk@34@ABVVector3@4@_NPAUReplicatedRecord@234@@Z 10056fe0 f   traceknifeattack.obj
 0001:00056340       ?OnBulletExit@TraceWallbang@mod@csgo@aw@@UAE_NPAVTrace@sdk@34@@Z 10057340 f   tracewallbang.obj
 0001:00056350       ?OnBulletHit@TraceWallbang@mod@csgo@aw@@UAE_NPAVTrace@sdk@34@@Z 10057350 f   tracewallbang.obj
 0001:00056390       ?OnBulletTravel@TraceWallbang@mod@csgo@aw@@UAE_NMPAVTrace@sdk@34@@Z 10057390 f   tracewallbang.obj
 0001:000563c0       ?Process@TraceWallbang@mod@csgo@aw@@UAE_NABVVector3@4@0I@Z 100573c0 f   tracewallbang.obj
 0001:000563e0       ??_E?$ModuleBaseImpl@VCamera@mod@csgo@aw@@V?$TypedObject@VCamera@mod@csgo@aw@@VModuleBase@4@@4@@aw@@UAEPAXI@Z 100573e0 f i camera.obj
 0001:000563e0       ??_G?$ModuleBaseImpl@VCamera@mod@csgo@aw@@V?$TypedObject@VCamera@mod@csgo@aw@@VModuleBase@4@@4@@aw@@UAEPAXI@Z 100573e0 f i camera.obj
 0001:00056410       ??_ECamera@impl@mod@csgo@aw@@UAEPAXI@Z 10057410 f i camera.obj
 0001:00056410       ??_GCamera@impl@mod@csgo@aw@@UAEPAXI@Z 10057410 f i camera.obj
 0001:00056440       ?CreateModule@?$ModuleWithFactory@VCamera@mod@csgo@aw@@@aw@@SAPAVCamera@mod@csgo@2@XZ 10057440 f   camera.obj
 0001:000565d0       ?GetId@?$TypedObject@VCamera@mod@csgo@aw@@VModuleBase@4@@aw@@UAEIXZ 100575d0 f i camera.obj
 0001:000565e0       ?OnAllowThirdPersonCamera@Camera@impl@mod@csgo@aw@@IAEXAAUAllowThirdPersonCamera@hk@45@@Z 100575e0 f   camera.obj
 0001:00056610       ?OnFrame@Camera@impl@mod@csgo@aw@@IAEXAAURenderFrame@gfx@5@@Z 10057610 f   camera.obj
 0001:00056750       ?OnOverrideView@Camera@impl@mod@csgo@aw@@IAEXAAUOverrideView@hk@45@@Z 10057750 f   camera.obj
 0001:00056970       ?OnPostCalcView@Camera@impl@mod@csgo@aw@@IAEXAAUPlayerCalcView@hk@45@@Z 10057970 f   camera.obj
 0001:000569f0       ?OnPreCalcView@Camera@impl@mod@csgo@aw@@IAEXAAUPlayerCalcView@hk@45@@Z 100579f0 f   camera.obj
 0001:00056aa0       ??$_Emplace_reallocate@PAVMaterial@sdk@csgo@aw@@@?$vector@PAVMaterial@sdk@csgo@aw@@V?$allocator@PAVMaterial@sdk@csgo@aw@@@std@@@std@@AAEPAPAVMaterial@sdk@csgo@aw@@QAPAV2345@$$QAPAV2345@@Z 10057aa0 f i gamevisuals.obj
 0001:00056be0       ??_E?$ModuleBaseImpl@VGameVisuals@mod@csgo@aw@@V?$TypedObject@VGameVisuals@mod@csgo@aw@@VModuleBase@4@@4@@aw@@UAEPAXI@Z 10057be0 f i gamevisuals.obj
 0001:00056be0       ??_G?$ModuleBaseImpl@VGameVisuals@mod@csgo@aw@@V?$TypedObject@VGameVisuals@mod@csgo@aw@@VModuleBase@4@@4@@aw@@UAEPAXI@Z 10057be0 f i gamevisuals.obj
 0001:00056c10       ??_EGameVisuals@impl@mod@csgo@aw@@UAEPAXI@Z 10057c10 f i gamevisuals.obj
 0001:00056c10       ??_GGameVisuals@impl@mod@csgo@aw@@UAEPAXI@Z 10057c10 f i gamevisuals.obj
 0001:00056c40       ?ApplySkyMaterialSuppression@GameVisuals@impl@mod@csgo@aw@@IAEX_N@Z 10057c40 f   gamevisuals.obj
 0001:000573b0       ?CreateModule@?$ModuleWithFactory@VGameVisuals@mod@csgo@aw@@@aw@@SAPAVGameVisuals@mod@csgo@2@XZ 100583b0 f   gamevisuals.obj
 0001:00057500       ?Get@MaterialSystem@sdk@csgo@aw@@SAPAV1234@XZ 10058500 f i gamevisuals.obj
 0001:00057510       ?GetId@?$TypedObject@VGameVisuals@mod@csgo@aw@@VModuleBase@4@@aw@@UAEIXZ 10058510 f i gamevisuals.obj
 0001:00057520       ?HandleCensorship@GameVisuals@impl@mod@csgo@aw@@IAEXXZ 10058520 f   gamevisuals.obj
 0001:00057640       ?HandleSkyColor@GameVisuals@impl@mod@csgo@aw@@IAEXXZ 10058640 f   gamevisuals.obj
 0001:00057880       ?OnDrawWorldLists@GameVisuals@impl@mod@csgo@aw@@IAEXAAUDrawWorldLists@hk@45@@Z 10058880 f   gamevisuals.obj
 0001:00057950       ?OnGameEvent@GameVisuals@impl@mod@csgo@aw@@IAEXAAUGameEvent@hk@45@@Z 10058950 f   gamevisuals.obj
 0001:00057970       ?OnPreRender@GameVisuals@impl@mod@csgo@aw@@IAEXAAURenderFrame@gfx@5@@Z 10058970 f   gamevisuals.obj
 0001:00057b10       ?_Xlength@?$vector@PAVMaterial@sdk@csgo@aw@@V?$allocator@PAVMaterial@sdk@csgo@aw@@@std@@@std@@CAXXZ 10058b10 f i gamevisuals.obj
 0001:00057b20       ??$_Assign_counted_range@PAUEventLogItem@impl@mod@csgo@aw@@@?$vector@UEventLogItem@impl@mod@csgo@aw@@V?$allocator@UEventLogItem@impl@mod@csgo@aw@@@std@@@std@@AAEXPAUEventLogItem@impl@mod@csgo@aw@@I@Z 10058b20 f i eventlog.obj
 0001:00057d40       ??$_Destroy_range@V?$allocator@UEventLogItem@impl@mod@csgo@aw@@@std@@@std@@YAXPAUEventLogItem@impl@mod@csgo@aw@@QAU12345@AAV?$allocator@UEventLogItem@impl@mod@csgo@aw@@@0@@Z 10058d40 f i eventlog.obj
 0001:00057da0       ??$_Emplace_reallocate@ABUEventLogItem@impl@mod@csgo@aw@@@?$vector@UEventLogItem@impl@mod@csgo@aw@@V?$allocator@UEventLogItem@impl@mod@csgo@aw@@@std@@@std@@AAEPAUEventLogItem@impl@mod@csgo@aw@@QAU23456@ABU23456@@Z 10058da0 f i eventlog.obj
 0001:00057f20       ??$_Move_unchecked@PAUEventLogItem@impl@mod@csgo@aw@@PAU12345@@std@@YAPAUEventLogItem@impl@mod@csgo@aw@@PAU12345@00@Z 10058f20 f i eventlog.obj
 0001:00057f80       ??$_Uninitialized_copy_n@PAUEventLogItem@impl@mod@csgo@aw@@V?$allocator@UEventLogItem@impl@mod@csgo@aw@@@std@@@std@@YAPAUEventLogItem@impl@mod@csgo@aw@@PAU12345@I0AAV?$allocator@UEventLogItem@impl@mod@csgo@aw@@@0@@Z 10058f80 f i eventlog.obj
 0001:00057fe0       ??$_Uninitialized_move@PAUEventLogItem@impl@mod@csgo@aw@@V?$allocator@UEventLogItem@impl@mod@csgo@aw@@@std@@@std@@YAPAUEventLogItem@impl@mod@csgo@aw@@QAU12345@0PAU12345@AAV?$allocator@UEventLogItem@impl@mod@csgo@aw@@@0@@Z 10058fe0 f i eventlog.obj
 0001:00058080       ??0EventLog@impl@mod@csgo@aw@@QAE@XZ 10059080 f i eventlog.obj
 0001:00058220       ??1?$vector@UEventLogItem@impl@mod@csgo@aw@@V?$allocator@UEventLogItem@impl@mod@csgo@aw@@@std@@@std@@QAE@XZ 10059220 f i eventlog.obj
 0001:00058290       ??4?$basic_string@DU?$char_traits@D@std@@V?$allocator@D@2@@std@@QAEAAV01@$$QAV01@@Z 10059290 f i eventlog.obj
 0001:00058300       ??_E?$ModuleBaseImpl@VEventLog@mod@csgo@aw@@V?$TypedObject@VEventLog@mod@csgo@aw@@VModuleBase@4@@4@@aw@@UAEPAXI@Z 10059300 f i eventlog.obj
 0001:00058300       ??_G?$ModuleBaseImpl@VEventLog@mod@csgo@aw@@V?$TypedObject@VEventLog@mod@csgo@aw@@VModuleBase@4@@4@@aw@@UAEPAXI@Z 10059300 f i eventlog.obj
 0001:00058330       ??_EEventLog@impl@mod@csgo@aw@@UAEPAXI@Z 10059330 f i eventlog.obj
 0001:00058330       ??_GEventLog@impl@mod@csgo@aw@@UAEPAXI@Z 10059330 f i eventlog.obj
 0001:00058380       ?CreateModule@?$ModuleWithFactory@VEventLog@mod@csgo@aw@@@aw@@SAPAVEventLog@mod@csgo@2@XZ 10059380 f   eventlog.obj
 0001:000583b0       ?GetId@?$TypedObject@VEventLog@mod@csgo@aw@@VModuleBase@4@@aw@@UAEIXZ 100593b0 f i eventlog.obj
 0001:000583c0       ?LimitPlayerInfoName@EventLog@impl@mod@csgo@aw@@UAEXPAUPlayerInfo@sdk@45@@Z 100593c0 f   eventlog.obj
 0001:000583f0       ?Msg@EventLog@impl@mod@csgo@aw@@UAEXUColor@gfx@5@V?$basic_string_view@DU?$char_traits@D@std@@@std@@@Z 100593f0 f   eventlog.obj
 0001:00058410       ?MsgEx@EventLog@impl@mod@csgo@aw@@UAEXW4EventLogFont@345@UColor@gfx@5@V?$basic_string_view@DU?$char_traits@D@std@@@std@@@Z 10059410 f   eventlog.obj
 0001:00058660       ?OnFireGameEvent@EventLog@impl@mod@csgo@aw@@IAEXAAUGameEvent@hk@45@@Z 10059660 f   eventlog.obj
 0001:00058cc0       ?OnGuiConsoleLog@EventLog@impl@mod@csgo@aw@@IAEXAAUCallbackGuiConsoleLog@ui@5@@Z 10059cc0 f   eventlog.obj
 0001:00058d20       ?OnRender@EventLog@impl@mod@csgo@aw@@IAEXAAURenderFrame@gfx@5@@Z 10059d20 f   eventlog.obj
 0001:000592e0       ?OnShutdown@EventLog@impl@mod@csgo@aw@@IAEXAAUCommonShutdown@5@@Z 1005a2e0 f   eventlog.obj
 0001:000592f0       ?_Xlength@?$vector@UEventLogItem@impl@mod@csgo@aw@@V?$allocator@UEventLogItem@impl@mod@csgo@aw@@@std@@@std@@CAXXZ 1005a2f0 f i eventlog.obj
 0001:00059300       ?allocate@?$allocator@UEventLogItem@impl@mod@csgo@aw@@@std@@QAEPAUEventLogItem@impl@mod@csgo@aw@@I@Z 1005a300 f i eventlog.obj
 0001:00059360       ??_E?$ModuleBaseImpl@VOverwatchRevealer@mod@csgo@aw@@V?$TypedObject@VOverwatchRevealer@mod@csgo@aw@@VModuleBase@4@@4@@aw@@UAEPAXI@Z 1005a360 f i overwatchrevealer.obj
 0001:00059360       ??_G?$ModuleBaseImpl@VOverwatchRevealer@mod@csgo@aw@@V?$TypedObject@VOverwatchRevealer@mod@csgo@aw@@VModuleBase@4@@4@@aw@@UAEPAXI@Z 1005a360 f i overwatchrevealer.obj
 0001:00059390       ??_EOverwatchRevealer@impl@mod@csgo@aw@@UAEPAXI@Z 1005a390 f i overwatchrevealer.obj
 0001:00059390       ??_GOverwatchRevealer@impl@mod@csgo@aw@@UAEPAXI@Z 1005a390 f i overwatchrevealer.obj
 0001:000593c0       ?CreateModule@?$ModuleWithFactory@VOverwatchRevealer@mod@csgo@aw@@@aw@@SAPAVOverwatchRevealer@mod@csgo@2@XZ 1005a3c0 f   overwatchrevealer.obj
 0001:000594f0       ?GetId@?$TypedObject@VOverwatchRevealer@mod@csgo@aw@@VModuleBase@4@@aw@@UAEIXZ 1005a4f0 f i overwatchrevealer.obj
 0001:00059500       ?OnGetDemoPlaybackParameters@OverwatchRevealer@impl@mod@csgo@aw@@IAEXAAUGetDemoPlaybackParameters@hk@45@@Z 1005a500 f   overwatchrevealer.obj
 0001:00059570       ?OnReadPacket@OverwatchRevealer@impl@mod@csgo@aw@@IAEXAAUReadPacket@hk@45@@Z 1005a570 f   overwatchrevealer.obj
 0001:000595c0       ??1ChamsMaterial@mod@csgo@aw@@UAE@XZ 1005a5c0 f   chamsmaterial.obj
 0001:000595e0       ??_EChamsMaterial@mod@csgo@aw@@UAEPAXI@Z 1005a5e0 f i chamsmaterial.obj
 0001:000595e0       ??_GChamsMaterial@mod@csgo@aw@@UAEPAXI@Z 1005a5e0 f i chamsmaterial.obj
 0001:00059610       ?Init@ChamsMaterial@mod@csgo@aw@@UAE_NPBD0@Z 1005a610 f   chamsmaterial.obj
 0001:000597d0       ?SetColor@ChamsMaterial@mod@csgo@aw@@QAEXUColor@gfx@4@@Z 1005a7d0 f   chamsmaterial.obj
 0001:00059840       ?SetColor@ChamsMaterial@mod@csgo@aw@@UAEXMMMM@Z 1005a840 f   chamsmaterial.obj
 0001:000598d0       ?SetIgnoreZ@ChamsMaterial@mod@csgo@aw@@UAEX_N@Z 1005a8d0 f   chamsmaterial.obj
 0001:00059910       ??_E?$ModuleBaseImpl@VCrosshair@mod@csgo@aw@@V?$TypedObject@VCrosshair@mod@csgo@aw@@VModuleBase@4@@4@@aw@@UAEPAXI@Z 1005a910 f i crosshair.obj
 0001:00059910       ??_G?$ModuleBaseImpl@VCrosshair@mod@csgo@aw@@V?$TypedObject@VCrosshair@mod@csgo@aw@@VModuleBase@4@@4@@aw@@UAEPAXI@Z 1005a910 f i crosshair.obj
 0001:00059940       ??_ECrosshair@impl@mod@csgo@aw@@UAEPAXI@Z 1005a940 f i crosshair.obj
 0001:00059940       ??_GCrosshair@impl@mod@csgo@aw@@UAEPAXI@Z 1005a940 f i crosshair.obj
 0001:00059970       ?CreateModule@?$ModuleWithFactory@VCrosshair@mod@csgo@aw@@@aw@@SAPAVCrosshair@mod@csgo@2@XZ 1005a970 f   crosshair.obj
 0001:00059aa0       ?DrawRecoilCrosshair@Crosshair@impl@mod@csgo@aw@@IAEXAAURenderFrame@gfx@5@@Z 1005aaa0 f   crosshair.obj
 0001:00059fb0       ?GetId@?$TypedObject@VCrosshair@mod@csgo@aw@@VModuleBase@4@@aw@@UAEIXZ 1005afb0 f i crosshair.obj
 0001:00059fc0       ?IsMasterActive@TabNavigationBase@ui@aw@@QAE_NXZ 1005afc0 f i crosshair.obj
 0001:00059fe0       ?OnRender@Crosshair@impl@mod@csgo@aw@@QAEXAAURenderFrame@gfx@5@@Z 1005afe0 f   crosshair.obj
 0001:0005a150       ?OnShutdown@Crosshair@impl@mod@csgo@aw@@QAEXAAUCommonShutdown@5@@Z 1005b150 f   crosshair.obj
 0001:0005a170       ??$_Find_last@I@?$_Hash@V?$_Umap_traits@IV?$basic_string@DU?$char_traits@D@std@@V?$allocator@D@2@@std@@V?$_Uhash_compare@IU?$hash@I@std@@U?$equal_to@I@2@@2@V?$allocator@U?$pair@$$CBIV?$basic_string@DU?$char_traits@D@std@@V?$allocator@D@2@@std@@@std@@@2@$0A@@std@@@std@@IBE?AU?$_Hash_find_last_result@PAU?$_List_node@U?$pair@$$CBIV?$basic_string@DU?$char_traits@D@std@@V?$allocator@D@2@@std@@@std@@PAX@std@@@1@ABII@Z 1005b170 f i dangerzoneutils.obj
 0001:0005a1e0       ??$_Free_non_head@V?$allocator@U?$_List_node@U?$pair@$$CBIV?$basic_string@DU?$char_traits@D@std@@V?$allocator@D@2@@std@@@std@@PAX@std@@@std@@@?$_List_node@U?$pair@$$CBIV?$basic_string@DU?$char_traits@D@std@@V?$allocator@D@2@@std@@@std@@PAX@std@@SAXAAV?$allocator@U?$_List_node@U?$pair@$$CBIV?$basic_string@DU?$char_traits@D@std@@V?$allocator@D@2@@std@@@std@@PAX@std@@@1@PAU01@@Z 1005b1e0 f i dangerzoneutils.obj
 0001:0005a240       ??$_Insert_range_unchecked@PBU?$pair@$$CBIV?$basic_string@DU?$char_traits@D@std@@V?$allocator@D@2@@std@@@std@@PBU12@@?$_Hash@V?$_Umap_traits@IV?$basic_string@DU?$char_traits@D@std@@V?$allocator@D@2@@std@@V?$_Uhash_compare@IU?$hash@I@std@@U?$equal_to@I@2@@2@V?$allocator@U?$pair@$$CBIV?$basic_string@DU?$char_traits@D@std@@V?$allocator@D@2@@std@@@std@@@2@$0A@@std@@@std@@IAEXPBU?$pair@$$CBIV?$basic_string@DU?$char_traits@D@std@@V?$allocator@D@2@@std@@@1@QBU21@@Z 1005b240 f i dangerzoneutils.obj
 0001:0005a420       ??$fill@PAV?$_List_unchecked_iterator@V?$_List_val@U?$_List_simple_types@U?$pair@$$CBIV?$basic_string@DU?$char_traits@D@std@@V?$allocator@D@2@@std@@@std@@@std@@@std@@@std@@V12@@std@@YAXQAV?$_List_unchecked_iterator@V?$_List_val@U?$_List_simple_types@U?$pair@$$CBIV?$basic_string@DU?$char_traits@D@std@@V?$allocator@D@2@@std@@@std@@@std@@@std@@@0@0ABV10@@Z 1005b420 f i dangerzoneutils.obj
 0001:0005a480       ??0?$pair@$$CBIV?$basic_string@DU?$char_traits@D@std@@V?$allocator@D@2@@std@@@std@@QAE@ABU01@@Z 1005b480 f i dangerzoneutils.obj
 0001:0005a540       ??1?$_Hash@V?$_Umap_traits@IV?$basic_string@DU?$char_traits@D@std@@V?$allocator@D@2@@std@@V?$_Uhash_compare@IU?$hash@I@std@@U?$equal_to@I@2@@2@V?$allocator@U?$pair@$$CBIV?$basic_string@DU?$char_traits@D@std@@V?$allocator@D@2@@std@@@std@@@2@$0A@@std@@@std@@QAE@XZ 1005b540 f i dangerzoneutils.obj
 0001:0005a5a0       ?GetName@DangerZoneUtils@mod@csgo@aw@@SA?AV?$basic_string_view@DU?$char_traits@D@std@@@std@@PAVBaseEntity@sdk@34@@Z 1005b5a0 f   dangerzoneutils.obj
 0001:0005a6b0       ?IsItem@DangerZoneUtils@mod@csgo@aw@@SA_NPAVBaseEntity@sdk@34@@Z 1005b6b0 f   dangerzoneutils.obj
 0001:0005a7a0       ?IsTurret@DangerZoneUtils@mod@csgo@aw@@SA_NPAVBaseEntity@sdk@34@@Z 1005b7a0 f   dangerzoneutils.obj
 0001:0005a7c0       ?_Assign_grow@?$_Hash_vec@V?$allocator@V?$_List_unchecked_iterator@V?$_List_val@U?$_List_simple_types@U?$pair@$$CBIV?$basic_string@DU?$char_traits@D@std@@V?$allocator@D@2@@std@@@std@@@std@@@std@@@std@@@std@@@std@@QAEXIV?$_List_unchecked_iterator@V?$_List_val@U?$_List_simple_types@U?$pair@$$CBIV?$basic_string@DU?$char_traits@D@std@@V?$allocator@D@2@@std@@@std@@@std@@@std@@@2@@Z 1005b7c0 f i dangerzoneutils.obj
 0001:0005a890       ?_Forced_rehash@?$_Hash@V?$_Umap_traits@IV?$basic_string@DU?$char_traits@D@std@@V?$allocator@D@2@@std@@V?$_Uhash_compare@IU?$hash@I@std@@U?$equal_to@I@2@@2@V?$allocator@U?$pair@$$CBIV?$basic_string@DU?$char_traits@D@std@@V?$allocator@D@2@@std@@@std@@@2@$0A@@std@@@std@@IAEXI@Z 1005b890 f i dangerzoneutils.obj
 0001:0005a9f0       ??0EffectRemoval@impl@mod@csgo@aw@@QAE@XZ 1005b9f0 f i effectremoval.obj
 0001:0005acf0       ??_E?$ModuleBaseImpl@VEffectRemoval@mod@csgo@aw@@V?$TypedObject@VEffectRemoval@mod@csgo@aw@@VModuleBase@4@@4@@aw@@UAEPAXI@Z 1005bcf0 f i effectremoval.obj
 0001:0005acf0       ??_G?$ModuleBaseImpl@VEffectRemoval@mod@csgo@aw@@V?$TypedObject@VEffectRemoval@mod@csgo@aw@@VModuleBase@4@@4@@aw@@UAEPAXI@Z 1005bcf0 f i effectremoval.obj
 0001:0005ad20       ??_EEffectRemoval@impl@mod@csgo@aw@@UAEPAXI@Z 1005bd20 f i effectremoval.obj
 0001:0005ad20       ??_GEffectRemoval@impl@mod@csgo@aw@@UAEPAXI@Z 1005bd20 f i effectremoval.obj
 0001:0005ad50       ?CreateModule@?$ModuleWithFactory@VEffectRemoval@mod@csgo@aw@@@aw@@SAPAVEffectRemoval@mod@csgo@2@XZ 1005bd50 f   effectremoval.obj
 0001:0005ad80       ?GetDynamic@Panel@sdk@csgo@aw@@SAPAV1234@XZ 1005bd80 f i effectremoval.obj
 0001:0005ada0       ?GetId@?$TypedObject@VEffectRemoval@mod@csgo@aw@@VModuleBase@4@@aw@@UAEIXZ 1005bda0 f i effectremoval.obj
 0001:0005adb0       ?IsScopeRemoval@EffectRemoval@impl@mod@csgo@aw@@IAE_NXZ 1005bdb0 f   effectremoval.obj
 0001:0005adf0       ?OnCalcView@EffectRemoval@impl@mod@csgo@aw@@IAEXAAUPlayerCalcView@hk@45@@Z 1005bdf0 f   effectremoval.obj
 0001:0005ae70       ?OnDrawSetColor@EffectRemoval@impl@mod@csgo@aw@@IAEXAAUDrawSetColor@hk@45@@Z 1005be70 f   effectremoval.obj
 0001:0005aec0       ?OnDrawWorldLists@EffectRemoval@impl@mod@csgo@aw@@IAEXAAUDrawWorldLists@hk@45@@Z 1005bec0 f   effectremoval.obj
 0001:0005af30       ?OnFlashDuration@EffectRemoval@impl@mod@csgo@aw@@IAEXAAUFlashDuration@hk@45@@Z 1005bf30 f   effectremoval.obj
 0001:0005af70       ?OnGetViewModelFOV@EffectRemoval@impl@mod@csgo@aw@@IAEXAAUGetViewModelFOV@hk@45@@Z 1005bf70 f   effectremoval.obj
 0001:0005afc0       ?OnInPrediction@EffectRemoval@impl@mod@csgo@aw@@IAEXAAUInPrediction@hk@45@@Z 1005bfc0 f   effectremoval.obj
 0001:0005b0f0       ?OnPaintTraverse@EffectRemoval@impl@mod@csgo@aw@@IAEXAAUPaintTraverse@hk@45@@Z 1005c0f0 f   effectremoval.obj
 0001:0005b150       ?OnRenderFrame@EffectRemoval@impl@mod@csgo@aw@@IAEXAAURenderFrame@gfx@5@@Z 1005c150 f   effectremoval.obj
 0001:0005b310       ?OnRenderStartPost@EffectRemoval@impl@mod@csgo@aw@@IAEXAAUOnRenderStart@hk@45@@Z 1005c310 f   effectremoval.obj
 0001:0005b360       ?OnRenderStartPre@EffectRemoval@impl@mod@csgo@aw@@IAEXAAUOnRenderStart@hk@45@@Z 1005c360 f   effectremoval.obj
 0001:0005b430       ?OnRenderViewPost@EffectRemoval@impl@mod@csgo@aw@@IAEXAAURenderView@hk@45@@Z 1005c430 f   effectremoval.obj
 0001:0005b450       ?OnShouldDrawFog@EffectRemoval@impl@mod@csgo@aw@@IAEXAAUShouldDrawFog@hk@45@@Z 1005c450 f   effectremoval.obj
 0001:0005b490       ?OnSmokeEffectTickBegin@EffectRemoval@impl@mod@csgo@aw@@IAEXAAUSmokeEffectTickBegin@hk@45@@Z 1005c490 f   effectremoval.obj
 0001:0005b4e0       ??$_Emplace_reallocate@AAUTracerEntry@EspBulletTracer@impl@mod@csgo@aw@@@?$vector@UTracerEntry@EspBulletTracer@impl@mod@csgo@aw@@V?$allocator@UTracerEntry@EspBulletTracer@impl@mod@csgo@aw@@@std@@@std@@AAEPAUTracerEntry@EspBulletTracer@impl@mod@csgo@aw@@QAU234567@AAU234567@@Z 1005c4e0 f i tracerbullet.obj
 0001:0005b690       ??$_Emplace_reallocate@AAUTracerPath@EspBulletTracer@impl@mod@csgo@aw@@@?$vector@UTracerPath@EspBulletTracer@impl@mod@csgo@aw@@V?$allocator@UTracerPath@EspBulletTracer@impl@mod@csgo@aw@@@std@@@std@@AAEPAUTracerPath@EspBulletTracer@impl@mod@csgo@aw@@QAU234567@AAU234567@@Z 1005c690 f i tracerbullet.obj
 0001:0005b800       ??$_Move_unchecked@PAUTracerEntry@EspBulletTracer@impl@mod@csgo@aw@@PAU123456@@std@@YAPAUTracerEntry@EspBulletTracer@impl@mod@csgo@aw@@PAU123456@00@Z 1005c800 f i tracerbullet.obj
 0001:0005b890       ??$_Uninitialized_move@PAUTracerEntry@EspBulletTracer@impl@mod@csgo@aw@@V?$allocator@UTracerEntry@EspBulletTracer@impl@mod@csgo@aw@@@std@@@std@@YAPAUTracerEntry@EspBulletTracer@impl@mod@csgo@aw@@QAU123456@0PAU123456@AAV?$allocator@UTracerEntry@EspBulletTracer@impl@mod@csgo@aw@@@0@@Z 1005c890 f i tracerbullet.obj
 0001:0005b900       ??0TracerEntry@EspBulletTracer@impl@mod@csgo@aw@@QAE@ABU012345@@Z 1005c900 f i tracerbullet.obj
 0001:0005b9b0       ??1?$vector@UTracerEntry@EspBulletTracer@impl@mod@csgo@aw@@V?$allocator@UTracerEntry@EspBulletTracer@impl@mod@csgo@aw@@@std@@@std@@QAE@XZ 1005c9b0 f i tracerbullet.obj
 0001:0005ba20       ??1TracerEntry@EspBulletTracer@impl@mod@csgo@aw@@QAE@XZ 1005ca20 f i tracerbullet.obj
 0001:0005ba80       ??_E?$ModuleBaseImpl@VEspBulletTracer@mod@csgo@aw@@V?$TypedObject@VEspBulletTracer@mod@csgo@aw@@VModuleBase@4@@4@@aw@@UAEPAXI@Z 1005ca80 f i tracerbullet.obj
 0001:0005ba80       ??_G?$ModuleBaseImpl@VEspBulletTracer@mod@csgo@aw@@V?$TypedObject@VEspBulletTracer@mod@csgo@aw@@VModuleBase@4@@4@@aw@@UAEPAXI@Z 1005ca80 f i tracerbullet.obj
 0001:0005bab0       ??_EEspBulletTracer@impl@mod@csgo@aw@@UAEPAXI@Z 1005cab0 f i tracerbullet.obj
 0001:0005bab0       ??_GEspBulletTracer@impl@mod@csgo@aw@@UAEPAXI@Z 1005cab0 f i tracerbullet.obj
 0001:0005bb00       ?CreateModule@?$ModuleWithFactory@VEspBulletTracer@mod@csgo@aw@@@aw@@SAPAVEspBulletTracer@mod@csgo@2@XZ 1005cb00 f   tracerbullet.obj
 0001:0005bc60       ?DrawBeam@EspBulletTracer@impl@mod@csgo@aw@@IAEXAAURenderFrame@gfx@5@ABVVector3@5@1ABUColor@75@M@Z 1005cc60 f   tracerbullet.obj
 0001:0005bf80       ?DrawBeamHitSide@EspBulletTracer@impl@mod@csgo@aw@@IAEXAAURenderFrame@gfx@5@ABVVector3@5@1ABUColor@75@M@Z 1005cf80 f   tracerbullet.obj
 0001:0005c2a0       ?GetId@?$TypedObject@VEspBulletTracer@mod@csgo@aw@@VModuleBase@4@@aw@@UAEIXZ 1005d2a0 f i tracerbullet.obj
 0001:0005c2b0       ?OnFireGameEvent@EspBulletTracer@impl@mod@csgo@aw@@IAEXAAUGameEvent@hk@45@@Z 1005d2b0 f   tracerbullet.obj
 0001:0005cc50       ?OnInit@EspBulletTracer@impl@mod@csgo@aw@@IAEXAAUCommonInit@5@@Z 1005dc50 f   tracerbullet.obj
 0001:0005ccf0       ?OnRender@EspBulletTracer@impl@mod@csgo@aw@@IAEXAAURenderFrame@gfx@5@@Z 1005dcf0 f   tracerbullet.obj
 0001:0005d030       ?_Tidy@?$vector@UTracerPath@EspBulletTracer@impl@mod@csgo@aw@@V?$allocator@UTracerPath@EspBulletTracer@impl@mod@csgo@aw@@@std@@@std@@AAEXXZ 1005e030 f i tracerbullet.obj
 0001:0005d090       ?_Xlength@?$vector@UTracerEntry@EspBulletTracer@impl@mod@csgo@aw@@V?$allocator@UTracerEntry@EspBulletTracer@impl@mod@csgo@aw@@@std@@@std@@CAXXZ 1005e090 f i tracerbullet.obj
 0001:0005d0a0       ?_Xlength@?$vector@UTracerPath@EspBulletTracer@impl@mod@csgo@aw@@V?$allocator@UTracerPath@EspBulletTracer@impl@mod@csgo@aw@@@std@@@std@@CAXXZ 1005e0a0 f i tracerbullet.obj
 0001:0005d0b0       ?allocate@?$allocator@UTracerPath@EspBulletTracer@impl@mod@csgo@aw@@@std@@QAEPAUTracerPath@EspBulletTracer@impl@mod@csgo@aw@@I@Z 1005e0b0 f i tracerbullet.obj
 0001:0005d110       ??$_Free_non_head@V?$allocator@U?$_List_node@UEspDamageIndicatorData@impl@mod@csgo@aw@@PAX@std@@@std@@@?$_List_node@UEspDamageIndicatorData@impl@mod@csgo@aw@@PAX@std@@SAXAAV?$allocator@U?$_List_node@UEspDamageIndicatorData@impl@mod@csgo@aw@@PAX@std@@@1@PAU01@@Z 1005e110 f i damageindicator.obj
 0001:0005d170       ??_E?$ModuleBaseImpl@VEspDamageIndicator@mod@csgo@aw@@V?$TypedObject@VEspDamageIndicator@mod@csgo@aw@@VModuleBase@4@@4@@aw@@UAEPAXI@Z 1005e170 f i damageindicator.obj
 0001:0005d170       ??_G?$ModuleBaseImpl@VEspDamageIndicator@mod@csgo@aw@@V?$TypedObject@VEspDamageIndicator@mod@csgo@aw@@VModuleBase@4@@4@@aw@@UAEPAXI@Z 1005e170 f i damageindicator.obj
 0001:0005d1a0       ??_EEspDamageIndicator@impl@mod@csgo@aw@@UAEPAXI@Z 1005e1a0 f i damageindicator.obj
 0001:0005d1a0       ??_GEspDamageIndicator@impl@mod@csgo@aw@@UAEPAXI@Z 1005e1a0 f i damageindicator.obj
 0001:0005d1f0       ?CreateModule@?$ModuleWithFactory@VEspDamageIndicator@mod@csgo@aw@@@aw@@SAPAVEspDamageIndicator@mod@csgo@2@XZ 1005e1f0 f   damageindicator.obj
 0001:0005d320       ?GetId@?$TypedObject@VEspDamageIndicator@mod@csgo@aw@@VModuleBase@4@@aw@@UAEIXZ 1005e320 f i damageindicator.obj
 0001:0005d330       ?OnEspDraw@EspDamageIndicator@impl@mod@csgo@aw@@IAEXAAUEspDraw@345@@Z 1005e330 f   damageindicator.obj
 0001:0005d930       ?OnGameEvent@EspDamageIndicator@impl@mod@csgo@aw@@IAEXAAUGameEvent@hk@45@@Z 1005e930 f   damageindicator.obj
 0001:0005e160       ??1EspGrenadeTrace@mod@csgo@aw@@QAE@XZ 1005f160 f i tracergrenade.obj
 0001:0005e1a0       ??_E?$ModuleBaseImpl@VEspGrenadeOverlay@mod@csgo@aw@@V?$TypedObject@VEspGrenadeOverlay@mod@csgo@aw@@VModuleBase@4@@4@@aw@@UAEPAXI@Z 1005f1a0 f i tracergrenade.obj
 0001:0005e1a0       ??_G?$ModuleBaseImpl@VEspGrenadeOverlay@mod@csgo@aw@@V?$TypedObject@VEspGrenadeOverlay@mod@csgo@aw@@VModuleBase@4@@4@@aw@@UAEPAXI@Z 1005f1a0 f i tracergrenade.obj
 0001:0005e1d0       ??_EEspGrenadeOverlay@impl@mod@csgo@aw@@UAEPAXI@Z 1005f1d0 f i tracergrenade.obj
 0001:0005e1d0       ??_GEspGrenadeOverlay@impl@mod@csgo@aw@@UAEPAXI@Z 1005f1d0 f i tracergrenade.obj
 0001:0005e200       ?CreateModule@?$ModuleWithFactory@VEspGrenadeOverlay@mod@csgo@aw@@@aw@@SAPAVEspGrenadeOverlay@mod@csgo@2@XZ 1005f200 f   tracergrenade.obj
 0001:0005e2a0       ?GetId@?$TypedObject@VEspGrenadeOverlay@mod@csgo@aw@@VModuleBase@4@@aw@@UAEIXZ 1005f2a0 f i tracergrenade.obj
 0001:0005e2b0       ?OnEspDraw@EspGrenadeOverlay@impl@mod@csgo@aw@@IAEXAAUEspDraw@345@@Z 1005f2b0 f   tracergrenade.obj
 0001:0005e6e0       ??0EspGrenadeTrace@mod@csgo@aw@@QAE@PAVRenderContext@gfx@3@@Z 1005f6e0 f   tracegrenadedraw.obj
 0001:0005e770       ?CalcStartParameters@EspGrenadeTrace@mod@csgo@aw@@MAEXAAVVector3@4@0@Z 1005f770 f   tracegrenadedraw.obj
 0001:0005e7b0       ?GetColorFraction@EspGrenadeTrace@mod@csgo@aw@@QAE?AUColor@gfx@4@M@Z 1005f7b0 f   tracegrenadedraw.obj
 0001:0005e890       ?OnBounce@EspGrenadeTrace@mod@csgo@aw@@UAEXABVVector3@4@0@Z 1005f890 f   tracegrenadedraw.obj
 0001:0005e910       ?OnExplode@EspGrenadeTrace@mod@csgo@aw@@UAEXABVVector3@4@@Z 1005f910 f   tracegrenadedraw.obj
 0001:0005eca0       ?OnTravel@EspGrenadeTrace@mod@csgo@aw@@UAEXABVVector3@4@0@Z 1005fca0 f   tracegrenadedraw.obj
 0001:0005eec0       ??$FormatString@H@aw@@YA?AV?$basic_string@DU?$char_traits@D@std@@V?$allocator@D@2@@std@@V?$basic_format_string@DH@v9@fmt@@$$QAH@Z 1005fec0 f i wallbanginfo.obj
 0001:0005ef10       ??_E?$ModuleBaseImpl@VEspWallbang@mod@csgo@aw@@V?$TypedObject@VEspWallbang@mod@csgo@aw@@VModuleBase@4@@4@@aw@@UAEPAXI@Z 1005ff10 f i wallbanginfo.obj
 0001:0005ef10       ??_G?$ModuleBaseImpl@VEspWallbang@mod@csgo@aw@@V?$TypedObject@VEspWallbang@mod@csgo@aw@@VModuleBase@4@@4@@aw@@UAEPAXI@Z 1005ff10 f i wallbanginfo.obj
 0001:0005ef40       ??_EEspWallbang@impl@mod@csgo@aw@@UAEPAXI@Z 1005ff40 f i wallbanginfo.obj
 0001:0005ef40       ??_GEspWallbang@impl@mod@csgo@aw@@UAEPAXI@Z 1005ff40 f i wallbanginfo.obj
 0001:0005ef70       ?CreateModule@?$ModuleWithFactory@VEspWallbang@mod@csgo@aw@@@aw@@SAPAVEspWallbang@mod@csgo@2@XZ 1005ff70 f   wallbanginfo.obj
 0001:0005f090       ?GetId@?$TypedObject@VEspWallbang@mod@csgo@aw@@VModuleBase@4@@aw@@UAEIXZ 10060090 f i wallbanginfo.obj
 0001:0005f0a0       ?OnRender@EspWallbang@impl@mod@csgo@aw@@IAEXAAURenderFrame@gfx@5@@Z 100600a0 f   wallbanginfo.obj
 0001:0005f9f0       ??_E?$ModuleBaseImpl@VHitmarker@mod@csgo@aw@@V?$TypedObject@VHitmarker@mod@csgo@aw@@VModuleBase@4@@4@@aw@@UAEPAXI@Z 100609f0 f i hitmarker.obj
 0001:0005f9f0       ??_G?$ModuleBaseImpl@VHitmarker@mod@csgo@aw@@V?$TypedObject@VHitmarker@mod@csgo@aw@@VModuleBase@4@@4@@aw@@UAEPAXI@Z 100609f0 f i hitmarker.obj
 0001:0005fa20       ??_EHitmarker@impl@mod@csgo@aw@@UAEPAXI@Z 10060a20 f i hitmarker.obj
 0001:0005fa20       ??_GHitmarker@impl@mod@csgo@aw@@UAEPAXI@Z 10060a20 f i hitmarker.obj
 0001:0005fa50       ?Add@Hitmarker@impl@mod@csgo@aw@@IAEXPAVCSPlayer@sdk@45@@Z 10060a50 f   hitmarker.obj
 0001:0005fdd0       ?CreateModule@?$ModuleWithFactory@VHitmarker@mod@csgo@aw@@@aw@@SAPAVHitmarker@mod@csgo@2@XZ 10060dd0 f   hitmarker.obj
 0001:0005ff00       ?GetId@?$TypedObject@VHitmarker@mod@csgo@aw@@VModuleBase@4@@aw@@UAEIXZ 10060f00 f i hitmarker.obj
 0001:0005ff10       ?OnGameEvent@Hitmarker@impl@mod@csgo@aw@@IAEXAAUGameEvent@hk@45@@Z 10060f10 f   hitmarker.obj
 0001:00060150       ?OnRender@Hitmarker@impl@mod@csgo@aw@@IAEXAAURenderFrame@gfx@5@@Z 10061150 f   hitmarker.obj
 0001:000602e0       ??_E?$ModuleBaseImpl@VGameMaterials@mod@csgo@aw@@V?$TypedObject@VGameMaterials@mod@csgo@aw@@VModuleBase@4@@4@@aw@@UAEPAXI@Z 100612e0 f i gamematerials.obj
 0001:000602e0       ??_G?$ModuleBaseImpl@VGameMaterials@mod@csgo@aw@@V?$TypedObject@VGameMaterials@mod@csgo@aw@@VModuleBase@4@@4@@aw@@UAEPAXI@Z 100612e0 f i gamematerials.obj
 0001:00060310       ??_EGameMaterials@impl@mod@csgo@aw@@UAEPAXI@Z 10061310 f i gamematerials.obj
 0001:00060310       ??_GGameMaterials@impl@mod@csgo@aw@@UAEPAXI@Z 10061310 f i gamematerials.obj
 0001:00060340       ?CreateModule@?$ModuleWithFactory@VGameMaterials@mod@csgo@aw@@@aw@@SAPAVGameMaterials@mod@csgo@2@XZ 10061340 f   gamematerials.obj
 0001:00060470       ?GetId@?$TypedObject@VGameMaterials@mod@csgo@aw@@VModuleBase@4@@aw@@UAEIXZ 10061470 f i gamematerials.obj
 0001:00060480       ?OnPreRender@GameMaterials@impl@mod@csgo@aw@@IAEXAAURenderFrame@gfx@5@@Z 10061480 f   gamematerials.obj
 0001:00060940       ??0ModelChams@impl@mod@csgo@aw@@QAE@XZ 10061940 f i modelchams.obj
 0001:00060c40       ??_E?$ModuleBaseImpl@VModelChams@mod@csgo@aw@@V?$TypedObject@VModelChams@mod@csgo@aw@@VModuleBase@4@@4@@aw@@UAEPAXI@Z 10061c40 f i modelchams.obj
 0001:00060c40       ??_G?$ModuleBaseImpl@VModelChams@mod@csgo@aw@@V?$TypedObject@VModelChams@mod@csgo@aw@@VModuleBase@4@@4@@aw@@UAEPAXI@Z 10061c40 f i modelchams.obj
 0001:00060c70       ??_EModelChams@impl@mod@csgo@aw@@UAEPAXI@Z 10061c70 f i modelchams.obj
 0001:00060c70       ??_GModelChams@impl@mod@csgo@aw@@UAEPAXI@Z 10061c70 f i modelchams.obj
 0001:00060d10       ?CreateModule@?$ModuleWithFactory@VModelChams@mod@csgo@aw@@@aw@@SAPAVModelChams@mod@csgo@2@XZ 10061d10 f   modelchams.obj
 0001:00060d40       ?GetBuilder@ModelChams@impl@mod@csgo@aw@@IAEPAVVisualsChamsBuilder@ui@45@PAVBaseEntity@sdk@45@W4ModelChamsType@345@@Z 10061d40 f   modelchams.obj
 0001:00060fb0       ?GetId@?$TypedObject@VModelChams@mod@csgo@aw@@VModuleBase@4@@aw@@UAEIXZ 10061fb0 f i modelchams.obj
 0001:00060fc0       ?IsRenderingAllowed@ModelChams@impl@mod@csgo@aw@@MAE_NPAUDrawModelVars@hk@45@@Z 10061fc0 f   modelchams.obj
 0001:000610d0       ?LoadMaterials@ModelChams@impl@mod@csgo@aw@@IAEXXZ 100620d0 f   modelchams.obj
 0001:00065290       ?OnDoPostScreenSpaceEffects@ModelChams@impl@mod@csgo@aw@@IAEXAAUDoPostScreenSpaceEffects@hk@45@@Z 10066290 f   modelchams.obj
 0001:00065570       ?OnDoPostScreenSpaceEffectsFinish@ModelChams@impl@mod@csgo@aw@@IAEXAAUDoPostScreenSpaceEffects@hk@45@@Z 10066570 f   modelchams.obj
 0001:00065580       ?OnDrawChamsModel@ModelChams@impl@mod@csgo@aw@@IAEXAAUDrawChamsModel@345@@Z 10066580 f   modelchams.obj
 0001:00065a50       ?OnDrawModel@ModelChams@impl@mod@csgo@aw@@IAEXAAUDrawModel@hk@45@@Z 10066a50 f   modelchams.obj
 0001:00065ae0       ?OnDrawWorldLists@ModelChams@impl@mod@csgo@aw@@IAEXAAUDrawWorldLists@hk@45@@Z 10066ae0 f   modelchams.obj
 0001:00065ba0       ?OnLevelInit@ModelChams@impl@mod@csgo@aw@@IAEXAAULevelInit@hk@45@@Z 10066ba0 f   modelchams.obj
 0001:00065bb0       ?OnListLeavesInBox@ModelChams@impl@mod@csgo@aw@@IAEXAAUListLeavesInBox@hk@45@@Z 10066bb0 f   modelchams.obj
 0001:00065c70       ?ShouldChams@ModelChams@impl@mod@csgo@aw@@UAE_NPAVBaseEntity@sdk@45@@Z 10066c70 f   modelchams.obj
 0001:00065cc0       ??_E?$ModuleBaseImpl@VPreserveKillfeed@mod@csgo@aw@@V?$TypedObject@VPreserveKillfeed@mod@csgo@aw@@VModuleBase@4@@4@@aw@@UAEPAXI@Z 10066cc0 f i preservekillfeed.obj
 0001:00065cc0       ??_G?$ModuleBaseImpl@VPreserveKillfeed@mod@csgo@aw@@V?$TypedObject@VPreserveKillfeed@mod@csgo@aw@@VModuleBase@4@@4@@aw@@UAEPAXI@Z 10066cc0 f i preservekillfeed.obj
 0001:00065cf0       ??_EPreserveKillfeed@impl@mod@csgo@aw@@UAEPAXI@Z 10066cf0 f i preservekillfeed.obj
 0001:00065cf0       ??_GPreserveKillfeed@impl@mod@csgo@aw@@UAEPAXI@Z 10066cf0 f i preservekillfeed.obj
 0001:00065d20       ?CreateModule@?$ModuleWithFactory@VPreserveKillfeed@mod@csgo@aw@@@aw@@SAPAVPreserveKillfeed@mod@csgo@2@XZ 10066d20 f   preservekillfeed.obj
 0001:00065e00       ?GetHudDeathNotice@PreserveKillfeed@impl@mod@csgo@aw@@IAEPAXXZ 10066e00 f   preservekillfeed.obj
 0001:00065f50       ?GetId@?$TypedObject@VPreserveKillfeed@mod@csgo@aw@@VModuleBase@4@@aw@@UAEIXZ 10066f50 f i preservekillfeed.obj
 0001:00065f60       ?OnGameEvent@PreserveKillfeed@impl@mod@csgo@aw@@IAEXAAUGameEvent@hk@45@@Z 10066f60 f   preservekillfeed.obj
 0001:00065fc0       ?OnRender@PreserveKillfeed@impl@mod@csgo@aw@@IAEXAAURenderFrame@gfx@5@@Z 10066fc0 f   preservekillfeed.obj
 0001:00066020       ??$_Find_last@H@?$_Hash@V?$_Umap_traits@HUWeaponIcon@mod@csgo@aw@@V?$_Uhash_compare@HU?$hash@H@std@@U?$equal_to@H@2@@std@@V?$allocator@U?$pair@$$CBHUWeaponIcon@mod@csgo@aw@@@std@@@6@$0A@@std@@@std@@IBE?AU?$_Hash_find_last_result@PAU?$_List_node@U?$pair@$$CBHUWeaponIcon@mod@csgo@aw@@@std@@PAX@std@@@1@ABHI@Z 10067020 f i weaponiconatlas.obj
 0001:00066090       ??$_Free_non_head@V?$allocator@U?$_List_node@U?$pair@$$CBHUWeaponIcon@mod@csgo@aw@@@std@@PAX@std@@@std@@@?$_List_node@U?$pair@$$CBHUWeaponIcon@mod@csgo@aw@@@std@@PAX@std@@SAXAAV?$allocator@U?$_List_node@U?$pair@$$CBHUWeaponIcon@mod@csgo@aw@@@std@@PAX@std@@@1@PAU01@@Z 10067090 f i weaponiconatlas.obj
 0001:000660d0       ??$_Try_emplace@ABH$$V@?$_Hash@V?$_Umap_traits@HUWeaponIcon@mod@csgo@aw@@V?$_Uhash_compare@HU?$hash@H@std@@U?$equal_to@H@2@@std@@V?$allocator@U?$pair@$$CBHUWeaponIcon@mod@csgo@aw@@@std@@@6@$0A@@std@@@std@@IAE?AU?$pair@PAU?$_List_node@U?$pair@$$CBHUWeaponIcon@mod@csgo@aw@@@std@@PAX@std@@_N@1@ABH@Z 100670d0 f i weaponiconatlas.obj
 0001:000662b0       ??$fill@PAV?$_List_unchecked_iterator@V?$_List_val@U?$_List_simple_types@U?$pair@$$CBHUWeaponIcon@mod@csgo@aw@@@std@@@std@@@std@@@std@@V12@@std@@YAXQAV?$_List_unchecked_iterator@V?$_List_val@U?$_List_simple_types@U?$pair@$$CBHUWeaponIcon@mod@csgo@aw@@@std@@@std@@@std@@@0@0ABV10@@Z 100672b0 f i weaponiconatlas.obj
 0001:00066310       ??$find@X@?$_Hash@V?$_Umap_traits@HUWeaponIcon@mod@csgo@aw@@V?$_Uhash_compare@HU?$hash@H@std@@U?$equal_to@H@2@@std@@V?$allocator@U?$pair@$$CBHUWeaponIcon@mod@csgo@aw@@@std@@@6@$0A@@std@@@std@@QAE?AV?$_List_iterator@V?$_List_val@U?$_List_simple_types@U?$pair@$$CBHUWeaponIcon@mod@csgo@aw@@@std@@@std@@@std@@@1@ABH@Z 10067310 f i weaponiconatlas.obj
 0001:00066380       ??0?$unordered_map@HUWeaponIcon@mod@csgo@aw@@U?$hash@H@std@@U?$equal_to@H@6@V?$allocator@U?$pair@$$CBHUWeaponIcon@mod@csgo@aw@@@std@@@6@@std@@QAE@XZ 10067380 f i weaponiconatlas.obj
 0001:000663f0       ??1?$_Hash@V?$_Umap_traits@HUWeaponIcon@mod@csgo@aw@@V?$_Uhash_compare@HU?$hash@H@std@@U?$equal_to@H@2@@std@@V?$allocator@U?$pair@$$CBHUWeaponIcon@mod@csgo@aw@@@std@@@6@$0A@@std@@@std@@QAE@XZ 100673f0 f i weaponiconatlas.obj
 0001:00066450       ??_E?$ModuleBaseImpl@VWeaponIconAtlas@mod@csgo@aw@@V?$TypedObject@VWeaponIconAtlas@mod@csgo@aw@@VModuleBase@4@@4@@aw@@UAEPAXI@Z 10067450 f i weaponiconatlas.obj
 0001:00066450       ??_G?$ModuleBaseImpl@VWeaponIconAtlas@mod@csgo@aw@@V?$TypedObject@VWeaponIconAtlas@mod@csgo@aw@@VModuleBase@4@@4@@aw@@UAEPAXI@Z 10067450 f i weaponiconatlas.obj
 0001:00066480       ??_EWeaponIconAtlas@impl@mod@csgo@aw@@UAEPAXI@Z 10067480 f i weaponiconatlas.obj
 0001:00066480       ??_GWeaponIconAtlas@impl@mod@csgo@aw@@UAEPAXI@Z 10067480 f i weaponiconatlas.obj
 0001:000664c0       ?CreateModule@?$ModuleWithFactory@VWeaponIconAtlas@mod@csgo@aw@@@aw@@SAPAVWeaponIconAtlas@mod@csgo@2@XZ 100674c0 f   weaponiconatlas.obj
 0001:00066540       ?Get@IFileSystem@sdk@csgo@aw@@SAPAV1234@XZ 10067540 f i weaponiconatlas.obj
 0001:00066550       ?GetDynamic@IFileSystem@sdk@csgo@aw@@SAPAV1234@XZ 10067550 f i weaponiconatlas.obj
 0001:00066570       ?GetIcon@WeaponIconAtlas@impl@mod@csgo@aw@@UAEPAUWeaponIcon@345@PAVRenderResources@gfx@5@H_N@Z 10067570 f   weaponiconatlas.obj
 0001:00066630       ?GetId@?$TypedObject@VWeaponIconAtlas@mod@csgo@aw@@VModuleBase@4@@aw@@UAEIXZ 10067630 f i weaponiconatlas.obj
 0001:00066640       ?LoadIcon@WeaponIconAtlas@impl@mod@csgo@aw@@IAEXPAVRenderResources@gfx@5@H_N@Z 10067640 f   weaponiconatlas.obj
 0001:00066fb0       ?_Assign_grow@?$_Hash_vec@V?$allocator@V?$_List_unchecked_iterator@V?$_List_val@U?$_List_simple_types@U?$pair@$$CBHUWeaponIcon@mod@csgo@aw@@@std@@@std@@@std@@@std@@@std@@@std@@QAEXIV?$_List_unchecked_iterator@V?$_List_val@U?$_List_simple_types@U?$pair@$$CBHUWeaponIcon@mod@csgo@aw@@@std@@@std@@@std@@@2@@Z 10067fb0 f i weaponiconatlas.obj
 0001:00067080       ?_Forced_rehash@?$_Hash@V?$_Umap_traits@HUWeaponIcon@mod@csgo@aw@@V?$_Uhash_compare@HU?$hash@H@std@@U?$equal_to@H@2@@std@@V?$allocator@U?$pair@$$CBHUWeaponIcon@mod@csgo@aw@@@std@@@6@$0A@@std@@@std@@IAEXI@Z 10068080 f i weaponiconatlas.obj
 0001:000671e0       ?_Xlength@?$vector@DV?$allocator@D@std@@@std@@CAXXZ 100681e0 f i weaponiconatlas.obj
 0001:000671f0       ??$_Emplace_reallocate@AAPAVGameSceneEntity@mod@csgo@aw@@@?$vector@PAVGameSceneEntity@mod@csgo@aw@@V?$allocator@PAVGameSceneEntity@mod@csgo@aw@@@std@@@std@@AAEPAPAVGameSceneEntity@mod@csgo@aw@@QAPAV2345@AAPAV2345@@Z 100681f0 f i gamescene.obj
 0001:00067330       ??0GameScene@mod@csgo@aw@@QAE@XZ 10068330 f   gamescene.obj
 0001:00067400       ?AttachEntity@GameScene@mod@csgo@aw@@QAEXPAVGameSceneEntity@234@@Z 10068400 f   gamescene.obj
 0001:00067430       ?BeginScene@GameScene@mod@csgo@aw@@IAE_NPAVTexture@sdk@34@@Z 10068430 f   gamescene.obj
 0001:00067ad0       ?CalcCamera@GameScene@mod@csgo@aw@@QAEXAAVVector3@4@AAVEulerAngles@4@AAVMatrix4@4@22@Z 10068ad0 f   gamescene.obj
 0001:00067c00       ?OnPostDrawModel@GameScene@mod@csgo@aw@@UAEXAAUDrawModel@hk@34@@Z 10068c00 f   gamescene.obj
 0001:00067c10       ?OnPreDrawModel@GameScene@mod@csgo@aw@@UAEXAAUDrawModel@hk@34@@Z 10068c10 f   gamescene.obj
 0001:00067c20       ?Render@GameScene@mod@csgo@aw@@QAEXPAVTexture@sdk@34@@Z 10068c20 f   gamescene.obj
 0001:00067d30       ?_Xlength@?$vector@PAVGameSceneEntity@mod@csgo@aw@@V?$allocator@PAVGameSceneEntity@mod@csgo@aw@@@std@@@std@@CAXXZ 10068d30 f i gamescene.obj
 0001:00067d40       ??$?8DU?$char_traits@D@std@@V?$allocator@D@1@@std@@YA_NABV?$basic_string@DU?$char_traits@D@std@@V?$allocator@D@2@@0@0@Z 10068d40 f i gamescene_econentity.obj
 0001:00067dc0       ??$_Find_last@PAVEconItemInterface@sdk@csgo@aw@@@?$_Hash@V?$_Umap_traits@PAVEconItemInterface@sdk@csgo@aw@@PAVGameSceneEconEntity@mod@34@V?$_Uhash_compare@PAVEconItemInterface@sdk@csgo@aw@@U?$hash@PAVEconItemInterface@sdk@csgo@aw@@@std@@U?$equal_to@PAVEconItemInterface@sdk@csgo@aw@@@6@@std@@V?$allocator@U?$pair@QAVEconItemInterface@sdk@csgo@aw@@PAVGameSceneEconEntity@mod@34@@std@@@8@$0A@@std@@@std@@IBE?AU?$_Hash_find_last_result@PAU?$_List_node@U?$pair@QAVEconItemInterface@sdk@csgo@aw@@PAVGameSceneEconEntity@mod@34@@std@@PAX@std@@@1@ABQAVEconItemInterface@sdk@csgo@aw@@I@Z 10068dc0 f i gamescene_econentity.obj
 0001:00067e30       ??$_Try_emplace@ABQAVEconItemInterface@sdk@csgo@aw@@$$V@?$_Hash@V?$_Umap_traits@PAVEconItemInterface@sdk@csgo@aw@@PAVGameSceneEconEntity@mod@34@V?$_Uhash_compare@PAVEconItemInterface@sdk@csgo@aw@@U?$hash@PAVEconItemInterface@sdk@csgo@aw@@@std@@U?$equal_to@PAVEconItemInterface@sdk@csgo@aw@@@6@@std@@V?$allocator@U?$pair@QAVEconItemInterface@sdk@csgo@aw@@PAVGameSceneEconEntity@mod@34@@std@@@8@$0A@@std@@@std@@IAE?AU?$pair@PAU?$_List_node@U?$pair@QAVEconItemInterface@sdk@csgo@aw@@PAVGameSceneEconEntity@mod@34@@std@@PAX@std@@_N@1@ABQAVEconItemInterface@sdk@csgo@aw@@@Z 10068e30 f i gamescene_econentity.obj
 0001:00067ff0       ??$fill@PAV?$_List_unchecked_iterator@V?$_List_val@U?$_List_simple_types@U?$pair@QAVEconItemInterface@sdk@csgo@aw@@PAVGameSceneEconEntity@mod@34@@std@@@std@@@std@@@std@@V12@@std@@YAXQAV?$_List_unchecked_iterator@V?$_List_val@U?$_List_simple_types@U?$pair@QAVEconItemInterface@sdk@csgo@aw@@PAVGameSceneEconEntity@mod@34@@std@@@std@@@std@@@0@0ABV10@@Z 10068ff0 f i gamescene_econentity.obj
 0001:00068050       ??0GameSceneEconEntity@mod@csgo@aw@@QAE@XZ 10069050 f   gamescene_econentity.obj
 0001:00068110       ??1?$_Hash@V?$_Umap_traits@PAVEconItemInterface@sdk@csgo@aw@@PAVGameSceneEconEntity@mod@34@V?$_Uhash_compare@PAVEconItemInterface@sdk@csgo@aw@@U?$hash@PAVEconItemInterface@sdk@csgo@aw@@@std@@U?$equal_to@PAVEconItemInterface@sdk@csgo@aw@@@6@@std@@V?$allocator@U?$pair@QAVEconItemInterface@sdk@csgo@aw@@PAVGameSceneEconEntity@mod@34@@std@@@8@$0A@@std@@@std@@QAE@XZ 10069110 f i gamescene_econentity.obj
 0001:00068190       ??1GameSceneEconEntity@mod@csgo@aw@@UAE@XZ 10069190 f   gamescene_econentity.obj
 0001:00068350       ??4?$basic_string@DU?$char_traits@D@std@@V?$allocator@D@2@@std@@QAEAAV01@ABV01@@Z 10069350 f i gamescene_econentity.obj
 0001:00068470       ??_EGameSceneEconEntity@mod@csgo@aw@@UAEPAXI@Z 10069470 f i gamescene_econentity.obj
 0001:00068470       ??_GGameSceneEconEntity@mod@csgo@aw@@UAEPAXI@Z 10069470 f i gamescene_econentity.obj
 0001:000684a0       ?HkGetStickerAttributeBySlotIndexInt@GameSceneEconEntity@mod@csgo@aw@@KIIPAXHHHI@Z 100694a0 f   gamescene_econentity.obj
 0001:00068570       ?PostDrawModel@GameSceneEconEntity@mod@csgo@aw@@UAEXAAUDrawModel@hk@34@@Z 10069570 f   gamescene_econentity.obj
 0001:00068640       ?PreDrawModel@GameSceneEconEntity@mod@csgo@aw@@UAEXAAUDrawModel@hk@34@@Z 10069640 f   gamescene_econentity.obj
 0001:00068710       ?PrecacheModel@GameSceneEconEntity@mod@csgo@aw@@MAEXXZ 10069710 f   gamescene_econentity.obj
 0001:000697d0       ?Prepare@GameSceneEconEntity@mod@csgo@aw@@UAE_NXZ 1006a7d0 f   gamescene_econentity.obj
 0001:00069880       ?SetCustomName@GameSceneEconEntity@mod@csgo@aw@@QAEXABV?$basic_string@DU?$char_traits@D@std@@V?$allocator@D@2@@std@@@Z 1006a880 f   gamescene_econentity.obj
 0001:000698b0       ?SetItemDefinitionIndex@GameSceneEconEntity@mod@csgo@aw@@QAEXH@Z 1006a8b0 f   gamescene_econentity.obj
 0001:000698d0       ?SetPaintKit@GameSceneEconEntity@mod@csgo@aw@@QAEXH@Z 1006a8d0 f   gamescene_econentity.obj
 0001:000698f0       ?SetPaintKitSeed@GameSceneEconEntity@mod@csgo@aw@@QAEXH@Z 1006a8f0 f   gamescene_econentity.obj
 0001:00069910       ?SetPaintKitWear@GameSceneEconEntity@mod@csgo@aw@@QAEXM@Z 1006a910 f   gamescene_econentity.obj
 0001:00069940       ?SetStattrak@GameSceneEconEntity@mod@csgo@aw@@QAEXABV?$basic_string@DU?$char_traits@D@std@@V?$allocator@D@2@@std@@@Z 1006a940 f   gamescene_econentity.obj
 0001:00069970       ?SetSticker@GameSceneEconEntity@mod@csgo@aw@@QAEXW4StickerSlot@234@H@Z 1006a970 f   gamescene_econentity.obj
 0001:00069990       ?_Assign_grow@?$_Hash_vec@V?$allocator@V?$_List_unchecked_iterator@V?$_List_val@U?$_List_simple_types@U?$pair@QAVEconItemInterface@sdk@csgo@aw@@PAVGameSceneEconEntity@mod@34@@std@@@std@@@std@@@std@@@std@@@std@@QAEXIV?$_List_unchecked_iterator@V?$_List_val@U?$_List_simple_types@U?$pair@QAVEconItemInterface@sdk@csgo@aw@@PAVGameSceneEconEntity@mod@34@@std@@@std@@@std@@@2@@Z 1006a990 f i gamescene_econentity.obj
 0001:00069a60       ?_Forced_rehash@?$_Hash@V?$_Umap_traits@PAVEconItemInterface@sdk@csgo@aw@@PAVGameSceneEconEntity@mod@34@V?$_Uhash_compare@PAVEconItemInterface@sdk@csgo@aw@@U?$hash@PAVEconItemInterface@sdk@csgo@aw@@@std@@U?$equal_to@PAVEconItemInterface@sdk@csgo@aw@@@6@@std@@V?$allocator@U?$pair@QAVEconItemInterface@sdk@csgo@aw@@PAVGameSceneEconEntity@mod@34@@std@@@8@$0A@@std@@@std@@IAEXI@Z 1006aa60 f i gamescene_econentity.obj
 0001:00069bc0       ??$?4V?$basic_string_view@DU?$char_traits@D@std@@@std@@$0A@@?$basic_string@DU?$char_traits@D@std@@V?$allocator@D@2@@std@@QAEAAV01@ABV?$basic_string_view@DU?$char_traits@D@std@@@1@@Z 1006abc0 f i gamescene_entity.obj
 0001:00069ce0       ??$_Destroy_range@V?$allocator@UGameSceneModel@mod@csgo@aw@@@std@@@std@@YAXPAUGameSceneModel@mod@csgo@aw@@QAU1234@AAV?$allocator@UGameSceneModel@mod@csgo@aw@@@0@@Z 1006ace0 f i gamescene_entity.obj
 0001:00069d30       ??$_Emplace_reallocate@AAUGameSceneModel@mod@csgo@aw@@@?$vector@UGameSceneModel@mod@csgo@aw@@V?$allocator@UGameSceneModel@mod@csgo@aw@@@std@@@std@@AAEPAUGameSceneModel@mod@csgo@aw@@QAU2345@AAU2345@@Z 1006ad30 f i gamescene_entity.obj
 0001:00069e80       ??$_Uninitialized_move@PAUGameSceneModel@mod@csgo@aw@@V?$allocator@UGameSceneModel@mod@csgo@aw@@@std@@@std@@YAPAUGameSceneModel@mod@csgo@aw@@QAU1234@0PAU1234@AAV?$allocator@UGameSceneModel@mod@csgo@aw@@@0@@Z 1006ae80 f i gamescene_entity.obj
 0001:00069f10       ??0GameSceneEntity@mod@csgo@aw@@QAE@XZ 1006af10 f   gamescene_entity.obj
 0001:00069fa0       ??0GameSceneModel@mod@csgo@aw@@QAE@ABU0123@@Z 1006afa0 f i gamescene_entity.obj
 0001:0006a070       ??1GameSceneEntity@mod@csgo@aw@@UAE@XZ 1006b070 f   gamescene_entity.obj
 0001:0006a170       ??_EGameSceneEntity@mod@csgo@aw@@UAEPAXI@Z 1006b170 f i gamescene_entity.obj
 0001:0006a170       ??_GGameSceneEntity@mod@csgo@aw@@UAEPAXI@Z 1006b170 f i gamescene_entity.obj
 0001:0006a280       ?AddMergedModel@GameSceneEntity@mod@csgo@aw@@QAEXV?$basic_string_view@DU?$char_traits@D@std@@@std@@@Z 1006b280 f   gamescene_entity.obj
 0001:0006a320       ?ClearMergedModels@GameSceneEntity@mod@csgo@aw@@QAEXXZ 1006b320 f   gamescene_entity.obj
 0001:0006a390       ?IsMergedStudioHdr@GameSceneEntity@mod@csgo@aw@@QAE_NPAUStudioHdr@sdk@34@@Z 1006b390 f   gamescene_entity.obj
 0001:0006a3c0       ?PostDrawModel@GameSceneEntity@mod@csgo@aw@@UAEXAAUDrawModel@hk@34@@Z 1006b3c0 f i gamescene_entity.obj
 0001:0006a3d0       ?PreDrawModel@GameSceneEntity@mod@csgo@aw@@UAEXAAUDrawModel@hk@34@@Z 1006b3d0 f i gamescene_entity.obj
 0001:0006a3e0       ?PrecacheModel@GameSceneEntity@mod@csgo@aw@@UAEXXZ 1006b3e0 f   gamescene_entity.obj
 0001:0006a4c0       ?Prepare@GameSceneEntity@mod@csgo@aw@@UAE_NXZ 1006b4c0 f   gamescene_entity.obj
 0001:0006a5e0       ?Render@GameSceneEntity@mod@csgo@aw@@QAEXXZ 1006b5e0 f   gamescene_entity.obj
 0001:0006a830       ?SetAngles@GameSceneEntity@mod@csgo@aw@@QAEXABVEulerAngles@4@@Z 1006b830 f   gamescene_entity.obj
 0001:0006a850       ?SetBaseModel@GameSceneEntity@mod@csgo@aw@@QAEXV?$basic_string_view@DU?$char_traits@D@std@@@std@@@Z 1006b850 f   gamescene_entity.obj
 0001:0006a880       ?SetOrigin@GameSceneEntity@mod@csgo@aw@@QAEXABVVector3@4@@Z 1006b880 f   gamescene_entity.obj
 0001:0006a8a0       ?_Xlength@?$vector@UGameSceneModel@mod@csgo@aw@@V?$allocator@UGameSceneModel@mod@csgo@aw@@@std@@@std@@CAXXZ 1006b8a0 f i gamescene_entity.obj
 0001:0006a8b0       ??$CreateModule@VViewRender@hk@csgo@aw@@@ModuleMgr@aw@@QAEPAVViewRender@hk@csgo@1@XZ 1006b8b0 f i gamescene_renderer.obj
 0001:0006a8c0       ??$FindModule@VViewRender@hk@csgo@aw@@@ModuleMgr@aw@@QAEPAVViewRender@hk@csgo@1@_N@Z 1006b8c0 f i gamescene_renderer.obj
 0001:0006a990       ??$FindOrCreateModule@VViewRender@hk@csgo@aw@@@ModuleMgr@aw@@QAEPAVViewRender@hk@csgo@1@XZ 1006b990 f i gamescene_renderer.obj
 0001:0006a9b0       ??$_Emplace_reallocate@PAVGameScene@mod@csgo@aw@@@?$vector@PAVGameScene@mod@csgo@aw@@V?$allocator@PAVGameScene@mod@csgo@aw@@@std@@@std@@AAEPAPAVGameScene@mod@csgo@aw@@QAPAV2345@$$QAPAV2345@@Z 1006b9b0 f i gamescene_renderer.obj
 0001:0006aaf0       ??$_Emplace_reallocate@UGameSceneRenderTarget@mod@csgo@aw@@@?$vector@UGameSceneRenderTarget@mod@csgo@aw@@V?$allocator@UGameSceneRenderTarget@mod@csgo@aw@@@std@@@std@@AAEPAUGameSceneRenderTarget@mod@csgo@aw@@QAU2345@$$QAU2345@@Z 1006baf0 f i gamescene_renderer.obj
 0001:0006ac80       ??0GameSceneRenderer@mod@csgo@aw@@QAE@XZ 1006bc80 f   gamescene_renderer.obj
 0001:0006ada0       ??_E?$ModuleBaseImpl@VGameSceneRenderer@mod@csgo@aw@@V?$TypedObject@VGameSceneRenderer@mod@csgo@aw@@VModuleBase@4@@4@@aw@@UAEPAXI@Z 1006bda0 f i gamescene_renderer.obj
 0001:0006ada0       ??_G?$ModuleBaseImpl@VGameSceneRenderer@mod@csgo@aw@@V?$TypedObject@VGameSceneRenderer@mod@csgo@aw@@VModuleBase@4@@4@@aw@@UAEPAXI@Z 1006bda0 f i gamescene_renderer.obj
 0001:0006add0       ??_EGameSceneRenderer@mod@csgo@aw@@UAEPAXI@Z 1006bdd0 f i gamescene_renderer.obj
 0001:0006add0       ??_GGameSceneRenderer@mod@csgo@aw@@UAEPAXI@Z 1006bdd0 f i gamescene_renderer.obj
 0001:0006ae80       ?CreateScene@GameSceneRenderer@mod@csgo@aw@@QAE?AV?$unique_ptr@VGameScene@mod@csgo@aw@@U?$default_delete@VGameScene@mod@csgo@aw@@@std@@@std@@XZ 1006be80 f   gamescene_renderer.obj
 0001:0006aee0       ?GetId@?$TypedObject@VGameSceneRenderer@mod@csgo@aw@@VModuleBase@4@@aw@@UAEIXZ 1006bee0 f i gamescene_renderer.obj
 0001:0006aef0       ?OnPostDrawModel@GameSceneRenderer@mod@csgo@aw@@IAEXAAUDrawModel@hk@34@@Z 1006bef0 f   gamescene_renderer.obj
 0001:0006af20       ?OnPreDrawModel@GameSceneRenderer@mod@csgo@aw@@IAEXAAUDrawModel@hk@34@@Z 1006bf20 f   gamescene_renderer.obj
 0001:0006af50       ?OnRender@GameSceneRenderer@mod@csgo@aw@@IAEXAAURenderFrame@gfx@4@@Z 1006bf50 f   gamescene_renderer.obj
 0001:0006b080       ?_Xlength@?$vector@PAVGameScene@mod@csgo@aw@@V?$allocator@PAVGameScene@mod@csgo@aw@@@std@@@std@@CAXXZ 1006c080 f i gamescene_renderer.obj
 0001:0006b090       ?_Xlength@?$vector@UGameSceneRenderTarget@mod@csgo@aw@@V?$allocator@UGameSceneRenderTarget@mod@csgo@aw@@@std@@@std@@CAXXZ 1006c090 f i gamescene_renderer.obj
 0001:0006b0a0       ??$CommandThunk@VSkinChanger@impl@mod@csgo@aw@@$1?OnSkinAdd@12345@IAEXAAV?$vector@V?$basic_string@DU?$char_traits@D@std@@V?$allocator@D@2@@std@@V?$allocator@V?$basic_string@DU?$char_traits@D@std@@V?$allocator@D@2@@std@@@2@@std@@@Z@ui@aw@@YAXPAXAAV?$vector@V?$basic_string@DU?$char_traits@D@std@@V?$allocator@D@2@@std@@V?$allocator@V?$basic_string@DU?$char_traits@D@std@@V?$allocator@D@2@@std@@@2@@std@@@Z 1006c0a0 f i skinchanger.obj
 0001:0006b0b0       ??$CommandThunk@VSkinChanger@impl@mod@csgo@aw@@$1?OnSkinClear@12345@IAEXAAV?$vector@V?$basic_string@DU?$char_traits@D@std@@V?$allocator@D@2@@std@@V?$allocator@V?$basic_string@DU?$char_traits@D@std@@V?$allocator@D@2@@std@@@2@@std@@@Z@ui@aw@@YAXPAXAAV?$vector@V?$basic_string@DU?$char_traits@D@std@@V?$allocator@D@2@@std@@V?$allocator@V?$basic_string@DU?$char_traits@D@std@@V?$allocator@D@2@@std@@@2@@std@@@Z 1006c0b0 f i skinchanger.obj
 0001:0006b0c0       ??$_Destroy_range@V?$allocator@USkinSavedItem@ui@csgo@aw@@@std@@@std@@YAXPAUSkinSavedItem@ui@csgo@aw@@QAU1234@AAV?$allocator@USkinSavedItem@ui@csgo@aw@@@0@@Z 1006c0c0 f i skinchanger.obj
 0001:0006b190       ??$_Emplace_reallocate@ABUEconItemDesignable@skinchanger@mod@csgo@aw@@@?$vector@UEconItemDesignable@skinchanger@mod@csgo@aw@@V?$allocator@UEconItemDesignable@skinchanger@mod@csgo@aw@@@std@@@std@@AAEPAUEconItemDesignable@skinchanger@mod@csgo@aw@@QAU23456@ABU23456@@Z 1006c190 f i skinchanger.obj
 0001:0006b320       ??$_Emplace_reallocate@ABUSkinChangerItem@ui@csgo@aw@@@?$vector@USkinChangerItem@ui@csgo@aw@@V?$allocator@USkinChangerItem@ui@csgo@aw@@@std@@@std@@AAEPAUSkinChangerItem@ui@csgo@aw@@QAU2345@ABU2345@@Z 1006c320 f i skinchanger.obj
 0001:0006b4a0       ??$_Emplace_reallocate@V?$basic_string@DU?$char_traits@D@std@@V?$allocator@D@2@@std@@@?$vector@V?$basic_string@DU?$char_traits@D@std@@V?$allocator@D@2@@std@@V?$allocator@V?$basic_string@DU?$char_traits@D@std@@V?$allocator@D@2@@std@@@2@@std@@AAEPAV?$basic_string@DU?$char_traits@D@std@@V?$allocator@D@2@@1@QAV21@$$QAV21@@Z 1006c4a0 f i skinchanger.obj
 0001:0006b620       ??$_Erase_tree@V?$allocator@U?$_Tree_node@U?$pair@$$CBHW4EconItemType@skinchanger@mod@csgo@aw@@@std@@PAX@std@@@std@@@?$_Tree_val@U?$_Tree_simple_types@U?$pair@$$CBHW4EconItemType@skinchanger@mod@csgo@aw@@@std@@@std@@@std@@QAEXAAV?$allocator@U?$_Tree_node@U?$pair@$$CBHW4EconItemType@skinchanger@mod@csgo@aw@@@std@@PAX@std@@@1@PAU?$_Tree_node@U?$pair@$$CBHW4EconItemType@skinchanger@mod@csgo@aw@@@std@@PAX@1@@Z 1006c620 f i skinchanger.obj
 0001:0006b660       ??$_Resize_reallocate@U_Value_init_tag@std@@@?$vector@USkinSavedItem@ui@csgo@aw@@V?$allocator@USkinSavedItem@ui@csgo@aw@@@std@@@std@@AAEXIABU_Value_init_tag@1@@Z 1006c660 f i skinchanger.obj
 0001:0006b7e0       ??$_Uninitialized_move@PAUEconItemDesignable@skinchanger@mod@csgo@aw@@V?$allocator@UEconItemDesignable@skinchanger@mod@csgo@aw@@@std@@@std@@YAPAUEconItemDesignable@skinchanger@mod@csgo@aw@@QAU12345@0PAU12345@AAV?$allocator@UEconItemDesignable@skinchanger@mod@csgo@aw@@@0@@Z 1006c7e0 f i skinchanger.obj
 0001:0006b810       ??$_Uninitialized_move@PAUSkinChangerItem@ui@csgo@aw@@V?$allocator@USkinChangerItem@ui@csgo@aw@@@std@@@std@@YAPAUSkinChangerItem@ui@csgo@aw@@QAU1234@0PAU1234@AAV?$allocator@USkinChangerItem@ui@csgo@aw@@@0@@Z 1006c810 f i skinchanger.obj
 0001:0006b840       ??$_Uninitialized_move@PAV?$basic_string@DU?$char_traits@D@std@@V?$allocator@D@2@@std@@V?$allocator@V?$basic_string@DU?$char_traits@D@std@@V?$allocator@D@2@@std@@@2@@std@@YAPAV?$basic_string@DU?$char_traits@D@std@@V?$allocator@D@2@@0@QAV10@0PAV10@AAV?$allocator@V?$basic_string@DU?$char_traits@D@std@@V?$allocator@D@2@@std@@@0@@Z 1006c840 f i skinchanger.obj
 0001:0006b8c0       ??$_Uninitialized_value_construct_n@V?$allocator@USkinSavedItem@ui@csgo@aw@@@std@@@std@@YAPAUSkinSavedItem@ui@csgo@aw@@PAU1234@IAAV?$allocator@USkinSavedItem@ui@csgo@aw@@@0@@Z 1006c8c0 f i skinchanger.obj
 0001:0006b900       ??0?$vector@PAVPaintKit@sdk@csgo@aw@@V?$allocator@PAVPaintKit@sdk@csgo@aw@@@std@@@std@@QAE@ABV01@@Z 1006c900 f i skinchanger.obj
 0001:0006b9b0       ??0?$vector@PAVStickerKit@sdk@csgo@aw@@V?$allocator@PAVStickerKit@sdk@csgo@aw@@@std@@@std@@QAE@ABV01@@Z 1006c9b0 f i skinchanger.obj
 0001:0006ba60       ??0EconItemDesign@skinchanger@mod@csgo@aw@@QAE@ABV01234@@Z 1006ca60 f i skinchanger.obj
 0001:0006bad0       ??0EconItemDesignable@skinchanger@mod@csgo@aw@@QAE@$$QAU01234@@Z 1006cad0 f i skinchanger.obj
 0001:0006bb40       ??0SkinChanger@impl@mod@csgo@aw@@QAE@XZ 1006cb40 f i skinchanger.obj
 0001:0006bd40       ??0SkinChangerItem@ui@csgo@aw@@QAE@$$QAU0123@@Z 1006cd40 f i skinchanger.obj
 0001:0006bdb0       ??0SkinSavedItem@ui@csgo@aw@@QAE@$$QAU0123@@Z 1006cdb0 f i skinchanger.obj
 0001:0006be90       ??0SkinSavedItem@ui@csgo@aw@@QAE@XZ 1006ce90 f i skinchanger.obj
 0001:0006bf00       ??1?$_Tree@V?$_Tmap_traits@HW4EconItemType@skinchanger@mod@csgo@aw@@U?$less@H@std@@V?$allocator@U?$pair@$$CBHW4EconItemType@skinchanger@mod@csgo@aw@@@std@@@7@$0A@@std@@@std@@QAE@XZ 1006cf00 f i skinchanger.obj
 0001:0006bf40       ??1EconItemDesign@skinchanger@mod@csgo@aw@@QAE@XZ 1006cf40 f i skinchanger.obj
 0001:0006bff0       ??1EconItemDesignable@skinchanger@mod@csgo@aw@@QAE@XZ 1006cff0 f i skinchanger.obj
 0001:0006c070       ??1SkinChangerItem@ui@csgo@aw@@QAE@XZ 1006d070 f i skinchanger.obj
 0001:0006c0f0       ??A?$map@HW4EconItemType@skinchanger@mod@csgo@aw@@U?$less@H@std@@V?$allocator@U?$pair@$$CBHW4EconItemType@skinchanger@mod@csgo@aw@@@std@@@7@@std@@QAEAAW4EconItemType@skinchanger@mod@csgo@aw@@ABH@Z 1006d0f0 f i skinchanger.obj
 0001:0006c190       ??_E?$ModuleBaseImpl@VSkinChanger@mod@csgo@aw@@V?$TypedObject@VSkinChanger@mod@csgo@aw@@VModuleBase@4@@4@@aw@@UAEPAXI@Z 1006d190 f i skinchanger.obj
 0001:0006c190       ??_G?$ModuleBaseImpl@VSkinChanger@mod@csgo@aw@@V?$TypedObject@VSkinChanger@mod@csgo@aw@@VModuleBase@4@@4@@aw@@UAEPAXI@Z 1006d190 f i skinchanger.obj
 0001:0006c1c0       ??_ESkinChanger@impl@mod@csgo@aw@@UAEPAXI@Z 1006d1c0 f i skinchanger.obj
 0001:0006c1c0       ??_GSkinChanger@impl@mod@csgo@aw@@UAEPAXI@Z 1006d1c0 f i skinchanger.obj
 0001:0006c200       ?AddSkin@SkinChanger@impl@mod@csgo@aw@@UAEXHHV?$basic_string_view@DU?$char_traits@D@std@@@std@@000PAH@Z 1006d200 f   skinchanger.obj
 0001:0006c640       ?AddToEconItemDesignable@SkinChanger@impl@mod@csgo@aw@@IAEXPAVEconItemDefinition@sdk@45@@Z 1006d640 f   skinchanger.obj
 0001:0006ca50       ?CreateModule@?$ModuleWithFactory@VSkinChanger@mod@csgo@aw@@@aw@@SAPAVSkinChanger@mod@csgo@2@XZ 1006da50 f   skinchanger.obj
 0001:0006ca80       ?ForceFullUpdate@SkinChanger@impl@mod@csgo@aw@@UAEXXZ 1006da80 f   skinchanger.obj
 0001:0006ca90       ?GetEconItemDesignableList@SkinChanger@impl@mod@csgo@aw@@UAEAAV?$vector@UEconItemDesignable@skinchanger@mod@csgo@aw@@V?$allocator@UEconItemDesignable@skinchanger@mod@csgo@aw@@@std@@@std@@XZ 1006da90 f i skinchanger.obj
 0001:0006caa0       ?GetId@?$TypedObject@VSkinChanger@mod@csgo@aw@@VModuleBase@4@@aw@@UAEIXZ 1006daa0 f i skinchanger.obj
 0001:0006cab0       ?GetItemDefinitionType@SkinChanger@impl@mod@csgo@aw@@UAE?AW4EconItemType@skinchanger@345@H@Z 1006dab0 f i skinchanger.obj
 0001:0006cad0       ?GetItemDefinitionType@SkinChanger@impl@mod@csgo@aw@@UAE?AW4EconItemType@skinchanger@345@PAVEconItemDefinition@sdk@45@@Z 1006dad0 f i skinchanger.obj
 0001:0006caf0       ?Initialize@SkinChanger@impl@mod@csgo@aw@@IAEXXZ 1006daf0 f   skinchanger.obj
 0001:0006cf10       ?IsEnabled@SkinChanger@impl@mod@csgo@aw@@UAE_NXZ 1006df10 f i skinchanger.obj
 0001:0006cf50       ?OnConfigLoad@SkinChanger@impl@mod@csgo@aw@@IAEXAAUConfigLoad@ui@5@@Z 1006df50 f   skinchanger.obj
 0001:0006cf70       ?OnConfigReset@SkinChanger@impl@mod@csgo@aw@@IAEXAAUConfigReset@ui@5@@Z 1006df70 f   skinchanger.obj
 0001:0006cfc0       ?OnConfigSave@SkinChanger@impl@mod@csgo@aw@@IAEXAAUConfigSave@ui@5@@Z 1006dfc0 f   skinchanger.obj
 0001:0006d840       ?OnReadPacketEntities@SkinChanger@impl@mod@csgo@aw@@IAEXAAUReadPacketEntities@hk@45@@Z 1006e840 f   skinchanger.obj
 0001:0006d900       ?OnRegisterCmds@SkinChanger@impl@mod@csgo@aw@@IAEXAAURegisterCommands@ui@5@@Z 1006e900 f   skinchanger.obj
 0001:0006daa0       ?OnRender@SkinChanger@impl@mod@csgo@aw@@IAEXAAURenderFrame@gfx@5@@Z 1006eaa0 f   skinchanger.obj
 0001:0006dad0       ?OnSkinAdd@SkinChanger@impl@mod@csgo@aw@@IAEXAAV?$vector@V?$basic_string@DU?$char_traits@D@std@@V?$allocator@D@2@@std@@V?$allocator@V?$basic_string@DU?$char_traits@D@std@@V?$allocator@D@2@@std@@@2@@std@@@Z 1006ead0 f   skinchanger.obj
 0001:0006e280       ?OnSkinClear@SkinChanger@impl@mod@csgo@aw@@IAEXAAV?$vector@V?$basic_string@DU?$char_traits@D@std@@V?$allocator@D@2@@std@@V?$allocator@V?$basic_string@DU?$char_traits@D@std@@V?$allocator@D@2@@std@@@2@@std@@@Z 1006f280 f   skinchanger.obj
 0001:0006e2f0       ?ReloadHudIcons@SkinChanger@impl@mod@csgo@aw@@UAEXXZ 1006f2f0 f   skinchanger.obj
 0001:0006e4f0       ?RemoveSkin@SkinChanger@impl@mod@csgo@aw@@UAEXH@Z 1006f4f0 f   skinchanger.obj
 0001:0006e540       ?_Insert_node@?$_Tree_val@U?$_Tree_simple_types@U?$pair@$$CBHW4EconItemType@skinchanger@mod@csgo@aw@@@std@@@std@@@std@@QAEPAU?$_Tree_node@U?$pair@$$CBHW4EconItemType@skinchanger@mod@csgo@aw@@@std@@PAX@2@U?$_Tree_id@PAU?$_Tree_node@U?$pair@$$CBHW4EconItemType@skinchanger@mod@csgo@aw@@@std@@PAX@std@@@2@QAU32@@Z 1006f540 f i skinchanger.obj
 0001:0006e730       ?_Tidy@?$vector@UEconItemDesignable@skinchanger@mod@csgo@aw@@V?$allocator@UEconItemDesignable@skinchanger@mod@csgo@aw@@@std@@@std@@AAEXXZ 1006f730 f i skinchanger.obj
 0001:0006e7a0       ?_Xlength@?$vector@PAVPaintKit@sdk@csgo@aw@@V?$allocator@PAVPaintKit@sdk@csgo@aw@@@std@@@std@@CAXXZ 1006f7a0 f i skinchanger.obj
 0001:0006e7b0       ?_Xlength@?$vector@PAVStickerKit@sdk@csgo@aw@@V?$allocator@PAVStickerKit@sdk@csgo@aw@@@std@@@std@@CAXXZ 1006f7b0 f i skinchanger.obj
 0001:0006e7c0       ?_Xlength@?$vector@UEconItemDesignable@skinchanger@mod@csgo@aw@@V?$allocator@UEconItemDesignable@skinchanger@mod@csgo@aw@@@std@@@std@@CAXXZ 1006f7c0 f i skinchanger.obj
 0001:0006e7d0       ?_Xlength@?$vector@USkinChangerItem@ui@csgo@aw@@V?$allocator@USkinChangerItem@ui@csgo@aw@@@std@@@std@@CAXXZ 1006f7d0 f i skinchanger.obj
 0001:0006e7e0       ?_Xlength@?$vector@USkinSavedItem@ui@csgo@aw@@V?$allocator@USkinSavedItem@ui@csgo@aw@@@std@@@std@@CAXXZ 1006f7e0 f i skinchanger.obj
 0001:0006e7f0       ?allocate@?$allocator@PAVPaintKit@sdk@csgo@aw@@@std@@QAEPAPAVPaintKit@sdk@csgo@aw@@I@Z 1006f7f0 f i skinchanger.obj
 0001:0006e850       ?allocate@?$allocator@PAVStickerKit@sdk@csgo@aw@@@std@@QAEPAPAVStickerKit@sdk@csgo@aw@@I@Z 1006f850 f i skinchanger.obj
 0001:0006e8b0       ?allocate@?$allocator@UEconItemDesignable@skinchanger@mod@csgo@aw@@@std@@QAEPAUEconItemDesignable@skinchanger@mod@csgo@aw@@I@Z 1006f8b0 f i skinchanger.obj
 0001:0006e910       ??$_Emplace_reallocate@AAVEconItemDesign@skinchanger@mod@csgo@aw@@@?$vector@VEconItemDesign@skinchanger@mod@csgo@aw@@V?$allocator@VEconItemDesign@skinchanger@mod@csgo@aw@@@std@@@std@@AAEPAVEconItemDesign@skinchanger@mod@csgo@aw@@QAV23456@AAV23456@@Z 1006f910 f i skinchanger_interface.obj
 0001:0006eab0       ??$_Uninitialized_move@PAVEconItemDesign@skinchanger@mod@csgo@aw@@V?$allocator@VEconItemDesign@skinchanger@mod@csgo@aw@@@std@@@std@@YAPAVEconItemDesign@skinchanger@mod@csgo@aw@@QAV12345@0PAV12345@AAV?$allocator@VEconItemDesign@skinchanger@mod@csgo@aw@@@0@@Z 1006fab0 f i skinchanger_interface.obj
 0001:0006eae0       ??0EconItemDesign@skinchanger@mod@csgo@aw@@QAE@$$QAV01234@@Z 1006fae0 f i skinchanger_interface.obj
 0001:0006ebd0       ??0OverrideBase@skinchanger@mod@csgo@aw@@QAE@XZ 1006fbd0 f   skinchanger_interface.obj
 0001:0006ebf0       ?AddEconItemDesign@OverrideBase@skinchanger@mod@csgo@aw@@QAEXVEconItemDesign@2345@@Z 1006fbf0 f   skinchanger_interface.obj
 0001:0006ecc0       ?RemoveEconItemDesign@OverrideBase@skinchanger@mod@csgo@aw@@QAEXH@Z 1006fcc0 f   skinchanger_interface.obj
 0001:0006eda0       ?ResetEconItemDesign@OverrideBase@skinchanger@mod@csgo@aw@@QAEXXZ 1006fda0 f   skinchanger_interface.obj
 0001:0006edd0       ?_Xlength@?$vector@VEconItemDesign@skinchanger@mod@csgo@aw@@V?$allocator@VEconItemDesign@skinchanger@mod@csgo@aw@@@std@@@std@@CAXXZ 1006fdd0 f i skinchanger_interface.obj
 0001:0006ede0       ??_E?$ModuleBaseImpl@VPlayerOverride@skinchanger@mod@csgo@aw@@V?$TypedObject@VPlayerOverride@skinchanger@mod@csgo@aw@@VModuleBase@5@@5@@aw@@UAEPAXI@Z 1006fde0 f i skinchanger_player.obj
 0001:0006ede0       ??_G?$ModuleBaseImpl@VPlayerOverride@skinchanger@mod@csgo@aw@@V?$TypedObject@VPlayerOverride@skinchanger@mod@csgo@aw@@VModuleBase@5@@5@@aw@@UAEPAXI@Z 1006fde0 f i skinchanger_player.obj
 0001:0006ee10       ??_E?$ModuleWithFactory@VPlayerOverride@skinchanger@mod@csgo@aw@@@aw@@UAEPAXI@Z 1006fe10 f i skinchanger_player.obj
 0001:0006ee10       ??_G?$ModuleWithFactory@VPlayerOverride@skinchanger@mod@csgo@aw@@@aw@@UAEPAXI@Z 1006fe10 f i skinchanger_player.obj
 0001:0006ee40       ??_EPlayerOverride@impl@skinchanger@mod@csgo@aw@@UAEPAXI@Z 1006fe40 f i skinchanger_player.obj
 0001:0006ee40       ??_GPlayerOverride@impl@skinchanger@mod@csgo@aw@@UAEPAXI@Z 1006fe40 f i skinchanger_player.obj
 0001:0006ee70       ?CreateModule@?$ModuleWithFactory@VPlayerOverride@skinchanger@mod@csgo@aw@@@aw@@SAPAVPlayerOverride@skinchanger@mod@csgo@2@XZ 1006fe70 f   skinchanger_player.obj
 0001:0006eef0       ?GetId@?$TypedObject@VPlayerOverride@skinchanger@mod@csgo@aw@@VModuleBase@5@@aw@@UAEIXZ 1006fef0 f i skinchanger_player.obj
 0001:0006ef00       ?Update@PlayerOverride@impl@skinchanger@mod@csgo@aw@@MAEXPAVCSPlayer@sdk@56@_K@Z 1006ff00 f   skinchanger_player.obj
 0001:0006ef40       ?_Tidy@?$vector@VEconItemDesign@skinchanger@mod@csgo@aw@@V?$allocator@VEconItemDesign@skinchanger@mod@csgo@aw@@@std@@@std@@AAEXXZ 1006ff40 f i skinchanger_player.obj
 0001:0006f060       ??_E?$ModuleBaseImpl@VWeaponOverride@skinchanger@mod@csgo@aw@@V?$TypedObject@VWeaponOverride@skinchanger@mod@csgo@aw@@VModuleBase@5@@5@@aw@@UAEPAXI@Z 10070060 f i skinchanger_weapon.obj
 0001:0006f060       ??_G?$ModuleBaseImpl@VWeaponOverride@skinchanger@mod@csgo@aw@@V?$TypedObject@VWeaponOverride@skinchanger@mod@csgo@aw@@VModuleBase@5@@5@@aw@@UAEPAXI@Z 10070060 f i skinchanger_weapon.obj
 0001:0006f090       ??_E?$ModuleWithFactory@VWeaponOverride@skinchanger@mod@csgo@aw@@@aw@@UAEPAXI@Z 10070090 f i skinchanger_weapon.obj
 0001:0006f090       ??_G?$ModuleWithFactory@VWeaponOverride@skinchanger@mod@csgo@aw@@@aw@@UAEPAXI@Z 10070090 f i skinchanger_weapon.obj
 0001:0006f0c0       ??_EWeaponOverride@impl@skinchanger@mod@csgo@aw@@UAEPAXI@Z 100700c0 f i skinchanger_weapon.obj
 0001:0006f0c0       ??_GWeaponOverride@impl@skinchanger@mod@csgo@aw@@UAEPAXI@Z 100700c0 f i skinchanger_weapon.obj
 0001:0006f0f0       ?CreateModule@?$ModuleWithFactory@VWeaponOverride@skinchanger@mod@csgo@aw@@@aw@@SAPAVWeaponOverride@skinchanger@mod@csgo@2@XZ 100700f0 f   skinchanger_weapon.obj
 0001:0006f280       ?GetId@?$TypedObject@VWeaponOverride@skinchanger@mod@csgo@aw@@VModuleBase@5@@aw@@UAEIXZ 10070280 f i skinchanger_weapon.obj
 0001:0006f290       ?GetItemDesignByDefinitionIndex@WeaponOverride@impl@skinchanger@mod@csgo@aw@@IAEPAVEconItemDesign@3456@H@Z 10070290 f   skinchanger_weapon.obj
 0001:0006f2e0       ?HkGetStickerAttributeBySlotIndexInt@WeaponOverride@impl@skinchanger@mod@csgo@aw@@KIIPAXHHHI@Z 100702e0 f   skinchanger_weapon.obj
 0001:0006f330       ?OnBaseViewModelSequence@WeaponOverride@impl@skinchanger@mod@csgo@aw@@IAEXAAUBaseViewModelSequence@hk@56@@Z 10070330 f   skinchanger_weapon.obj
 0001:0006f4e0       ?OnFireEventClientSide@WeaponOverride@impl@skinchanger@mod@csgo@aw@@IAEXAAUGameEventClientSide@hk@56@@Z 100704e0 f   skinchanger_weapon.obj
 0001:0006fb60       ?OnGetStickerAttributeBySlotIndexInt@WeaponOverride@impl@skinchanger@mod@csgo@aw@@MAEXAAUGetStickerAttributeBySlotIndexInt@456@@Z 10070b60 f   skinchanger_weapon.obj
 0001:0006fc10       ?OnPostRunCommand@WeaponOverride@impl@skinchanger@mod@csgo@aw@@IAEXAAURunCommand@hk@56@@Z 10070c10 f   skinchanger_weapon.obj
 0001:0006fc90       ?OnPreRunCommand@WeaponOverride@impl@skinchanger@mod@csgo@aw@@IAEXAAURunCommand@hk@56@@Z 10070c90 f   skinchanger_weapon.obj
 0001:0006fd10       ?Update@WeaponOverride@impl@skinchanger@mod@csgo@aw@@UAEXPAVCSPlayer@sdk@56@_K@Z 10070d10 f   skinchanger_weapon.obj
 0001:0006fef0       ?UpdateBaseCombatWeapon@WeaponOverride@impl@skinchanger@mod@csgo@aw@@IAEXPAVBaseCombatWeapon@sdk@56@@Z 10070ef0 f   skinchanger_weapon.obj
 0001:00070200       ??_E?$ModuleBaseImpl@VWearableOverride@skinchanger@mod@csgo@aw@@V?$TypedObject@VWearableOverride@skinchanger@mod@csgo@aw@@VModuleBase@5@@5@@aw@@UAEPAXI@Z 10071200 f i skinchanger_wearable.obj
 0001:00070200       ??_G?$ModuleBaseImpl@VWearableOverride@skinchanger@mod@csgo@aw@@V?$TypedObject@VWearableOverride@skinchanger@mod@csgo@aw@@VModuleBase@5@@5@@aw@@UAEPAXI@Z 10071200 f i skinchanger_wearable.obj
 0001:00070230       ??_E?$ModuleWithFactory@VWearableOverride@skinchanger@mod@csgo@aw@@@aw@@UAEPAXI@Z 10071230 f i skinchanger_wearable.obj
 0001:00070230       ??_G?$ModuleWithFactory@VWearableOverride@skinchanger@mod@csgo@aw@@@aw@@UAEPAXI@Z 10071230 f i skinchanger_wearable.obj
 0001:00070260       ??_EWearableOverride@impl@skinchanger@mod@csgo@aw@@UAEPAXI@Z 10071260 f i skinchanger_wearable.obj
 0001:00070260       ??_GWearableOverride@impl@skinchanger@mod@csgo@aw@@UAEPAXI@Z 10071260 f i skinchanger_wearable.obj
 0001:00070290       ?CreateModule@?$ModuleWithFactory@VWearableOverride@skinchanger@mod@csgo@aw@@@aw@@SAPAVWearableOverride@skinchanger@mod@csgo@2@XZ 10071290 f   skinchanger_wearable.obj
 0001:00070310       ?GetId@?$TypedObject@VWearableOverride@skinchanger@mod@csgo@aw@@VModuleBase@5@@aw@@UAEIXZ 10071310 f i skinchanger_wearable.obj
 0001:00070320       ?Update@WearableOverride@impl@skinchanger@mod@csgo@aw@@UAEXPAVCSPlayer@sdk@56@_K@Z 10071320 f   skinchanger_wearable.obj
 0001:000704b0       ??0EspEntityBase@mod@csgo@aw@@QAE@PAVObjectBase@ui@3@@Z 100714b0 f   esp_entity_base.obj
 0001:00070600       ??1EspEntityBase@mod@csgo@aw@@UAE@XZ 10071600 f i esp_entity_base.obj
 0001:00070800       ??_EEspEntityBase@mod@csgo@aw@@UAEPAXI@Z 10071800 f i esp_entity_base.obj
 0001:00070800       ??_GEspEntityBase@mod@csgo@aw@@UAEPAXI@Z 10071800 f i esp_entity_base.obj
 0001:00070830       ?AllowVarHelper@EspEntityBase@mod@csgo@aw@@UAE_NXZ 10071830 f   esp_entity_base.obj
 0001:00070840       ?Build@EspEntityBase@mod@csgo@aw@@UAEXXZ 10071840 f   esp_entity_base.obj
 0001:00070fe0       ?GetBoxColor@EspEntityBase@mod@csgo@aw@@QAE?AUColor@gfx@4@PAVBaseEntity@sdk@34@@Z 10071fe0 f   esp_entity_base.obj
 0001:00071060       ?GetDefaultBoxColor@EspEntityBase@mod@csgo@aw@@UAE?AUColor@gfx@4@XZ 10072060 f   esp_entity_base.obj
 0001:00071070       ?GetType@?$Object@VGroupbox@ui@aw@@@ui@aw@@UAEIXZ 10072070 f i esp_entity_base.obj
 0001:00071080       ?IsEnemy@EspEntityBase@mod@csgo@aw@@UAE_NXZ 10072080 f   esp_entity_base.obj
 0001:00071090       ?IsPlayer@EspEntityBase@mod@csgo@aw@@UAE_NXZ 10072090 f   esp_entity_base.obj
 0001:000710a0       ?IsWeapon@EspEntityBase@mod@csgo@aw@@UAE_NXZ 100720a0 f   esp_entity_base.obj
 0001:000710b0       ?_Xlength@?$vector@PAVEspElementBase@mod@csgo@aw@@V?$allocator@PAVEspElementBase@mod@csgo@aw@@@std@@@std@@CAXXZ 100720b0 f i esp_entity_base.obj
 0001:000710c0       ?allocate@?$allocator@PAVEspElementBase@mod@csgo@aw@@@std@@QAEPAPAVEspElementBase@mod@csgo@aw@@I@Z 100720c0 f i esp_entity_base.obj
 0001:00071120       ?push_back@?$vector@PAVEspElementBase@mod@csgo@aw@@V?$allocator@PAVEspElementBase@mod@csgo@aw@@@std@@@std@@QAEX$$QAPAVEspElementBase@mod@csgo@aw@@@Z 10072120 f i esp_entity_base.obj
 0001:00071220       ?GetDefaultBoxColor@EspEntityEnemy@mod@csgo@aw@@UAE?AUColor@gfx@4@XZ 10072220 f   esp_entity_enemy.obj
 0001:00071230       ?IsEnemy@EspEntityEnemy@mod@csgo@aw@@UAE_NXZ 10072230 f   esp_entity_enemy.obj
 0001:00071240       ?GetDefaultBoxColor@EspEntityFriend@mod@csgo@aw@@UAE?AUColor@gfx@4@XZ 10072240 f   esp_entity_friend.obj
 0001:00071250       ?IsEnemy@EspEntityFriend@mod@csgo@aw@@UAE_NXZ 10072250 f   esp_entity_friend.obj
 0001:00071260       ?IsPlayer@EspEntityPlayer@mod@csgo@aw@@UAE_NXZ 10072260 f   esp_entity_player.obj
 0001:00071270       ?Build@EspEntityWeapon@mod@csgo@aw@@UAEXXZ 10072270 f   esp_entity_weapon.obj
 0001:000712e0       ?GetDefaultBoxColor@EspEntityWeapon@mod@csgo@aw@@UAE?AUColor@gfx@4@XZ 100722e0 f   esp_entity_weapon.obj
 0001:000712f0       ?IsWeapon@EspEntityWeapon@mod@csgo@aw@@UAE_NXZ 100722f0 f   esp_entity_weapon.obj
 0001:00071300       ?GetDynamic@PanoramaUIEngine@sdk@csgo@aw@@SAPAV1234@XZ 10072300 f i stdafx.obj
 0001:00071320       ??$_Emplace_reallocate@AAPAVBaseCSGrenadeProjectile@sdk@csgo@aw@@@?$vector@PAVBaseCSGrenadeProjectile@sdk@csgo@aw@@V?$allocator@PAVBaseCSGrenadeProjectile@sdk@csgo@aw@@@std@@@std@@AAEPAPAVBaseCSGrenadeProjectile@sdk@csgo@aw@@QAPAV2345@AAPAV2345@@Z 10072320 f i esp_drawhelper.obj
 0001:00071460       ??$_Emplace_reallocate@AAPAVBaseEntity@sdk@csgo@aw@@@?$vector@PAVBaseEntity@sdk@csgo@aw@@V?$allocator@PAVBaseEntity@sdk@csgo@aw@@@std@@@std@@AAEPAPAVBaseEntity@sdk@csgo@aw@@QAPAV2345@AAPAV2345@@Z 10072460 f i esp_drawhelper.obj
 0001:000715a0       ??$_Emplace_reallocate@AAPAVCSPlayer@sdk@csgo@aw@@@?$vector@PAVCSPlayer@sdk@csgo@aw@@V?$allocator@PAVCSPlayer@sdk@csgo@aw@@@std@@@std@@AAEPAPAVCSPlayer@sdk@csgo@aw@@QAPAV2345@AAPAV2345@@Z 100725a0 f i esp_drawhelper.obj
 0001:000716e0       ??$_Emplace_reallocate@AAPAVInferno@sdk@csgo@aw@@@?$vector@PAVInferno@sdk@csgo@aw@@V?$allocator@PAVInferno@sdk@csgo@aw@@@std@@@std@@AAEPAPAVInferno@sdk@csgo@aw@@QAPAV2345@AAPAV2345@@Z 100726e0 f i esp_drawhelper.obj
 0001:00071820       ??1EspDrawHelper@impl@mod@csgo@aw@@UAE@XZ 10072820 f i esp_drawhelper.obj
 0001:00071960       ??_E?$ModuleBaseImpl@VEspDrawHelper@mod@csgo@aw@@V?$TypedObject@VEspDrawHelper@mod@csgo@aw@@VModuleBase@4@@4@@aw@@UAEPAXI@Z 10072960 f i esp_drawhelper.obj
 0001:00071960       ??_G?$ModuleBaseImpl@VEspDrawHelper@mod@csgo@aw@@V?$TypedObject@VEspDrawHelper@mod@csgo@aw@@VModuleBase@4@@4@@aw@@UAEPAXI@Z 10072960 f i esp_drawhelper.obj
 0001:00071990       ??_EEspDraw@mod@csgo@aw@@UAEPAXI@Z 10072990 f i esp_drawhelper.obj
 0001:00071990       ??_GEspDraw@mod@csgo@aw@@UAEPAXI@Z 10072990 f i esp_drawhelper.obj
 0001:000719c0       ??_EEspDrawHelper@impl@mod@csgo@aw@@UAEPAXI@Z 100729c0 f i esp_drawhelper.obj
 0001:000719c0       ??_GEspDrawHelper@impl@mod@csgo@aw@@UAEPAXI@Z 100729c0 f i esp_drawhelper.obj
 0001:000719e0       ?CreateModule@?$ModuleWithFactory@VEspDrawHelper@mod@csgo@aw@@@aw@@SAPAVEspDrawHelper@mod@csgo@2@XZ 100729e0 f   esp_drawhelper.obj
 0001:00071b90       ?GetId@?$TypedObject@UEspDraw@mod@csgo@aw@@UCallbackVars@4@@aw@@UAEIXZ 10072b90 f i esp_drawhelper.obj
 0001:00071ba0       ?GetId@?$TypedObject@VEspDrawHelper@mod@csgo@aw@@VModuleBase@4@@aw@@UAEIXZ 10072ba0 f i esp_drawhelper.obj
 0001:00071bb0       ?OnAddEntity@EspDrawHelper@impl@mod@csgo@aw@@IAEXAAUOnAddEntityCallback@hk@45@@Z 10072bb0 f   esp_drawhelper.obj
 0001:00071bc0       ?OnInit@EspDrawHelper@impl@mod@csgo@aw@@IAEXAAUCommonInit@5@@Z 10072bc0 f   esp_drawhelper.obj
 0001:00071d10       ?OnRemoveEntity@EspDrawHelper@impl@mod@csgo@aw@@IAEXAAUOnRemoveEntityCallback@hk@45@@Z 10072d10 f   esp_drawhelper.obj
 0001:00071e70       ?OnRender@EspDrawHelper@impl@mod@csgo@aw@@IAEXAAURenderFrame@gfx@5@@Z 10072e70 f   esp_drawhelper.obj
 0001:00071f10       ?ValidateAndAddEntity@EspDrawHelper@impl@mod@csgo@aw@@IAEXPAVBaseEntity@sdk@45@@Z 10072f10 f   esp_drawhelper.obj
 0001:00072000       ?_Xlength@?$vector@PAVBaseCSGrenadeProjectile@sdk@csgo@aw@@V?$allocator@PAVBaseCSGrenadeProjectile@sdk@csgo@aw@@@std@@@std@@CAXXZ 10073000 f i esp_drawhelper.obj
 0001:00072010       ?_Xlength@?$vector@PAVBaseEntity@sdk@csgo@aw@@V?$allocator@PAVBaseEntity@sdk@csgo@aw@@@std@@@std@@CAXXZ 10073010 f i esp_drawhelper.obj
 0001:00072020       ?_Xlength@?$vector@PAVCSPlayer@sdk@csgo@aw@@V?$allocator@PAVCSPlayer@sdk@csgo@aw@@@std@@@std@@CAXXZ 10073020 f i esp_drawhelper.obj
 0001:00072030       ?_Xlength@?$vector@PAVInferno@sdk@csgo@aw@@V?$allocator@PAVInferno@sdk@csgo@aw@@@std@@@std@@CAXXZ 10073030 f i esp_drawhelper.obj
 0001:00072040       ??_E?$ModuleBaseImpl@VEntityExtender@mod@csgo@aw@@V?$TypedObject@VEntityExtender@mod@csgo@aw@@VModuleBase@4@@4@@aw@@UAEPAXI@Z 10073040 f i esp_extender.obj
 0001:00072040       ??_G?$ModuleBaseImpl@VEntityExtender@mod@csgo@aw@@V?$TypedObject@VEntityExtender@mod@csgo@aw@@VModuleBase@4@@4@@aw@@UAEPAXI@Z 10073040 f i esp_extender.obj
 0001:00072070       ??_EEntityExtender@impl@mod@csgo@aw@@UAEPAXI@Z 10073070 f i esp_extender.obj
 0001:00072070       ??_GEntityExtender@impl@mod@csgo@aw@@UAEPAXI@Z 10073070 f i esp_extender.obj
 0001:000720a0       ?CreateModule@?$ModuleWithFactory@VEntityExtender@mod@csgo@aw@@@aw@@SAPAVEntityExtender@mod@csgo@2@XZ 100730a0 f   esp_extender.obj
 0001:000721c0       ?GetCurrentTime@EntityExtender@impl@mod@csgo@aw@@UAEMXZ 100731c0 f i esp_extender.obj
 0001:000721d0       ?GetDormantTime@EntityExtender@impl@mod@csgo@aw@@UAEMPAVBaseEntity@sdk@45@@Z 100731d0 f   esp_extender.obj
 0001:00072210       ?GetEntityTrack@EntityExtender@impl@mod@csgo@aw@@UAEPAUEntityTracker@345@H@Z 10073210 f   esp_extender.obj
 0001:00072230       ?GetEntityTrack@EntityExtender@impl@mod@csgo@aw@@UAEPAUEntityTracker@345@PAVBaseEntity@sdk@45@@Z 10073230 f   esp_extender.obj
 0001:00072250       ?GetId@?$TypedObject@VEntityExtender@mod@csgo@aw@@VModuleBase@4@@aw@@UAEIXZ 10073250 f i esp_extender.obj
 0001:00072260       ?OnActive@EntityExtender@impl@mod@csgo@aw@@UAEXPAVBaseEntity@sdk@45@@Z 10073260 f   esp_extender.obj
 0001:000722d0       ?OnDormant@EntityExtender@impl@mod@csgo@aw@@UAE_NPAVBaseEntity@sdk@45@@Z 100732d0 f   esp_extender.obj
 0001:00072420       ?OnGameEvent@EntityExtender@impl@mod@csgo@aw@@IAEXAAUGameEvent@hk@45@@Z 10073420 f   esp_extender.obj
 0001:00072630       ?Update@EntityExtender@impl@mod@csgo@aw@@UAEXM@Z 10073630 f   esp_extender.obj
 0001:00072850       ??$_Emplace_one_at_back@ABUVector2@dt@@@?$vector@UVector2@dt@@V?$allocator@UVector2@dt@@@std@@@std@@AAEAAUVector2@dt@@ABU23@@Z 10073850 f i esp_inferno.obj
 0001:00072980       ??$_Emplace_one_at_back@UVector2@dt@@@?$vector@UVector2@dt@@V?$allocator@UVector2@dt@@@std@@@std@@AAEAAUVector2@dt@@$$QAU23@@Z 10073980 f i esp_inferno.obj
 0001:00072ab0       ??0EspInferno@impl@mod@csgo@aw@@QAE@XZ 10073ab0 f i esp_inferno.obj
 0001:00072c50       ??1EspInferno@impl@mod@csgo@aw@@UAE@XZ 10073c50 f i esp_inferno.obj
 0001:00072d80       ??A?$map@HMU?$less@H@std@@V?$allocator@U?$pair@$$CBHM@std@@@2@@std@@QAEAAM$$QAH@Z 10073d80 f i esp_inferno.obj
 0001:00072e20       ??_E?$ModuleBaseImpl@VEspInferno@mod@csgo@aw@@V?$TypedObject@VEspInferno@mod@csgo@aw@@VModuleBase@4@@4@@aw@@UAEPAXI@Z 10073e20 f i esp_inferno.obj
 0001:00072e20       ??_G?$ModuleBaseImpl@VEspInferno@mod@csgo@aw@@V?$TypedObject@VEspInferno@mod@csgo@aw@@VModuleBase@4@@4@@aw@@UAEPAXI@Z 10073e20 f i esp_inferno.obj
 0001:00072e50       ??_EEspInferno@impl@mod@csgo@aw@@UAEPAXI@Z 10073e50 f i esp_inferno.obj
 0001:00072e50       ??_GEspInferno@impl@mod@csgo@aw@@UAEPAXI@Z 10073e50 f i esp_inferno.obj
 0001:00072e70       ?CreateModule@?$ModuleWithFactory@VEspInferno@mod@csgo@aw@@@aw@@SAPAVEspInferno@mod@csgo@2@XZ 10073e70 f   esp_inferno.obj
 0001:00072ea0       ?DrawTriangles@EspInferno@impl@mod@csgo@aw@@IAEXPAVRenderContext@gfx@5@PAVInferno@sdk@45@UColor@75@@Z 10073ea0 f   esp_inferno.obj
 0001:00073990       ?DrawWarning@EspInferno@impl@mod@csgo@aw@@MAEXPAVRenderContext@gfx@5@PAVInferno@sdk@45@ABVVector3@5@@Z 10074990 f   esp_inferno.obj
 0001:00073da0       ?GetId@?$TypedObject@VEspInferno@mod@csgo@aw@@VModuleBase@4@@aw@@UAEIXZ 10074da0 f i esp_inferno.obj
 0001:00073db0       ?OnAddEntity@EspInferno@impl@mod@csgo@aw@@IAEXAAUOnAddEntityCallback@hk@45@@Z 10074db0 f   esp_inferno.obj
 0001:00073e00       ?OnEspDraw@EspInferno@impl@mod@csgo@aw@@IAEXAAUEspDraw@345@@Z 10074e00 f   esp_inferno.obj
 0001:00073f80       ?OnRemoveEntity@EspInferno@impl@mod@csgo@aw@@IAEXAAUOnRemoveEntityCallback@hk@45@@Z 10074f80 f   esp_inferno.obj
 0001:00073fb0       ?_Change_array@?$vector@HV?$allocator@H@std@@@std@@AAEXQAHII@Z 10074fb0 f i esp_inferno.obj
 0001:00074000       ?_Change_array@?$vector@MV?$allocator@M@std@@@std@@AAEXQAMII@Z 10075000 f i esp_inferno.obj
 0001:00074050       ?_Change_array@?$vector@UVector2@dt@@V?$allocator@UVector2@dt@@@std@@@std@@AAEXQAUVector2@dt@@II@Z 10075050 f i esp_inferno.obj
 0001:000740a0       ?_Xlength@?$vector@UVector2@dt@@V?$allocator@UVector2@dt@@@std@@@std@@CAXXZ 100750a0 f i esp_inferno.obj
 0001:000740b0       ?allocate@?$allocator@H@std@@QAEPAHI@Z 100750b0 f i esp_inferno.obj
 0001:00074110       ?allocate@?$allocator@UVector2@dt@@@std@@QAEPAUVector2@dt@@I@Z 10075110 f i esp_inferno.obj
 0001:00074170       ?erase@?$_Tree@V?$_Tmap_traits@HMU?$less@H@std@@V?$allocator@U?$pair@$$CBHM@std@@@2@$0A@@std@@@std@@QAEIABH@Z 10075170 f i esp_inferno.obj
 0001:000742e0       ??$_Emplace_reallocate@UEspEntity@mod@csgo@aw@@@?$vector@UEspEntity@mod@csgo@aw@@V?$allocator@UEspEntity@mod@csgo@aw@@@std@@@std@@AAEPAUEspEntity@mod@csgo@aw@@QAU2345@$$QAU2345@@Z 100752e0 f i esp_overlay.obj
 0001:000756b0       ??_EEspOverlay@impl@mod@csgo@aw@@UAEPAXI@Z 100766b0 f i esp_overlay.obj
 0001:000756b0       ??_GEspOverlay@impl@mod@csgo@aw@@UAEPAXI@Z 100766b0 f i esp_overlay.obj
 0001:00075780       ?CalcDistanceMultipler@EspOverlay@impl@mod@csgo@aw@@UAEMABVVector3@5@@Z 10076780 f   esp_overlay.obj
 0001:000757e0       ?CalcEntityRect@EspOverlay@impl@mod@csgo@aw@@UAE_NPAVBaseEntity@sdk@45@AAM111_N@Z 100767e0 f   esp_overlay.obj
 0001:00075b10       ?CalcEntityRect@EspProjection@mod@csgo@aw@@QAE_NPAUStudioHdr@sdk@34@PBVMatrix3x4@4@AAVEulerAngles@4@AAVVector3@4@3W4EntityRectType@234@AAM555@Z 10076b10 f   esp_overlay.obj
 0001:00075f50       ?CalcOutOfView@EspOverlay@impl@mod@csgo@aw@@UAEXABVVector3@5@PAM11@Z 10076f50 f   esp_overlay.obj
 0001:000760e0       ?CreateModule@?$ModuleWithFactory@VEspBase@cheat@aw@@@aw@@SAPAVEspBase@cheat@2@XZ 100770e0 f   esp_overlay.obj
 0001:00076260       ?DrawFilledCapsule@EspOverlay@impl@mod@csgo@aw@@QAEXAAV?$vector@UDrawHitboxFace@EspOverlay@impl@mod@csgo@aw@@V?$allocator@UDrawHitboxFace@EspOverlay@impl@mod@csgo@aw@@@std@@@std@@ABVVector3@5@1MUColor@gfx@5@_N@Z 10077260 f   esp_overlay.obj
 0001:000769a0       ?DrawFilledCube@EspOverlay@impl@mod@csgo@aw@@QAEXAAV?$vector@UDrawHitboxFace@EspOverlay@impl@mod@csgo@aw@@V?$allocator@UDrawHitboxFace@EspOverlay@impl@mod@csgo@aw@@@std@@@std@@ABVMatrix3x4@5@ABVVector3@5@2UColor@gfx@5@_N@Z 100779a0 f   esp_overlay.obj
 0001:00076c30       ?DrawFilledFace@EspOverlay@impl@mod@csgo@aw@@QAEXAAV?$vector@UDrawHitboxFace@EspOverlay@impl@mod@csgo@aw@@V?$allocator@UDrawHitboxFace@EspOverlay@impl@mod@csgo@aw@@@std@@@std@@UColor@gfx@5@PAVVector3@5@2@Z 10077c30 f   esp_overlay.obj
 0001:00076fb0       ?DrawHitboxes@EspOverlay@impl@mod@csgo@aw@@UAEXPAVRenderContext@gfx@5@PAVBaseAnimating@sdk@45@UColor@75@H@Z 10077fb0 f   esp_overlay.obj
 0001:00077020       ?DrawMatrixHitboxSet@EspOverlay@impl@mod@csgo@aw@@UAEXPAVRenderContext@gfx@5@PAUStudioHitboxSet@sdk@45@PAVMatrix3x4@5@UColor@75@H@Z 10078020 f   esp_overlay.obj
 0001:00077630       ?DrawMatrixHitboxes@EspOverlay@impl@mod@csgo@aw@@UAEXPAVRenderContext@gfx@5@PAVBaseAnimating@sdk@45@PAVMatrix3x4@5@UColor@75@H@Z 10078630 f   esp_overlay.obj
 0001:00077680       ?DrawMatrixSkeleton@EspOverlay@impl@mod@csgo@aw@@UAEXPAVRenderContext@gfx@5@PAUStudioHdr@sdk@45@PAVMatrix3x4@5@UColor@75@@Z 10078680 f   esp_overlay.obj
 0001:00077750       ?DrawRecordHitboxes@EspOverlay@impl@mod@csgo@aw@@UAEXPAVRenderContext@gfx@5@PAVCSPlayer@sdk@45@@Z 10078750 f   esp_overlay.obj
 0001:00077760       ?DrawSkeleton@EspOverlay@impl@mod@csgo@aw@@UAEXPAVRenderContext@gfx@5@UColor@75@PAVBaseAnimating@sdk@45@@Z 10078760 f   esp_overlay.obj
 0001:000777e0       ?GetDrawnEntities@EspOverlay@impl@mod@csgo@aw@@UAEAAV?$vector@UEspEntity@mod@csgo@aw@@V?$allocator@UEspEntity@mod@csgo@aw@@@std@@@std@@XZ 100787e0 f i esp_overlay.obj
 0001:000777f0       ?GetEntityBounds@EspOverlay@impl@mod@csgo@aw@@UAEXPAVBaseEntity@sdk@45@PAVVector3@5@1@Z 100787f0 f   esp_overlay.obj
 0001:00077870       ?GetEntityOrigin@EspOverlay@impl@mod@csgo@aw@@UAEXPAVBaseEntity@sdk@45@PAVVector3@5@PAVEulerAngles@5@@Z 10078870 f   esp_overlay.obj
 0001:00077960       ?GetEspBuilderEntity@EspOverlay@impl@mod@csgo@aw@@QAEPAVEspEntityBase@345@PAVBaseEntity@sdk@45@@Z 10078960 f   esp_overlay.obj
 0001:000779c0       ?GetId@?$TypedObject@VEspBase@cheat@aw@@VModuleBase@3@@aw@@UAEIXZ 100789c0 f i esp_overlay.obj
 0001:000779d0       ?GetViewAngles@EspOverlay@impl@mod@csgo@aw@@UAEABVEulerAngles@5@XZ 100789d0 f i esp_overlay.obj
 0001:000779e0       ?GetViewPosition@EspOverlay@impl@mod@csgo@aw@@UAEABVVector3@5@XZ 100789e0 f i esp_overlay.obj
 0001:000779f0       ?IsValidFilteredEntity@EspOverlay@impl@mod@csgo@aw@@UAE_NPAVBaseEntity@sdk@45@@Z 100789f0 f   esp_overlay.obj
 0001:00077ad0       ?IsValidRenderEntity@EspOverlay@impl@mod@csgo@aw@@UAE_NPAVBaseEntity@sdk@45@@Z 10078ad0 f   esp_overlay.obj
 0001:00077c40       ?NoRenderingThink@EspOverlay@impl@mod@csgo@aw@@QAEXXZ 10078c40 f   esp_overlay.obj
 0001:00077e40       ?OnEspDraw@EspOverlay@impl@mod@csgo@aw@@QAEXAAUEspDraw@345@@Z 10078e40 f   esp_overlay.obj
 0001:00078790       ?OnGameEvent@EspOverlay@impl@mod@csgo@aw@@QAEXAAUGameEvent@hk@45@@Z 10079790 f   esp_overlay.obj
 0001:000788a0       ?OnPostViewDrawScene@EspOverlay@impl@mod@csgo@aw@@QAEXAAUPostViewDrawScene@hk@45@@Z 100798a0 f   esp_overlay.obj
 0001:00078a10       ?OnPreRender@EspOverlay@impl@mod@csgo@aw@@QAEXAAURenderFrame@gfx@5@@Z 10079a10 f   esp_overlay.obj
 0001:00078a60       ?OnRender@EspOverlay@impl@mod@csgo@aw@@QAEXAAURenderFrame@gfx@5@@Z 10079a60 f   esp_overlay.obj
 0001:00078a70       ?ShouldDrawOutOfView@EspOverlay@impl@mod@csgo@aw@@UAE_NPAVBaseEntity@sdk@45@@Z 10079a70 f   esp_overlay.obj
 0001:00078ae0       ?UpdateSortedEntities@EspOverlay@impl@mod@csgo@aw@@QAEXAAUEspDraw@345@@Z 10079ae0 f   esp_overlay.obj
 0001:00078d00       ?WorldToScreen@EspOverlay@impl@mod@csgo@aw@@UAE_NABVVector3@5@PAM1@Z 10079d00 f   esp_overlay.obj
 0001:00078de0       ?WorldToScreen@EspOverlay@impl@mod@csgo@aw@@UAE_NABVVector3@5@PAVVector2@5@@Z 10079de0 f   esp_overlay.obj
 0001:00078e00       ?_Change_array@?$vector@UDrawHitboxFace@EspOverlay@impl@mod@csgo@aw@@V?$allocator@UDrawHitboxFace@EspOverlay@impl@mod@csgo@aw@@@std@@@std@@AAEXQAUDrawHitboxFace@EspOverlay@impl@mod@csgo@aw@@II@Z 10079e00 f i esp_overlay.obj
 0001:00078e70       ?_Xlength@?$vector@UDrawHitboxFace@EspOverlay@impl@mod@csgo@aw@@V?$allocator@UDrawHitboxFace@EspOverlay@impl@mod@csgo@aw@@@std@@@std@@CAXXZ 10079e70 f i esp_overlay.obj
 0001:00078e80       ?_Xlength@?$vector@UEspEntity@mod@csgo@aw@@V?$allocator@UEspEntity@mod@csgo@aw@@@std@@@std@@CAXXZ 10079e80 f i esp_overlay.obj
 0001:00078e90       ?allocate@?$allocator@UDrawHitboxFace@EspOverlay@impl@mod@csgo@aw@@@std@@QAEPAUDrawHitboxFace@EspOverlay@impl@mod@csgo@aw@@I@Z 10079e90 f i esp_overlay.obj
 0001:00078ef0       ??$_Emplace_reallocate@ABUEspSoundItem@impl@mod@csgo@aw@@@?$vector@UEspSoundItem@impl@mod@csgo@aw@@V?$allocator@UEspSoundItem@impl@mod@csgo@aw@@@std@@@std@@AAEPAUEspSoundItem@impl@mod@csgo@aw@@QAU23456@ABU23456@@Z 10079ef0 f i esp_sound.obj
 0001:000790b0       ??1?$vector@UEspSoundItem@impl@mod@csgo@aw@@V?$allocator@UEspSoundItem@impl@mod@csgo@aw@@@std@@@std@@QAE@XZ 1007a0b0 f i esp_sound.obj
 0001:00079110       ??_E?$ModuleBaseImpl@VEspSound@mod@csgo@aw@@V?$TypedObject@VEspSound@mod@csgo@aw@@VModuleBase@4@@4@@aw@@UAEPAXI@Z 1007a110 f i esp_sound.obj
 0001:00079110       ??_G?$ModuleBaseImpl@VEspSound@mod@csgo@aw@@V?$TypedObject@VEspSound@mod@csgo@aw@@VModuleBase@4@@4@@aw@@UAEPAXI@Z 1007a110 f i esp_sound.obj
 0001:00079140       ??_EEspSound@impl@mod@csgo@aw@@UAEPAXI@Z 1007a140 f i esp_sound.obj
 0001:00079140       ??_GEspSound@impl@mod@csgo@aw@@UAEPAXI@Z 1007a140 f i esp_sound.obj
 0001:00079170       ?CreateModule@?$ModuleWithFactory@VEspSound@mod@csgo@aw@@@aw@@SAPAVEspSound@mod@csgo@2@XZ 1007a170 f   esp_sound.obj
 0001:00079230       ?GetId@?$TypedObject@VEspSound@mod@csgo@aw@@VModuleBase@4@@aw@@UAEIXZ 1007a230 f i esp_sound.obj
 0001:00079240       ?OnRender@EspSound@impl@mod@csgo@aw@@IAEXAAURenderFrame@gfx@5@@Z 1007a240 f   esp_sound.obj
 0001:000794e0       ?_Xlength@?$vector@UEspSoundItem@impl@mod@csgo@aw@@V?$allocator@UEspSoundItem@impl@mod@csgo@aw@@@std@@@std@@CAXXZ 1007a4e0 f i esp_sound.obj
 0001:000794f0       ??$CreateModule@VBaseClientState@hk@csgo@aw@@@ModuleMgr@aw@@QAEPAVBaseClientState@hk@csgo@1@XZ 1007a4f0 f i csgo-hk-x86:hooks.obj
 0001:00079500       ??$CreateModule@VBaseEntityList@hk@csgo@aw@@@ModuleMgr@aw@@QAEPAVBaseEntityList@hk@csgo@1@XZ 1007a500 f i csgo-hk-x86:hooks.obj
 0001:00079510       ??$CreateModule@VCSPlayer@hk@csgo@aw@@@ModuleMgr@aw@@QAEPAVCSPlayer@hk@csgo@1@XZ 1007a510 f i csgo-hk-x86:hooks.obj
 0001:00079520       ??$CreateModule@VClientMode@hk@csgo@aw@@@ModuleMgr@aw@@QAEPAVClientMode@hk@csgo@1@XZ 1007a520 f i csgo-hk-x86:hooks.obj
 0001:00079530       ??$CreateModule@VConVarHooks@hk@csgo@aw@@@ModuleMgr@aw@@QAEPAVConVarHooks@hk@csgo@1@XZ 1007a530 f i csgo-hk-x86:hooks.obj
 0001:00079590       ??$CreateModule@VD3D9Device@hk@csgo@aw@@@ModuleMgr@aw@@QAEPAVD3D9Device@hk@csgo@1@XZ 1007a590 f i csgo-hk-x86:hooks.obj
 0001:000795a0       ??$CreateModule@VDemoPlayer@hk@csgo@aw@@@ModuleMgr@aw@@QAEPAVDemoPlayer@hk@csgo@1@XZ 1007a5a0 f i csgo-hk-x86:hooks.obj
 0001:000795b0       ??$CreateModule@VEngine@hk@csgo@aw@@@ModuleMgr@aw@@QAEPAVEngine@hk@csgo@1@XZ 1007a5b0 f i csgo-hk-x86:hooks.obj
 0001:000795c0       ??$CreateModule@VGameEventManager@hk@csgo@aw@@@ModuleMgr@aw@@QAEPAVGameEventManager@hk@csgo@1@XZ 1007a5c0 f i csgo-hk-x86:hooks.obj
 0001:000795d0       ??$CreateModule@VGameMovement@hk@csgo@aw@@@ModuleMgr@aw@@QAEPAVGameMovement@hk@csgo@1@XZ 1007a5d0 f i csgo-hk-x86:hooks.obj
 0001:000795e0       ??$CreateModule@VGameRules@hk@csgo@aw@@@ModuleMgr@aw@@QAEPAVGameRules@hk@csgo@1@XZ 1007a5e0 f i csgo-hk-x86:hooks.obj
 0001:000795f0       ??$CreateModule@VInput@hk@csgo@aw@@@ModuleMgr@aw@@QAEPAVInput@hk@csgo@1@XZ 1007a5f0 f i csgo-hk-x86:hooks.obj
 0001:00079600       ??$CreateModule@VNetChan@hk@csgo@aw@@@ModuleMgr@aw@@QAEPAVNetChan@hk@csgo@1@XZ 1007a600 f i csgo-hk-x86:hooks.obj
 0001:00079620       ??$CreateModule@VPanel@hk@csgo@aw@@@ModuleMgr@aw@@QAEPAVPanel@hk@csgo@1@XZ 1007a620 f i csgo-hk-x86:hooks.obj
 0001:00079630       ??$CreateModule@VPrediction@hk@csgo@aw@@@ModuleMgr@aw@@QAEPAVPrediction@hk@csgo@1@XZ 1007a630 f i csgo-hk-x86:hooks.obj
 0001:00079650       ??$CreateModule@VRecvProxies@hk@csgo@aw@@@ModuleMgr@aw@@QAEPAVRecvProxies@hk@csgo@1@XZ 1007a650 f i csgo-hk-x86:hooks.obj
 0001:00079660       ??$CreateModule@VRender@hk@csgo@aw@@@ModuleMgr@aw@@QAEPAVRender@hk@csgo@1@XZ 1007a660 f i csgo-hk-x86:hooks.obj
 0001:00079670       ??$CreateModule@VSpatialPartition@hk@csgo@aw@@@ModuleMgr@aw@@QAEPAVSpatialPartition@hk@csgo@1@XZ 1007a670 f i csgo-hk-x86:hooks.obj
 0001:00079680       ??$CreateModule@VSpatialQuery@hk@csgo@aw@@@ModuleMgr@aw@@QAEPAVSpatialQuery@hk@csgo@1@XZ 1007a680 f i csgo-hk-x86:hooks.obj
 0001:00079690       ??$CreateModule@VSplitScreen@hk@csgo@aw@@@ModuleMgr@aw@@QAEPAVSplitScreen@hk@csgo@1@XZ 1007a690 f i csgo-hk-x86:hooks.obj
 0001:000796a0       ??$CreateModule@VSteamGameCoordinator@hk@csgo@aw@@@ModuleMgr@aw@@QAEPAVSteamGameCoordinator@hk@csgo@1@XZ 1007a6a0 f i csgo-hk-x86:hooks.obj
 0001:000796b0       ??$CreateModule@VSteamSocketMgr@hk@csgo@aw@@@ModuleMgr@aw@@QAEPAVSteamSocketMgr@hk@csgo@1@XZ 1007a6b0 f i csgo-hk-x86:hooks.obj
 0001:000796c0       ??$CreateModule@VStudioRender@hk@csgo@aw@@@ModuleMgr@aw@@QAEPAVStudioRender@hk@csgo@1@XZ 1007a6c0 f i csgo-hk-x86:hooks.obj
 0001:000796d0       ??$CreateModule@VVGuiSurface@hk@csgo@aw@@@ModuleMgr@aw@@QAEPAVVGuiSurface@hk@csgo@1@XZ 1007a6d0 f i csgo-hk-x86:hooks.obj
 0001:000796e0       ??$FindModule@VBaseClientState@hk@csgo@aw@@@ModuleMgr@aw@@QAEPAVBaseClientState@hk@csgo@1@_N@Z 1007a6e0 f i csgo-hk-x86:hooks.obj
 0001:000797b0       ??$FindModule@VBaseEntityList@hk@csgo@aw@@@ModuleMgr@aw@@QAEPAVBaseEntityList@hk@csgo@1@_N@Z 1007a7b0 f i csgo-hk-x86:hooks.obj
 0001:00079880       ??$FindModule@VCSPlayer@hk@csgo@aw@@@ModuleMgr@aw@@QAEPAVCSPlayer@hk@csgo@1@_N@Z 1007a880 f i csgo-hk-x86:hooks.obj
 0001:00079950       ??$FindModule@VClientMode@hk@csgo@aw@@@ModuleMgr@aw@@QAEPAVClientMode@hk@csgo@1@_N@Z 1007a950 f i csgo-hk-x86:hooks.obj
 0001:00079a20       ??$FindModule@VConVarHooks@hk@csgo@aw@@@ModuleMgr@aw@@QAEPAVConVarHooks@hk@csgo@1@_N@Z 1007aa20 f i csgo-hk-x86:hooks.obj
 0001:00079af0       ??$FindModule@VD3D9Device@hk@csgo@aw@@@ModuleMgr@aw@@QAEPAVD3D9Device@hk@csgo@1@_N@Z 1007aaf0 f i csgo-hk-x86:hooks.obj
 0001:00079bc0       ??$FindModule@VDemoPlayer@hk@csgo@aw@@@ModuleMgr@aw@@QAEPAVDemoPlayer@hk@csgo@1@_N@Z 1007abc0 f i csgo-hk-x86:hooks.obj
 0001:00079c90       ??$FindModule@VEngine@hk@csgo@aw@@@ModuleMgr@aw@@QAEPAVEngine@hk@csgo@1@_N@Z 1007ac90 f i csgo-hk-x86:hooks.obj
 0001:00079d60       ??$FindModule@VGameEventManager@hk@csgo@aw@@@ModuleMgr@aw@@QAEPAVGameEventManager@hk@csgo@1@_N@Z 1007ad60 f i csgo-hk-x86:hooks.obj
 0001:00079e30       ??$FindModule@VGameMovement@hk@csgo@aw@@@ModuleMgr@aw@@QAEPAVGameMovement@hk@csgo@1@_N@Z 1007ae30 f i csgo-hk-x86:hooks.obj
 0001:00079f00       ??$FindModule@VGameRules@hk@csgo@aw@@@ModuleMgr@aw@@QAEPAVGameRules@hk@csgo@1@_N@Z 1007af00 f i csgo-hk-x86:hooks.obj
 0001:00079fd0       ??$FindModule@VInput@hk@csgo@aw@@@ModuleMgr@aw@@QAEPAVInput@hk@csgo@1@_N@Z 1007afd0 f i csgo-hk-x86:hooks.obj
 0001:0007a0a0       ??$FindModule@VNetChan@hk@csgo@aw@@@ModuleMgr@aw@@QAEPAVNetChan@hk@csgo@1@_N@Z 1007b0a0 f i csgo-hk-x86:hooks.obj
 0001:0007a170       ??$FindModule@VPanel@hk@csgo@aw@@@ModuleMgr@aw@@QAEPAVPanel@hk@csgo@1@_N@Z 1007b170 f i csgo-hk-x86:hooks.obj
 0001:0007a240       ??$FindModule@VPrediction@hk@csgo@aw@@@ModuleMgr@aw@@QAEPAVPrediction@hk@csgo@1@_N@Z 1007b240 f i csgo-hk-x86:hooks.obj
 0001:0007a310       ??$FindModule@VRecvProxies@hk@csgo@aw@@@ModuleMgr@aw@@QAEPAVRecvProxies@hk@csgo@1@_N@Z 1007b310 f i csgo-hk-x86:hooks.obj
 0001:0007a3e0       ??$FindModule@VRender@hk@csgo@aw@@@ModuleMgr@aw@@QAEPAVRender@hk@csgo@1@_N@Z 1007b3e0 f i csgo-hk-x86:hooks.obj
 0001:0007a4b0       ??$FindModule@VSpatialPartition@hk@csgo@aw@@@ModuleMgr@aw@@QAEPAVSpatialPartition@hk@csgo@1@_N@Z 1007b4b0 f i csgo-hk-x86:hooks.obj
 0001:0007a580       ??$FindModule@VSpatialQuery@hk@csgo@aw@@@ModuleMgr@aw@@QAEPAVSpatialQuery@hk@csgo@1@_N@Z 1007b580 f i csgo-hk-x86:hooks.obj
 0001:0007a650       ??$FindModule@VSplitScreen@hk@csgo@aw@@@ModuleMgr@aw@@QAEPAVSplitScreen@hk@csgo@1@_N@Z 1007b650 f i csgo-hk-x86:hooks.obj
 0001:0007a720       ??$FindModule@VSteamGameCoordinator@hk@csgo@aw@@@ModuleMgr@aw@@QAEPAVSteamGameCoordinator@hk@csgo@1@_N@Z 1007b720 f i csgo-hk-x86:hooks.obj
 0001:0007a7f0       ??$FindModule@VSteamSocketMgr@hk@csgo@aw@@@ModuleMgr@aw@@QAEPAVSteamSocketMgr@hk@csgo@1@_N@Z 1007b7f0 f i csgo-hk-x86:hooks.obj
 0001:0007a8c0       ??$FindModule@VStudioRender@hk@csgo@aw@@@ModuleMgr@aw@@QAEPAVStudioRender@hk@csgo@1@_N@Z 1007b8c0 f i csgo-hk-x86:hooks.obj
 0001:0007a990       ??$FindModule@VVGuiSurface@hk@csgo@aw@@@ModuleMgr@aw@@QAEPAVVGuiSurface@hk@csgo@1@_N@Z 1007b990 f i csgo-hk-x86:hooks.obj
 0001:0007aa60       ??$FindOrCreateModule@VBaseClientState@hk@csgo@aw@@@ModuleMgr@aw@@QAEPAVBaseClientState@hk@csgo@1@XZ 1007ba60 f i csgo-hk-x86:hooks.obj
 0001:0007aa80       ??$FindOrCreateModule@VBaseEntityList@hk@csgo@aw@@@ModuleMgr@aw@@QAEPAVBaseEntityList@hk@csgo@1@XZ 1007ba80 f i csgo-hk-x86:hooks.obj
 0001:0007aaa0       ??$FindOrCreateModule@VCSPlayer@hk@csgo@aw@@@ModuleMgr@aw@@QAEPAVCSPlayer@hk@csgo@1@XZ 1007baa0 f i csgo-hk-x86:hooks.obj
 0001:0007aac0       ??$FindOrCreateModule@VClientMode@hk@csgo@aw@@@ModuleMgr@aw@@QAEPAVClientMode@hk@csgo@1@XZ 1007bac0 f i csgo-hk-x86:hooks.obj
 0001:0007aae0       ??$FindOrCreateModule@VConVarHooks@hk@csgo@aw@@@ModuleMgr@aw@@QAEPAVConVarHooks@hk@csgo@1@XZ 1007bae0 f i csgo-hk-x86:hooks.obj
 0001:0007ab00       ??$FindOrCreateModule@VD3D9Device@hk@csgo@aw@@@ModuleMgr@aw@@QAEPAVD3D9Device@hk@csgo@1@XZ 1007bb00 f i csgo-hk-x86:hooks.obj
 0001:0007ab20       ??$FindOrCreateModule@VDemoPlayer@hk@csgo@aw@@@ModuleMgr@aw@@QAEPAVDemoPlayer@hk@csgo@1@XZ 1007bb20 f i csgo-hk-x86:hooks.obj
 0001:0007ab40       ??$FindOrCreateModule@VEngine@hk@csgo@aw@@@ModuleMgr@aw@@QAEPAVEngine@hk@csgo@1@XZ 1007bb40 f i csgo-hk-x86:hooks.obj
 0001:0007ab60       ??$FindOrCreateModule@VGameEventManager@hk@csgo@aw@@@ModuleMgr@aw@@QAEPAVGameEventManager@hk@csgo@1@XZ 1007bb60 f i csgo-hk-x86:hooks.obj
 0001:0007ab80       ??$FindOrCreateModule@VGameMovement@hk@csgo@aw@@@ModuleMgr@aw@@QAEPAVGameMovement@hk@csgo@1@XZ 1007bb80 f i csgo-hk-x86:hooks.obj
 0001:0007aba0       ??$FindOrCreateModule@VGameRules@hk@csgo@aw@@@ModuleMgr@aw@@QAEPAVGameRules@hk@csgo@1@XZ 1007bba0 f i csgo-hk-x86:hooks.obj
 0001:0007abc0       ??$FindOrCreateModule@VInput@hk@csgo@aw@@@ModuleMgr@aw@@QAEPAVInput@hk@csgo@1@XZ 1007bbc0 f i csgo-hk-x86:hooks.obj
 0001:0007abe0       ??$FindOrCreateModule@VNetChan@hk@csgo@aw@@@ModuleMgr@aw@@QAEPAVNetChan@hk@csgo@1@XZ 1007bbe0 f i csgo-hk-x86:hooks.obj
 0001:0007ac00       ??$FindOrCreateModule@VPanel@hk@csgo@aw@@@ModuleMgr@aw@@QAEPAVPanel@hk@csgo@1@XZ 1007bc00 f i csgo-hk-x86:hooks.obj
 0001:0007ac20       ??$FindOrCreateModule@VPrediction@hk@csgo@aw@@@ModuleMgr@aw@@QAEPAVPrediction@hk@csgo@1@XZ 1007bc20 f i csgo-hk-x86:hooks.obj
 0001:0007ac40       ??$FindOrCreateModule@VRecvProxies@hk@csgo@aw@@@ModuleMgr@aw@@QAEPAVRecvProxies@hk@csgo@1@XZ 1007bc40 f i csgo-hk-x86:hooks.obj
 0001:0007ac60       ??$FindOrCreateModule@VRender@hk@csgo@aw@@@ModuleMgr@aw@@QAEPAVRender@hk@csgo@1@XZ 1007bc60 f i csgo-hk-x86:hooks.obj
 0001:0007ac80       ??$FindOrCreateModule@VSpatialPartition@hk@csgo@aw@@@ModuleMgr@aw@@QAEPAVSpatialPartition@hk@csgo@1@XZ 1007bc80 f i csgo-hk-x86:hooks.obj
 0001:0007aca0       ??$FindOrCreateModule@VSpatialQuery@hk@csgo@aw@@@ModuleMgr@aw@@QAEPAVSpatialQuery@hk@csgo@1@XZ 1007bca0 f i csgo-hk-x86:hooks.obj
 0001:0007acc0       ??$FindOrCreateModule@VSplitScreen@hk@csgo@aw@@@ModuleMgr@aw@@QAEPAVSplitScreen@hk@csgo@1@XZ 1007bcc0 f i csgo-hk-x86:hooks.obj
 0001:0007ace0       ??$FindOrCreateModule@VSteamGameCoordinator@hk@csgo@aw@@@ModuleMgr@aw@@QAEPAVSteamGameCoordinator@hk@csgo@1@XZ 1007bce0 f i csgo-hk-x86:hooks.obj
 0001:0007ad00       ??$FindOrCreateModule@VSteamSocketMgr@hk@csgo@aw@@@ModuleMgr@aw@@QAEPAVSteamSocketMgr@hk@csgo@1@XZ 1007bd00 f i csgo-hk-x86:hooks.obj
 0001:0007ad20       ??$FindOrCreateModule@VStudioRender@hk@csgo@aw@@@ModuleMgr@aw@@QAEPAVStudioRender@hk@csgo@1@XZ 1007bd20 f i csgo-hk-x86:hooks.obj
 0001:0007ad40       ??$FindOrCreateModule@VVGuiSurface@hk@csgo@aw@@@ModuleMgr@aw@@QAEPAVVGuiSurface@hk@csgo@1@XZ 1007bd40 f i csgo-hk-x86:hooks.obj
 0001:0007ad60       ??$RegisterModule@VBaseClientState@hk@csgo@aw@@@ModuleMgr@aw@@QAEPAVBaseClientState@hk@csgo@1@XZ 1007bd60 f i csgo-hk-x86:hooks.obj
 0001:0007ad70       ??$RegisterModule@VBaseEntityList@hk@csgo@aw@@@ModuleMgr@aw@@QAEPAVBaseEntityList@hk@csgo@1@XZ 1007bd70 f i csgo-hk-x86:hooks.obj
 0001:0007ad80       ??$RegisterModule@VCSPlayer@hk@csgo@aw@@@ModuleMgr@aw@@QAEPAVCSPlayer@hk@csgo@1@XZ 1007bd80 f i csgo-hk-x86:hooks.obj
 0001:0007ad90       ??$RegisterModule@VClientMode@hk@csgo@aw@@@ModuleMgr@aw@@QAEPAVClientMode@hk@csgo@1@XZ 1007bd90 f i csgo-hk-x86:hooks.obj
 0001:0007ada0       ??$RegisterModule@VConVarHooks@hk@csgo@aw@@@ModuleMgr@aw@@QAEPAVConVarHooks@hk@csgo@1@XZ 1007bda0 f i csgo-hk-x86:hooks.obj
 0001:0007adb0       ??$RegisterModule@VD3D9Device@hk@csgo@aw@@@ModuleMgr@aw@@QAEPAVD3D9Device@hk@csgo@1@XZ 1007bdb0 f i csgo-hk-x86:hooks.obj
 0001:0007adc0       ??$RegisterModule@VDemoPlayer@hk@csgo@aw@@@ModuleMgr@aw@@QAEPAVDemoPlayer@hk@csgo@1@XZ 1007bdc0 f i csgo-hk-x86:hooks.obj
 0001:0007add0       ??$RegisterModule@VEngine@hk@csgo@aw@@@ModuleMgr@aw@@QAEPAVEngine@hk@csgo@1@XZ 1007bdd0 f i csgo-hk-x86:hooks.obj
 0001:0007ade0       ??$RegisterModule@VGameEventManager@hk@csgo@aw@@@ModuleMgr@aw@@QAEPAVGameEventManager@hk@csgo@1@XZ 1007bde0 f i csgo-hk-x86:hooks.obj
 0001:0007adf0       ??$RegisterModule@VGameMovement@hk@csgo@aw@@@ModuleMgr@aw@@QAEPAVGameMovement@hk@csgo@1@XZ 1007bdf0 f i csgo-hk-x86:hooks.obj
 0001:0007ae00       ??$RegisterModule@VGameRules@hk@csgo@aw@@@ModuleMgr@aw@@QAEPAVGameRules@hk@csgo@1@XZ 1007be00 f i csgo-hk-x86:hooks.obj
 0001:0007ae10       ??$RegisterModule@VInput@hk@csgo@aw@@@ModuleMgr@aw@@QAEPAVInput@hk@csgo@1@XZ 1007be10 f i csgo-hk-x86:hooks.obj
 0001:0007ae20       ??$RegisterModule@VNetChan@hk@csgo@aw@@@ModuleMgr@aw@@QAEPAVNetChan@hk@csgo@1@XZ 1007be20 f i csgo-hk-x86:hooks.obj
 0001:0007ae30       ??$RegisterModule@VPanel@hk@csgo@aw@@@ModuleMgr@aw@@QAEPAVPanel@hk@csgo@1@XZ 1007be30 f i csgo-hk-x86:hooks.obj
 0001:0007ae40       ??$RegisterModule@VPrediction@hk@csgo@aw@@@ModuleMgr@aw@@QAEPAVPrediction@hk@csgo@1@XZ 1007be40 f i csgo-hk-x86:hooks.obj
 0001:0007ae50       ??$RegisterModule@VRecvProxies@hk@csgo@aw@@@ModuleMgr@aw@@QAEPAVRecvProxies@hk@csgo@1@XZ 1007be50 f i csgo-hk-x86:hooks.obj
 0001:0007ae60       ??$RegisterModule@VRender@hk@csgo@aw@@@ModuleMgr@aw@@QAEPAVRender@hk@csgo@1@XZ 1007be60 f i csgo-hk-x86:hooks.obj
 0001:0007ae70       ??$RegisterModule@VSpatialPartition@hk@csgo@aw@@@ModuleMgr@aw@@QAEPAVSpatialPartition@hk@csgo@1@XZ 1007be70 f i csgo-hk-x86:hooks.obj
 0001:0007ae80       ??$RegisterModule@VSpatialQuery@hk@csgo@aw@@@ModuleMgr@aw@@QAEPAVSpatialQuery@hk@csgo@1@XZ 1007be80 f i csgo-hk-x86:hooks.obj
 0001:0007ae90       ??$RegisterModule@VSplitScreen@hk@csgo@aw@@@ModuleMgr@aw@@QAEPAVSplitScreen@hk@csgo@1@XZ 1007be90 f i csgo-hk-x86:hooks.obj
 0001:0007aea0       ??$RegisterModule@VSteamGameCoordinator@hk@csgo@aw@@@ModuleMgr@aw@@QAEPAVSteamGameCoordinator@hk@csgo@1@XZ 1007bea0 f i csgo-hk-x86:hooks.obj
 0001:0007aeb0       ??$RegisterModule@VSteamSocketMgr@hk@csgo@aw@@@ModuleMgr@aw@@QAEPAVSteamSocketMgr@hk@csgo@1@XZ 1007beb0 f i csgo-hk-x86:hooks.obj
 0001:0007aec0       ??$RegisterModule@VStudioRender@hk@csgo@aw@@@ModuleMgr@aw@@QAEPAVStudioRender@hk@csgo@1@XZ 1007bec0 f i csgo-hk-x86:hooks.obj
 0001:0007aed0       ??$RegisterModule@VVGuiSurface@hk@csgo@aw@@@ModuleMgr@aw@@QAEPAVVGuiSurface@hk@csgo@1@XZ 1007bed0 f i csgo-hk-x86:hooks.obj
 0001:0007aee0       ??$RegisterModule@VViewRender@hk@csgo@aw@@@ModuleMgr@aw@@QAEPAVViewRender@hk@csgo@1@XZ 1007bee0 f i csgo-hk-x86:hooks.obj
 0001:0007aef0       ??_E?$ModuleBaseImpl@VConVarHooks@hk@csgo@aw@@V?$TypedObject@VConVarHooks@hk@csgo@aw@@VModuleBase@4@@4@@aw@@UAEPAXI@Z 1007bef0 f i csgo-hk-x86:hooks.obj
 0001:0007aef0       ??_G?$ModuleBaseImpl@VConVarHooks@hk@csgo@aw@@V?$TypedObject@VConVarHooks@hk@csgo@aw@@VModuleBase@4@@4@@aw@@UAEPAXI@Z 1007bef0 f i csgo-hk-x86:hooks.obj
 0001:0007af20       ??_EConVarHooks@hk@csgo@aw@@UAEPAXI@Z 1007bf20 f i csgo-hk-x86:hooks.obj
 0001:0007af20       ??_GConVarHooks@hk@csgo@aw@@UAEPAXI@Z 1007bf20 f i csgo-hk-x86:hooks.obj
 0001:0007af50       ?GetDynamic@CVar@sdk@csgo@aw@@SAPAV1234@XZ 1007bf50 f i csgo-hk-x86:hooks.obj
 0001:0007af70       ?GetId@?$TypedObject@VConVarHooks@hk@csgo@aw@@VModuleBase@4@@aw@@UAEIXZ 1007bf70 f i csgo-hk-x86:hooks.obj
 0001:0007af80       ??_E?$ModuleBaseImpl@VViewRender@hk@csgo@aw@@V?$TypedObject@VViewRender@hk@csgo@aw@@VModuleBase@4@@4@@aw@@UAEPAXI@Z 1007bf80 f i csgo-hk-x86:viewrender.obj
 0001:0007af80       ??_G?$ModuleBaseImpl@VViewRender@hk@csgo@aw@@V?$TypedObject@VViewRender@hk@csgo@aw@@VModuleBase@4@@4@@aw@@UAEPAXI@Z 1007bf80 f i csgo-hk-x86:viewrender.obj
 0001:0007afb0       ??_EOnRenderStart@hk@csgo@aw@@UAEPAXI@Z 1007bfb0 f i csgo-hk-x86:viewrender.obj
 0001:0007afb0       ??_GOnRenderStart@hk@csgo@aw@@UAEPAXI@Z 1007bfb0 f i csgo-hk-x86:viewrender.obj
 0001:0007afe0       ??_EPostViewDrawScene@hk@csgo@aw@@UAEPAXI@Z 1007bfe0 f i csgo-hk-x86:viewrender.obj
 0001:0007afe0       ??_GPostViewDrawScene@hk@csgo@aw@@UAEPAXI@Z 1007bfe0 f i csgo-hk-x86:viewrender.obj
 0001:0007b010       ??_ERenderView@hk@csgo@aw@@UAEPAXI@Z 1007c010 f i csgo-hk-x86:viewrender.obj
 0001:0007b010       ??_GRenderView@hk@csgo@aw@@UAEPAXI@Z 1007c010 f i csgo-hk-x86:viewrender.obj
 0001:0007b040       ??_EViewRender@impl@hk@csgo@aw@@UAEPAXI@Z 1007c040 f i csgo-hk-x86:viewrender.obj
 0001:0007b040       ??_GViewRender@impl@hk@csgo@aw@@UAEPAXI@Z 1007c040 f i csgo-hk-x86:viewrender.obj
 0001:0007b070       ?CreateModule@?$ModuleWithFactory@VViewRender@hk@csgo@aw@@@aw@@SAPAVViewRender@hk@csgo@2@XZ 1007c070 f   csgo-hk-x86:viewrender.obj
 0001:0007b200       ?GetId@?$TypedObject@UOnRenderStart@hk@csgo@aw@@UCallbackVars@4@@aw@@UAEIXZ 1007c200 f i csgo-hk-x86:viewrender.obj
 0001:0007b210       ?GetId@?$TypedObject@UPostViewDrawScene@hk@csgo@aw@@UCallbackVars@4@@aw@@UAEIXZ 1007c210 f i csgo-hk-x86:viewrender.obj
 0001:0007b220       ?GetId@?$TypedObject@URenderView@hk@csgo@aw@@UCallbackVars@4@@aw@@UAEIXZ 1007c220 f i csgo-hk-x86:viewrender.obj
 0001:0007b230       ?GetId@?$TypedObject@VViewRender@hk@csgo@aw@@VModuleBase@4@@aw@@UAEIXZ 1007c230 f i csgo-hk-x86:viewrender.obj
 0001:0007b240       ?GetOrgRenderView@ViewRender@impl@hk@csgo@aw@@UAEP6IXPAV1sdk@45@HAAVViewSetup@645@1HH@ZXZ 1007c240 f i csgo-hk-x86:viewrender.obj
 0001:0007b250       ?HkOnRenderStart@ViewRender@impl@hk@csgo@aw@@KIXPAV1sdk@45@H@Z 1007c250 f   csgo-hk-x86:viewrender.obj
 0001:0007b280       ?HkPostViewDrawScene@ViewRender@impl@hk@csgo@aw@@KIXPAV1sdk@45@HPAVViewSetup@645@@Z 1007c280 f   csgo-hk-x86:viewrender.obj
 0001:0007b2b0       ?HkRenderView@ViewRender@impl@hk@csgo@aw@@KIXPAV1sdk@45@HAAVViewSetup@645@1HH@Z 1007c2b0 f   csgo-hk-x86:viewrender.obj
 0001:0007b300       ?OnHook@ViewRender@impl@hk@csgo@aw@@IAEXAAUCommonHook@5@@Z 1007c300 f   csgo-hk-x86:viewrender.obj
 0001:0007b350       ?OnOnRenderStart@ViewRender@impl@hk@csgo@aw@@IAEXAAUOnRenderStart@345@@Z 1007c350 f   csgo-hk-x86:viewrender.obj
 0001:0007b370       ?OnPostViewDrawScene@ViewRender@impl@hk@csgo@aw@@IAEXAAUPostViewDrawScene@345@@Z 1007c370 f   csgo-hk-x86:viewrender.obj
 0001:0007b390       ?OnRenderView@ViewRender@impl@hk@csgo@aw@@IAEXAAURenderView@345@@Z 1007c390 f   csgo-hk-x86:viewrender.obj
 0001:0007b3c0       ?OnUnhook@ViewRender@impl@hk@csgo@aw@@IAEXAAUCommonUnhook@5@@Z 1007c3c0 f   csgo-hk-x86:viewrender.obj
 0001:0007b3d0       ??0ClientMode@impl@hk@csgo@aw@@QAE@XZ 1007c3d0 f i csgo-hk-x86:clientmode.obj
 0001:0007b670       ??_E?$ModuleBaseImpl@VClientMode@hk@csgo@aw@@V?$TypedObject@VClientMode@hk@csgo@aw@@VModuleBase@4@@4@@aw@@UAEPAXI@Z 1007c670 f i csgo-hk-x86:clientmode.obj
 0001:0007b670       ??_G?$ModuleBaseImpl@VClientMode@hk@csgo@aw@@V?$TypedObject@VClientMode@hk@csgo@aw@@VModuleBase@4@@4@@aw@@UAEPAXI@Z 1007c670 f i csgo-hk-x86:clientmode.obj
 0001:0007b6a0       ??_EClientMode@impl@hk@csgo@aw@@UAEPAXI@Z 1007c6a0 f i csgo-hk-x86:clientmode.obj
 0001:0007b6a0       ??_GClientMode@impl@hk@csgo@aw@@UAEPAXI@Z 1007c6a0 f i csgo-hk-x86:clientmode.obj
 0001:0007b6d0       ??_ECreateMove@hk@csgo@aw@@UAEPAXI@Z 1007c6d0 f i csgo-hk-x86:clientmode.obj
 0001:0007b6d0       ??_GCreateMove@hk@csgo@aw@@UAEPAXI@Z 1007c6d0 f i csgo-hk-x86:clientmode.obj
 0001:0007b700       ??_EDoPostScreenSpaceEffects@hk@csgo@aw@@UAEPAXI@Z 1007c700 f i csgo-hk-x86:clientmode.obj
 0001:0007b700       ??_GDoPostScreenSpaceEffects@hk@csgo@aw@@UAEPAXI@Z 1007c700 f i csgo-hk-x86:clientmode.obj
 0001:0007b730       ??_EGetViewModelFOV@hk@csgo@aw@@UAEPAXI@Z 1007c730 f i csgo-hk-x86:clientmode.obj
 0001:0007b730       ??_GGetViewModelFOV@hk@csgo@aw@@UAEPAXI@Z 1007c730 f i csgo-hk-x86:clientmode.obj
 0001:0007b760       ??_ELevelInit@hk@csgo@aw@@UAEPAXI@Z 1007c760 f i csgo-hk-x86:clientmode.obj
 0001:0007b760       ??_GLevelInit@hk@csgo@aw@@UAEPAXI@Z 1007c760 f i csgo-hk-x86:clientmode.obj
 0001:0007b790       ??_ELevelShutdown@hk@csgo@aw@@UAEPAXI@Z 1007c790 f i csgo-hk-x86:clientmode.obj
 0001:0007b790       ??_GLevelShutdown@hk@csgo@aw@@UAEPAXI@Z 1007c790 f i csgo-hk-x86:clientmode.obj
 0001:0007b7c0       ??_EOverrideView@hk@csgo@aw@@UAEPAXI@Z 1007c7c0 f i csgo-hk-x86:clientmode.obj
 0001:0007b7c0       ??_GOverrideView@hk@csgo@aw@@UAEPAXI@Z 1007c7c0 f i csgo-hk-x86:clientmode.obj
 0001:0007b7f0       ??_EPostRender@hk@csgo@aw@@UAEPAXI@Z 1007c7f0 f i csgo-hk-x86:clientmode.obj
 0001:0007b7f0       ??_GPostRender@hk@csgo@aw@@UAEPAXI@Z 1007c7f0 f i csgo-hk-x86:clientmode.obj
 0001:0007b820       ??_EShouldDrawFog@hk@csgo@aw@@UAEPAXI@Z 1007c820 f i csgo-hk-x86:clientmode.obj
 0001:0007b820       ??_GShouldDrawFog@hk@csgo@aw@@UAEPAXI@Z 1007c820 f i csgo-hk-x86:clientmode.obj
 0001:0007b850       ?CreateModule@?$ModuleWithFactory@VClientMode@hk@csgo@aw@@@aw@@SAPAVClientMode@hk@csgo@2@XZ 1007c850 f   csgo-hk-x86:clientmode.obj
 0001:0007b880       ?GetId@?$TypedObject@UCreateMove@hk@csgo@aw@@UCallbackVars@4@@aw@@UAEIXZ 1007c880 f i csgo-hk-x86:clientmode.obj
 0001:0007b890       ?GetId@?$TypedObject@UDoPostScreenSpaceEffects@hk@csgo@aw@@UCallbackVars@4@@aw@@UAEIXZ 1007c890 f i csgo-hk-x86:clientmode.obj
 0001:0007b8a0       ?GetId@?$TypedObject@UGetViewModelFOV@hk@csgo@aw@@UCallbackVars@4@@aw@@UAEIXZ 1007c8a0 f i csgo-hk-x86:clientmode.obj
 0001:0007b8b0       ?GetId@?$TypedObject@ULevelInit@hk@csgo@aw@@UCallbackVars@4@@aw@@UAEIXZ 1007c8b0 f i csgo-hk-x86:clientmode.obj
 0001:0007b8c0       ?GetId@?$TypedObject@ULevelShutdown@hk@csgo@aw@@UCallbackVars@4@@aw@@UAEIXZ 1007c8c0 f i csgo-hk-x86:clientmode.obj
 0001:0007b8d0       ?GetId@?$TypedObject@UOverrideView@hk@csgo@aw@@UCallbackVars@4@@aw@@UAEIXZ 1007c8d0 f i csgo-hk-x86:clientmode.obj
 0001:0007b8e0       ?GetId@?$TypedObject@UPostRender@hk@csgo@aw@@UCallbackVars@4@@aw@@UAEIXZ 1007c8e0 f i csgo-hk-x86:clientmode.obj
 0001:0007b8f0       ?GetId@?$TypedObject@UShouldDrawFog@hk@csgo@aw@@UCallbackVars@4@@aw@@UAEIXZ 1007c8f0 f i csgo-hk-x86:clientmode.obj
 0001:0007b900       ?GetId@?$TypedObject@VClientMode@hk@csgo@aw@@VModuleBase@4@@aw@@UAEIXZ 1007c900 f i csgo-hk-x86:clientmode.obj
 0001:0007b910       ?HkCreateMove@ClientMode@impl@hk@csgo@aw@@KA_NPAV1sdk@45@MPAVUserCmd@645@PA_NPAHPAI4@Z 1007c910 f   csgo-hk-x86:clientmode.obj
 0001:0007b970       ?HkCreateMoveNaked@ClientMode@impl@hk@csgo@aw@@KAXXZ 1007c970 f   csgo-hk-x86:clientmode.obj
 0001:0007b9d0       ?HkDoPostScreenSpaceEffects@ClientMode@impl@hk@csgo@aw@@KIXPAV1sdk@45@HPAVViewSetup@645@@Z 1007c9d0 f   csgo-hk-x86:clientmode.obj
 0001:0007ba00       ?HkGetViewModelFOV@ClientMode@impl@hk@csgo@aw@@KIMPAV1sdk@45@H@Z 1007ca00 f   csgo-hk-x86:clientmode.obj
 0001:0007ba30       ?HkLevelInit@ClientMode@impl@hk@csgo@aw@@KIXPAV1sdk@45@HPBD@Z 1007ca30 f   csgo-hk-x86:clientmode.obj
 0001:0007ba60       ?HkLevelShutdown@ClientMode@impl@hk@csgo@aw@@KIXPAV1sdk@45@@Z 1007ca60 f   csgo-hk-x86:clientmode.obj
 0001:0007ba80       ?HkOverrideView@ClientMode@impl@hk@csgo@aw@@KIXPAV1sdk@45@HPAVViewSetup@645@@Z 1007ca80 f   csgo-hk-x86:clientmode.obj
 0001:0007bab0       ?HkPostRender@ClientMode@impl@hk@csgo@aw@@KIXPAV1sdk@45@@Z 1007cab0 f   csgo-hk-x86:clientmode.obj
 0001:0007bad0       ?HkShouldDrawFog@ClientMode@impl@hk@csgo@aw@@KI_NPAV1sdk@45@H@Z 1007cad0 f   csgo-hk-x86:clientmode.obj
 0001:0007bb00       ?OnCreateMove@ClientMode@impl@hk@csgo@aw@@IAEXAAUCreateMove@345@@Z 1007cb00 f   csgo-hk-x86:clientmode.obj
 0001:0007bb30       ?OnDoPostScreenSpaceEffects@ClientMode@impl@hk@csgo@aw@@IAEXAAUDoPostScreenSpaceEffects@345@@Z 1007cb30 f   csgo-hk-x86:clientmode.obj
 0001:0007bb50       ?OnGetViewModelFOV@ClientMode@impl@hk@csgo@aw@@IAEXAAUGetViewModelFOV@345@@Z 1007cb50 f   csgo-hk-x86:clientmode.obj
 0001:0007bb80       ?OnHook@ClientMode@impl@hk@csgo@aw@@IAEXAAUCommonHook@5@@Z 1007cb80 f   csgo-hk-x86:clientmode.obj
 0001:0007bc40       ?OnLevelInit@ClientMode@impl@hk@csgo@aw@@IAEXAAULevelInit@345@@Z 1007cc40 f   csgo-hk-x86:clientmode.obj
 0001:0007bc60       ?OnLevelShutdown@ClientMode@impl@hk@csgo@aw@@IAEXAAULevelShutdown@345@@Z 1007cc60 f   csgo-hk-x86:clientmode.obj
 0001:0007bc70       ?OnOverrideView@ClientMode@impl@hk@csgo@aw@@IAEXAAUOverrideView@345@@Z 1007cc70 f   csgo-hk-x86:clientmode.obj
 0001:0007bc90       ?OnPostRender@ClientMode@impl@hk@csgo@aw@@IAEXAAUPostRender@345@@Z 1007cc90 f   csgo-hk-x86:clientmode.obj
 0001:0007bca0       ?OnShouldDrawFog@ClientMode@impl@hk@csgo@aw@@IAEXAAUShouldDrawFog@345@@Z 1007cca0 f   csgo-hk-x86:clientmode.obj
 0001:0007bcc0       ?OnUnhook@ClientMode@impl@hk@csgo@aw@@IAEXAAUCommonUnhook@5@@Z 1007ccc0 f   csgo-hk-x86:clientmode.obj
 0001:0007bcd0       ??0Prediction@hk@csgo@aw@@QAE@XZ 1007ccd0 f   csgo-hk-x86:prediction.obj
 0001:0007bec0       ??_E?$ModuleBaseImpl@VPrediction@hk@csgo@aw@@V?$TypedObject@VPrediction@hk@csgo@aw@@VModuleBase@4@@4@@aw@@UAEPAXI@Z 1007cec0 f i csgo-hk-x86:prediction.obj
 0001:0007bec0       ??_G?$ModuleBaseImpl@VPrediction@hk@csgo@aw@@V?$TypedObject@VPrediction@hk@csgo@aw@@VModuleBase@4@@4@@aw@@UAEPAXI@Z 1007cec0 f i csgo-hk-x86:prediction.obj
 0001:0007bef0       ??_EInPrediction@hk@csgo@aw@@UAEPAXI@Z 1007cef0 f i csgo-hk-x86:prediction.obj
 0001:0007bef0       ??_GInPrediction@hk@csgo@aw@@UAEPAXI@Z 1007cef0 f i csgo-hk-x86:prediction.obj
 0001:0007bf20       ??_EPostEntityPacketReceived@hk@csgo@aw@@UAEPAXI@Z 1007cf20 f i csgo-hk-x86:prediction.obj
 0001:0007bf20       ??_GPostEntityPacketReceived@hk@csgo@aw@@UAEPAXI@Z 1007cf20 f i csgo-hk-x86:prediction.obj
 0001:0007bf50       ??_EPostNetworkDataReceived@hk@csgo@aw@@UAEPAXI@Z 1007cf50 f i csgo-hk-x86:prediction.obj
 0001:0007bf50       ??_GPostNetworkDataReceived@hk@csgo@aw@@UAEPAXI@Z 1007cf50 f i csgo-hk-x86:prediction.obj
 0001:0007bf80       ??_EPreEntityPacketReceived@hk@csgo@aw@@UAEPAXI@Z 1007cf80 f i csgo-hk-x86:prediction.obj
 0001:0007bf80       ??_GPreEntityPacketReceived@hk@csgo@aw@@UAEPAXI@Z 1007cf80 f i csgo-hk-x86:prediction.obj
 0001:0007bfb0       ??_EPrediction@hk@csgo@aw@@UAEPAXI@Z 1007cfb0 f i csgo-hk-x86:prediction.obj
 0001:0007bfb0       ??_GPrediction@hk@csgo@aw@@UAEPAXI@Z 1007cfb0 f i csgo-hk-x86:prediction.obj
 0001:0007bfe0       ??_ERunCommand@hk@csgo@aw@@UAEPAXI@Z 1007cfe0 f i csgo-hk-x86:prediction.obj
 0001:0007bfe0       ??_GRunCommand@hk@csgo@aw@@UAEPAXI@Z 1007cfe0 f i csgo-hk-x86:prediction.obj
 0001:0007c010       ??_ERunPrediction@hk@csgo@aw@@UAEPAXI@Z 1007d010 f i csgo-hk-x86:prediction.obj
 0001:0007c010       ??_GRunPrediction@hk@csgo@aw@@UAEPAXI@Z 1007d010 f i csgo-hk-x86:prediction.obj
 0001:0007c040       ?GetId@?$TypedObject@UInPrediction@hk@csgo@aw@@UCallbackVars@4@@aw@@UAEIXZ 1007d040 f i csgo-hk-x86:prediction.obj
 0001:0007c050       ?GetId@?$TypedObject@UPostEntityPacketReceived@hk@csgo@aw@@UCallbackVars@4@@aw@@UAEIXZ 1007d050 f i csgo-hk-x86:prediction.obj
 0001:0007c060       ?GetId@?$TypedObject@UPostNetworkDataReceived@hk@csgo@aw@@UCallbackVars@4@@aw@@UAEIXZ 1007d060 f i csgo-hk-x86:prediction.obj
 0001:0007c070       ?GetId@?$TypedObject@UPreEntityPacketReceived@hk@csgo@aw@@UCallbackVars@4@@aw@@UAEIXZ 1007d070 f i csgo-hk-x86:prediction.obj
 0001:0007c080       ?GetId@?$TypedObject@URunCommand@hk@csgo@aw@@UCallbackVars@4@@aw@@UAEIXZ 1007d080 f i csgo-hk-x86:prediction.obj
 0001:0007c090       ?GetId@?$TypedObject@URunPrediction@hk@csgo@aw@@UCallbackVars@4@@aw@@UAEIXZ 1007d090 f i csgo-hk-x86:prediction.obj
 0001:0007c0a0       ?GetId@?$TypedObject@VPrediction@hk@csgo@aw@@VModuleBase@4@@aw@@UAEIXZ 1007d0a0 f i csgo-hk-x86:prediction.obj
 0001:0007c0b0       ?HkInPrediction@Prediction@hk@csgo@aw@@KI_NPAV1sdk@34@HPAVBasePlayer@534@PAVEulerAngles@4@@Z 1007d0b0 f   csgo-hk-x86:prediction.obj
 0001:0007c100       ?HkInPredictionGate@Prediction@hk@csgo@aw@@KAXXZ 1007d100 f   csgo-hk-x86:prediction.obj
 0001:0007c110       ?HkPostEntityPacketReceived@Prediction@hk@csgo@aw@@KIXPAV1sdk@34@@Z 1007d110 f   csgo-hk-x86:prediction.obj
 0001:0007c130       ?HkPostNetworkDataReceived@Prediction@hk@csgo@aw@@KIXPAV1sdk@34@HH@Z 1007d130 f   csgo-hk-x86:prediction.obj
 0001:0007c160       ?HkPreEntityPacketReceived@Prediction@hk@csgo@aw@@KIXPAV1sdk@34@HHHH@Z 1007d160 f   csgo-hk-x86:prediction.obj
 0001:0007c1a0       ?HkRunCommand@Prediction@hk@csgo@aw@@KIXPAV1sdk@34@HPAVBasePlayer@534@PAVUserCmd@534@PAVMoveHelper@534@@Z 1007d1a0 f   csgo-hk-x86:prediction.obj
 0001:0007c1e0       ?HkUpdate@Prediction@hk@csgo@aw@@KIXPAV1sdk@34@HH_NHH@Z 1007d1e0 f   csgo-hk-x86:prediction.obj
 0001:0007c230       ?OnHook@Prediction@hk@csgo@aw@@IAEXAAUCommonHook@4@@Z 1007d230 f   csgo-hk-x86:prediction.obj
 0001:0007c2c0       ?OnPostEntityPacketReceived@Prediction@hk@csgo@aw@@IAEXAAUPostEntityPacketReceived@234@@Z 1007d2c0 f   csgo-hk-x86:prediction.obj
 0001:0007c2d0       ?OnPostNetworkDataReceived@Prediction@hk@csgo@aw@@IAEXAAUPostNetworkDataReceived@234@@Z 1007d2d0 f   csgo-hk-x86:prediction.obj
 0001:0007c2f0       ?OnPreEntityPacketReceived@Prediction@hk@csgo@aw@@IAEXAAUPreEntityPacketReceived@234@@Z 1007d2f0 f   csgo-hk-x86:prediction.obj
 0001:0007c310       ?OnRunCommand@Prediction@hk@csgo@aw@@IAEXAAURunCommand@234@@Z 1007d310 f   csgo-hk-x86:prediction.obj
 0001:0007c370       ?OnUnhook@Prediction@hk@csgo@aw@@IAEXAAUCommonUnhook@4@@Z 1007d370 f   csgo-hk-x86:prediction.obj
 0001:0007c380       ?OnUpdate@Prediction@hk@csgo@aw@@IAEXAAURunPrediction@234@@Z 1007d380 f   csgo-hk-x86:prediction.obj
 0001:0007c3b0       ??_E?$ModuleBaseImpl@VBaseEntityList@hk@csgo@aw@@V?$TypedObject@VBaseEntityList@hk@csgo@aw@@VModuleBase@4@@4@@aw@@UAEPAXI@Z 1007d3b0 f i csgo-hk-x86:baseentitylist.obj
 0001:0007c3b0       ??_G?$ModuleBaseImpl@VBaseEntityList@hk@csgo@aw@@V?$TypedObject@VBaseEntityList@hk@csgo@aw@@VModuleBase@4@@4@@aw@@UAEPAXI@Z 1007d3b0 f i csgo-hk-x86:baseentitylist.obj
 0001:0007c3e0       ??_EBaseEntityList@impl@hk@csgo@aw@@UAEPAXI@Z 1007d3e0 f i csgo-hk-x86:baseentitylist.obj
 0001:0007c3e0       ??_GBaseEntityList@impl@hk@csgo@aw@@UAEPAXI@Z 1007d3e0 f i csgo-hk-x86:baseentitylist.obj
 0001:0007c410       ??_EOnAddEntityCallback@hk@csgo@aw@@UAEPAXI@Z 1007d410 f i csgo-hk-x86:baseentitylist.obj
 0001:0007c410       ??_GOnAddEntityCallback@hk@csgo@aw@@UAEPAXI@Z 1007d410 f i csgo-hk-x86:baseentitylist.obj
 0001:0007c440       ??_EOnRemoveEntityCallback@hk@csgo@aw@@UAEPAXI@Z 1007d440 f i csgo-hk-x86:baseentitylist.obj
 0001:0007c440       ??_GOnRemoveEntityCallback@hk@csgo@aw@@UAEPAXI@Z 1007d440 f i csgo-hk-x86:baseentitylist.obj
 0001:0007c470       ?CreateModule@?$ModuleWithFactory@VBaseEntityList@hk@csgo@aw@@@aw@@SAPAVBaseEntityList@hk@csgo@2@XZ 1007d470 f   csgo-hk-x86:baseentitylist.obj
 0001:0007c5d0       ?GetId@?$TypedObject@UOnAddEntityCallback@hk@csgo@aw@@UCallbackVars@4@@aw@@UAEIXZ 1007d5d0 f i csgo-hk-x86:baseentitylist.obj
 0001:0007c5e0       ?GetId@?$TypedObject@UOnRemoveEntityCallback@hk@csgo@aw@@UCallbackVars@4@@aw@@UAEIXZ 1007d5e0 f i csgo-hk-x86:baseentitylist.obj
 0001:0007c5f0       ?GetId@?$TypedObject@VBaseEntityList@hk@csgo@aw@@VModuleBase@4@@aw@@UAEIXZ 1007d5f0 f i csgo-hk-x86:baseentitylist.obj
 0001:0007c600       ?HkOnAddEntity@BaseEntityList@impl@hk@csgo@aw@@KIXPAXHPAVBaseEntity@sdk@45@VBaseHandle@745@@Z 1007d600 f   csgo-hk-x86:baseentitylist.obj
 0001:0007c640       ?HkOnRemoveEntity@BaseEntityList@impl@hk@csgo@aw@@KIXPAXHPAVBaseEntity@sdk@45@VBaseHandle@745@@Z 1007d640 f   csgo-hk-x86:baseentitylist.obj
 0001:0007c680       ?OnAddEntity@BaseEntityList@impl@hk@csgo@aw@@IAEXAAUOnAddEntityCallback@345@@Z 1007d680 f   csgo-hk-x86:baseentitylist.obj
 0001:0007c6a0       ?OnHook@BaseEntityList@impl@hk@csgo@aw@@IAEXAAUCommonHook@5@@Z 1007d6a0 f   csgo-hk-x86:baseentitylist.obj
 0001:0007c830       ?OnRemoveEntity@BaseEntityList@impl@hk@csgo@aw@@IAEXAAUOnRemoveEntityCallback@345@@Z 1007d830 f   csgo-hk-x86:baseentitylist.obj
 0001:0007c860       ?OnUnhook@BaseEntityList@impl@hk@csgo@aw@@IAEXAAUCommonUnhook@5@@Z 1007d860 f   csgo-hk-x86:baseentitylist.obj
 0001:0007c870       ??$_Erase_tree@V?$allocator@U?$_Tree_node@PAVCSPlayer@sdk@csgo@aw@@PAX@std@@@std@@@?$_Tree_val@U?$_Tree_simple_types@PAVCSPlayer@sdk@csgo@aw@@@std@@@std@@QAEXAAV?$allocator@U?$_Tree_node@PAVCSPlayer@sdk@csgo@aw@@PAX@std@@@1@PAU?$_Tree_node@PAVCSPlayer@sdk@csgo@aw@@PAX@1@@Z 1007d870 f i csgo-hk-x86:csplayer.obj
 0001:0007c8b0       ??0CSPlayer@impl@hk@csgo@aw@@QAE@XZ 1007d8b0 f   csgo-hk-x86:csplayer.obj
 0001:0007cc50       ??1?$_Tree@V?$_Tset_traits@PAVCSPlayer@sdk@csgo@aw@@U?$less@PAVCSPlayer@sdk@csgo@aw@@@std@@V?$allocator@PAVCSPlayer@sdk@csgo@aw@@@6@$0A@@std@@@std@@QAE@XZ 1007dc50 f i csgo-hk-x86:csplayer.obj
 0001:0007cc90       ??E?$_Tree_unchecked_const_iterator@V?$_Tree_val@U?$_Tree_simple_types@PAVCSPlayer@sdk@csgo@aw@@@std@@@std@@U_Iterator_base0@2@@std@@QAEAAV01@XZ 1007dc90 f i csgo-hk-x86:csplayer.obj
 0001:0007ccf0       ??_E?$ModuleBaseImpl@VCSPlayer@hk@csgo@aw@@V?$TypedObject@VCSPlayer@hk@csgo@aw@@VModuleBase@4@@4@@aw@@UAEPAXI@Z 1007dcf0 f i csgo-hk-x86:csplayer.obj
 0001:0007ccf0       ??_G?$ModuleBaseImpl@VCSPlayer@hk@csgo@aw@@V?$TypedObject@VCSPlayer@hk@csgo@aw@@VModuleBase@4@@4@@aw@@UAEPAXI@Z 1007dcf0 f i csgo-hk-x86:csplayer.obj
 0001:0007cd20       ??_ECSPlayer@impl@hk@csgo@aw@@UAEPAXI@Z 1007dd20 f i csgo-hk-x86:csplayer.obj
 0001:0007cd20       ??_GCSPlayer@impl@hk@csgo@aw@@UAEPAXI@Z 1007dd20 f i csgo-hk-x86:csplayer.obj
 0001:0007cd80       ??_EPlayerCalcView@hk@csgo@aw@@UAEPAXI@Z 1007dd80 f i csgo-hk-x86:csplayer.obj
 0001:0007cd80       ??_GPlayerCalcView@hk@csgo@aw@@UAEPAXI@Z 1007dd80 f i csgo-hk-x86:csplayer.obj
 0001:0007cdb0       ??_EPlayerEyeAngles@hk@csgo@aw@@UAEPAXI@Z 1007ddb0 f i csgo-hk-x86:csplayer.obj
 0001:0007cdb0       ??_GPlayerEyeAngles@hk@csgo@aw@@UAEPAXI@Z 1007ddb0 f i csgo-hk-x86:csplayer.obj
 0001:0007cde0       ??_EPlayerEyePosition@hk@csgo@aw@@UAEPAXI@Z 1007dde0 f i csgo-hk-x86:csplayer.obj
 0001:0007cde0       ??_GPlayerEyePosition@hk@csgo@aw@@UAEPAXI@Z 1007dde0 f i csgo-hk-x86:csplayer.obj
 0001:0007ce10       ??_EPlayerLatchInterpVars@hk@csgo@aw@@UAEPAXI@Z 1007de10 f i csgo-hk-x86:csplayer.obj
 0001:0007ce10       ??_GPlayerLatchInterpVars@hk@csgo@aw@@UAEPAXI@Z 1007de10 f i csgo-hk-x86:csplayer.obj
 0001:0007ce40       ??_EPlayerOnDataChanged@hk@csgo@aw@@UAEPAXI@Z 1007de40 f i csgo-hk-x86:csplayer.obj
 0001:0007ce40       ??_GPlayerOnDataChanged@hk@csgo@aw@@UAEPAXI@Z 1007de40 f i csgo-hk-x86:csplayer.obj
 0001:0007ce70       ??_EPlayerPostDataUpdate@hk@csgo@aw@@UAEPAXI@Z 1007de70 f i csgo-hk-x86:csplayer.obj
 0001:0007ce70       ??_GPlayerPostDataUpdate@hk@csgo@aw@@UAEPAXI@Z 1007de70 f i csgo-hk-x86:csplayer.obj
 0001:0007cea0       ??_EPlayerPostThink@hk@csgo@aw@@UAEPAXI@Z 1007dea0 f i csgo-hk-x86:csplayer.obj
 0001:0007cea0       ??_GPlayerPostThink@hk@csgo@aw@@UAEPAXI@Z 1007dea0 f i csgo-hk-x86:csplayer.obj
 0001:0007ced0       ??_EPlayerSetupBones@hk@csgo@aw@@UAEPAXI@Z 1007ded0 f i csgo-hk-x86:csplayer.obj
 0001:0007ced0       ??_GPlayerSetupBones@hk@csgo@aw@@UAEPAXI@Z 1007ded0 f i csgo-hk-x86:csplayer.obj
 0001:0007cf00       ??_EPlayerUpdateAnimation@hk@csgo@aw@@UAEPAXI@Z 1007df00 f i csgo-hk-x86:csplayer.obj
 0001:0007cf00       ??_GPlayerUpdateAnimation@hk@csgo@aw@@UAEPAXI@Z 1007df00 f i csgo-hk-x86:csplayer.obj
 0001:0007cf30       ?CreateModule@?$ModuleWithFactory@VCSPlayer@hk@csgo@aw@@@aw@@SAPAVCSPlayer@hk@csgo@2@XZ 1007df30 f   csgo-hk-x86:csplayer.obj
 0001:0007cf50       ?GetId@?$TypedObject@UPlayerCalcView@hk@csgo@aw@@UCallbackVars@4@@aw@@UAEIXZ 1007df50 f i csgo-hk-x86:csplayer.obj
 0001:0007cf60       ?GetId@?$TypedObject@UPlayerEyeAngles@hk@csgo@aw@@UCallbackVars@4@@aw@@UAEIXZ 1007df60 f i csgo-hk-x86:csplayer.obj
 0001:0007cf70       ?GetId@?$TypedObject@UPlayerEyePosition@hk@csgo@aw@@UCallbackVars@4@@aw@@UAEIXZ 1007df70 f i csgo-hk-x86:csplayer.obj
 0001:0007cf80       ?GetId@?$TypedObject@UPlayerLatchInterpVars@hk@csgo@aw@@UCallbackVars@4@@aw@@UAEIXZ 1007df80 f i csgo-hk-x86:csplayer.obj
 0001:0007cf90       ?GetId@?$TypedObject@UPlayerOnDataChanged@hk@csgo@aw@@UCallbackVars@4@@aw@@UAEIXZ 1007df90 f i csgo-hk-x86:csplayer.obj
 0001:0007cfa0       ?GetId@?$TypedObject@UPlayerPostDataUpdate@hk@csgo@aw@@UCallbackVars@4@@aw@@UAEIXZ 1007dfa0 f i csgo-hk-x86:csplayer.obj
 0001:0007cfb0       ?GetId@?$TypedObject@UPlayerPostThink@hk@csgo@aw@@UCallbackVars@4@@aw@@UAEIXZ 1007dfb0 f i csgo-hk-x86:csplayer.obj
 0001:0007cfc0       ?GetId@?$TypedObject@UPlayerSetupBones@hk@csgo@aw@@UCallbackVars@4@@aw@@UAEIXZ 1007dfc0 f i csgo-hk-x86:csplayer.obj
 0001:0007cfd0       ?GetId@?$TypedObject@UPlayerUpdateAnimation@hk@csgo@aw@@UCallbackVars@4@@aw@@UAEIXZ 1007dfd0 f i csgo-hk-x86:csplayer.obj
 0001:0007cfe0       ?GetId@?$TypedObject@VCSPlayer@hk@csgo@aw@@VModuleBase@4@@aw@@UAEIXZ 1007dfe0 f i csgo-hk-x86:csplayer.obj
 0001:0007cff0       ?GetOldVTable@CSPlayer@impl@hk@csgo@aw@@UAEPAPAXXZ 1007dff0 f i csgo-hk-x86:csplayer.obj
 0001:0007d000       ?GetOrgUpdateClientSideAnimation@CSPlayer@impl@hk@csgo@aw@@UAEP6IXPAV1sdk@45@@ZXZ 1007e000 f i csgo-hk-x86:csplayer.obj
 0001:0007d010       ?HkCalcView@CSPlayer@impl@hk@csgo@aw@@KIXPAV1sdk@45@HPAVVector3@5@PAVEulerAngles@5@PAM33@Z 1007e010 f   csgo-hk-x86:csplayer.obj
 0001:0007d060       ?HkDataChanged@CSPlayer@impl@hk@csgo@aw@@KIXPAVClientNetworkable@sdk@45@HW4DataUpdateType@745@@Z 1007e060 f   csgo-hk-x86:csplayer.obj
 0001:0007d090       ?HkEyeAngles@CSPlayer@impl@hk@csgo@aw@@KIPBVEulerAngles@5@PAV1sdk@45@@Z 1007e090 f   csgo-hk-x86:csplayer.obj
 0001:0007d0c0       ?HkEyePosition@CSPlayer@impl@hk@csgo@aw@@KIPAVVector3@5@PAV1sdk@45@HPAV65@@Z 1007e0c0 f   csgo-hk-x86:csplayer.obj
 0001:0007d100       ?HkLatchInterpVars@CSPlayer@impl@hk@csgo@aw@@KIXPAV1sdk@45@HH@Z 1007e100 f   csgo-hk-x86:csplayer.obj
 0001:0007d160       ?HkPostDataUpdate@CSPlayer@impl@hk@csgo@aw@@KIXPAVClientNetworkable@sdk@45@HW4DataUpdateType@745@@Z 1007e160 f   csgo-hk-x86:csplayer.obj
 0001:0007d190       ?HkPostThink@CSPlayer@impl@hk@csgo@aw@@KIXPAV1sdk@45@@Z 1007e190 f   csgo-hk-x86:csplayer.obj
 0001:0007d1c0       ?HkSetupBones@CSPlayer@impl@hk@csgo@aw@@KI_NPAVClientRenderable@sdk@45@HPAVMatrix3x4@5@HIM@Z 1007e1c0 f   csgo-hk-x86:csplayer.obj
 0001:0007d220       ?HkShouldCollide@CSPlayer@impl@hk@csgo@aw@@KI_NPAV1sdk@45@HHH@Z 1007e220 f   csgo-hk-x86:csplayer.obj
 0001:0007d280       ?HkUpdateClientSideAnimation@CSPlayer@impl@hk@csgo@aw@@KIXPAV1sdk@45@@Z 1007e280 f   csgo-hk-x86:csplayer.obj
 0001:0007d2b0       ?HookEntity@CSPlayer@impl@hk@csgo@aw@@IAEXPAV1sdk@45@@Z 1007e2b0 f   csgo-hk-x86:csplayer.obj
 0001:0007d480       ?OnAddEntity@CSPlayer@impl@hk@csgo@aw@@IAEXAAUOnAddEntityCallback@345@@Z 1007e480 f   csgo-hk-x86:csplayer.obj
 0001:0007d4d0       ?OnCalcView@CSPlayer@impl@hk@csgo@aw@@IAEXAAUPlayerCalcView@345@@Z 1007e4d0 f   csgo-hk-x86:csplayer.obj
 0001:0007d4f0       ?OnDataChanged@CSPlayer@impl@hk@csgo@aw@@IAEXAAUPlayerOnDataChanged@345@@Z 1007e4f0 f   csgo-hk-x86:csplayer.obj
 0001:0007d510       ?OnEyeAngles@CSPlayer@impl@hk@csgo@aw@@IAEXAAUPlayerEyeAngles@345@@Z 1007e510 f   csgo-hk-x86:csplayer.obj
 0001:0007d530       ?OnEyePosition@CSPlayer@impl@hk@csgo@aw@@IAEXAAUPlayerEyePosition@345@@Z 1007e530 f   csgo-hk-x86:csplayer.obj
 0001:0007d550       ?OnHook@CSPlayer@impl@hk@csgo@aw@@IAEXAAUCommonHook@5@@Z 1007e550 f   csgo-hk-x86:csplayer.obj
 0001:0007d5c0       ?OnLatchInterpVars@CSPlayer@impl@hk@csgo@aw@@IAEXAAUPlayerLatchInterpVars@345@@Z 1007e5c0 f   csgo-hk-x86:csplayer.obj
 0001:0007d5e0       ?OnPostDataUpdate@CSPlayer@impl@hk@csgo@aw@@IAEXAAUPlayerPostDataUpdate@345@@Z 1007e5e0 f   csgo-hk-x86:csplayer.obj
 0001:0007d600       ?OnPostThink@CSPlayer@impl@hk@csgo@aw@@IAEXAAUPlayerPostThink@345@@Z 1007e600 f   csgo-hk-x86:csplayer.obj
 0001:0007d620       ?OnRemoveEntity@CSPlayer@impl@hk@csgo@aw@@IAEXAAUOnRemoveEntityCallback@345@@Z 1007e620 f   csgo-hk-x86:csplayer.obj
 0001:0007d680       ?OnSetupBones@CSPlayer@impl@hk@csgo@aw@@IAEXAAUPlayerSetupBones@345@@Z 1007e680 f   csgo-hk-x86:csplayer.obj
 0001:0007d6b0       ?OnUnhook@CSPlayer@impl@hk@csgo@aw@@IAEXAAUCommonUnhook@5@@Z 1007e6b0 f   csgo-hk-x86:csplayer.obj
 0001:0007d750       ?OnUpdateClientSideAnimation@CSPlayer@impl@hk@csgo@aw@@IAEXAAUPlayerUpdateAnimation@345@@Z 1007e750 f   csgo-hk-x86:csplayer.obj
 0001:0007d770       ?_Extract@?$_Tree_val@U?$_Tree_simple_types@PAVCSPlayer@sdk@csgo@aw@@@std@@@std@@QAEPAU?$_Tree_node@PAVCSPlayer@sdk@csgo@aw@@PAX@2@V?$_Tree_unchecked_const_iterator@V?$_Tree_val@U?$_Tree_simple_types@PAVCSPlayer@sdk@csgo@aw@@@std@@@std@@U_Iterator_base0@2@@2@@Z 1007e770 f i csgo-hk-x86:csplayer.obj
 0001:0007da70       ?_Insert_node@?$_Tree_val@U?$_Tree_simple_types@PAVCSPlayer@sdk@csgo@aw@@@std@@@std@@QAEPAU?$_Tree_node@PAVCSPlayer@sdk@csgo@aw@@PAX@2@U?$_Tree_id@PAU?$_Tree_node@PAVCSPlayer@sdk@csgo@aw@@PAX@std@@@2@QAU32@@Z 1007ea70 f i csgo-hk-x86:csplayer.obj
 0001:0007dc60       ?_Lrotate@?$_Tree_val@U?$_Tree_simple_types@PAVCSPlayer@sdk@csgo@aw@@@std@@@std@@QAEXPAU?$_Tree_node@PAVCSPlayer@sdk@csgo@aw@@PAX@2@@Z 1007ec60 f i csgo-hk-x86:csplayer.obj
 0001:0007dcb0       ?_Min@?$_Tree_val@U?$_Tree_simple_types@PAVCSPlayer@sdk@csgo@aw@@@std@@@std@@SAPAU?$_Tree_node@PAVCSPlayer@sdk@csgo@aw@@PAX@2@PAU32@@Z 1007ecb0 f i csgo-hk-x86:csplayer.obj
 0001:0007dcd0       ?_Rrotate@?$_Tree_val@U?$_Tree_simple_types@PAVCSPlayer@sdk@csgo@aw@@@std@@@std@@QAEXPAU?$_Tree_node@PAVCSPlayer@sdk@csgo@aw@@PAX@2@@Z 1007ecd0 f i csgo-hk-x86:csplayer.obj
 0001:0007dd30       ?clear@?$_Tree@V?$_Tset_traits@PAVCSPlayer@sdk@csgo@aw@@U?$less@PAVCSPlayer@sdk@csgo@aw@@@std@@V?$allocator@PAVCSPlayer@sdk@csgo@aw@@@6@$0A@@std@@@std@@QAEXXZ 1007ed30 f i csgo-hk-x86:csplayer.obj
 0001:0007dd80       ?erase@?$_Tree@V?$_Tset_traits@PAVCSPlayer@sdk@csgo@aw@@U?$less@PAVCSPlayer@sdk@csgo@aw@@@std@@V?$allocator@PAVCSPlayer@sdk@csgo@aw@@@6@$0A@@std@@@std@@QAEIABQAVCSPlayer@sdk@csgo@aw@@@Z 1007ed80 f i csgo-hk-x86:csplayer.obj
 0001:0007dea0       ??_E?$ModuleBaseImpl@VSplitScreen@hk@csgo@aw@@V?$TypedObject@VSplitScreen@hk@csgo@aw@@VModuleBase@4@@4@@aw@@UAEPAXI@Z 1007eea0 f i csgo-hk-x86:splitscreen.obj
 0001:0007dea0       ??_G?$ModuleBaseImpl@VSplitScreen@hk@csgo@aw@@V?$TypedObject@VSplitScreen@hk@csgo@aw@@VModuleBase@4@@4@@aw@@UAEPAXI@Z 1007eea0 f i csgo-hk-x86:splitscreen.obj
 0001:0007ded0       ??_EReadPackets@hk@csgo@aw@@UAEPAXI@Z 1007eed0 f i csgo-hk-x86:splitscreen.obj
 0001:0007ded0       ??_GReadPackets@hk@csgo@aw@@UAEPAXI@Z 1007eed0 f i csgo-hk-x86:splitscreen.obj
 0001:0007df00       ??_ESplitScreen@impl@hk@csgo@aw@@UAEPAXI@Z 1007ef00 f i csgo-hk-x86:splitscreen.obj
 0001:0007df00       ??_GSplitScreen@impl@hk@csgo@aw@@UAEPAXI@Z 1007ef00 f i csgo-hk-x86:splitscreen.obj
 0001:0007df30       ??_ESplitScreenSetLocalPlayerIsResolvable@hk@csgo@aw@@UAEPAXI@Z 1007ef30 f i csgo-hk-x86:splitscreen.obj
 0001:0007df30       ??_GSplitScreenSetLocalPlayerIsResolvable@hk@csgo@aw@@UAEPAXI@Z 1007ef30 f i csgo-hk-x86:splitscreen.obj
 0001:0007df60       ?CreateModule@?$ModuleWithFactory@VSplitScreen@hk@csgo@aw@@@aw@@SAPAVSplitScreen@hk@csgo@2@XZ 1007ef60 f   csgo-hk-x86:splitscreen.obj
 0001:0007e0c0       ?GetId@?$TypedObject@UReadPackets@hk@csgo@aw@@UCallbackVars@4@@aw@@UAEIXZ 1007f0c0 f i csgo-hk-x86:splitscreen.obj
 0001:0007e0d0       ?GetId@?$TypedObject@USplitScreenSetLocalPlayerIsResolvable@hk@csgo@aw@@UCallbackVars@4@@aw@@UAEIXZ 1007f0d0 f i csgo-hk-x86:splitscreen.obj
 0001:0007e0e0       ?GetId@?$TypedObject@VSplitScreen@hk@csgo@aw@@VModuleBase@4@@aw@@UAEIXZ 1007f0e0 f i csgo-hk-x86:splitscreen.obj
 0001:0007e0f0       ?HkSetLocalPlayerIsResolvable@SplitScreen@impl@hk@csgo@aw@@KIXPAXHPBDH_N@Z 1007f0f0 f   csgo-hk-x86:splitscreen.obj
 0001:0007e140       ?OnHook@SplitScreen@impl@hk@csgo@aw@@IAEXAAUCommonHook@5@@Z 1007f140 f   csgo-hk-x86:splitscreen.obj
 0001:0007e470       ?OnSetLocalPlayerIsResolvable@SplitScreen@impl@hk@csgo@aw@@IAEXAAUSplitScreenSetLocalPlayerIsResolvable@345@@Z 1007f470 f   csgo-hk-x86:splitscreen.obj
 0001:0007e4d0       ?OnUnhook@SplitScreen@impl@hk@csgo@aw@@IAEXAAUCommonUnhook@5@@Z 1007f4d0 f   csgo-hk-x86:splitscreen.obj
 0001:0007e4e0       ??_E?$ModuleBaseImpl@VInput@hk@csgo@aw@@V?$TypedObject@VInput@hk@csgo@aw@@VModuleBase@4@@4@@aw@@UAEPAXI@Z 1007f4e0 f i csgo-hk-x86:input.obj
 0001:0007e4e0       ??_G?$ModuleBaseImpl@VInput@hk@csgo@aw@@V?$TypedObject@VInput@hk@csgo@aw@@VModuleBase@4@@4@@aw@@UAEPAXI@Z 1007f4e0 f i csgo-hk-x86:input.obj
 0001:0007e510       ??_EGetUserCmd@hk@csgo@aw@@UAEPAXI@Z 1007f510 f i csgo-hk-x86:input.obj
 0001:0007e510       ??_GGetUserCmd@hk@csgo@aw@@UAEPAXI@Z 1007f510 f i csgo-hk-x86:input.obj
 0001:0007e540       ??_EInput@impl@hk@csgo@aw@@UAEPAXI@Z 1007f540 f i csgo-hk-x86:input.obj
 0001:0007e540       ??_GInput@impl@hk@csgo@aw@@UAEPAXI@Z 1007f540 f i csgo-hk-x86:input.obj
 0001:0007e570       ?CreateModule@?$ModuleWithFactory@VInput@hk@csgo@aw@@@aw@@SAPAVInput@hk@csgo@2@XZ 1007f570 f   csgo-hk-x86:input.obj
 0001:0007e660       ?GetId@?$TypedObject@UGetUserCmd@hk@csgo@aw@@UCallbackVars@4@@aw@@UAEIXZ 1007f660 f i csgo-hk-x86:input.obj
 0001:0007e670       ?GetId@?$TypedObject@VInput@hk@csgo@aw@@VModuleBase@4@@aw@@UAEIXZ 1007f670 f i csgo-hk-x86:input.obj
 0001:0007e680       ?HkGetUserCmd@Input@impl@hk@csgo@aw@@KIPAVUserCmd@sdk@45@PAV1745@HHH@Z 1007f680 f   csgo-hk-x86:input.obj
 0001:0007e6f0       ?OnHook@Input@impl@hk@csgo@aw@@IAEXAAUCommonHook@5@@Z 1007f6f0 f   csgo-hk-x86:input.obj
 0001:0007e720       ?OnUnhook@Input@impl@hk@csgo@aw@@IAEXAAUCommonUnhook@5@@Z 1007f720 f   csgo-hk-x86:input.obj
 0001:0007e730       ??_EGameEventManager@impl@hk@csgo@aw@@W7AEPAXI@Z 1007f730 f i csgo-hk-x86:gameevent.obj
 0001:0007e740       ??_E?$ModuleBaseImpl@VGameEventManager@hk@csgo@aw@@V?$TypedObject@VGameEventManager@hk@csgo@aw@@VModuleBase@4@@4@@aw@@UAEPAXI@Z 1007f740 f i csgo-hk-x86:gameevent.obj
 0001:0007e740       ??_G?$ModuleBaseImpl@VGameEventManager@hk@csgo@aw@@V?$TypedObject@VGameEventManager@hk@csgo@aw@@VModuleBase@4@@4@@aw@@UAEPAXI@Z 1007f740 f i csgo-hk-x86:gameevent.obj
 0001:0007e770       ??_EGameEvent@hk@csgo@aw@@UAEPAXI@Z 1007f770 f i csgo-hk-x86:gameevent.obj
 0001:0007e770       ??_GGameEvent@hk@csgo@aw@@UAEPAXI@Z 1007f770 f i csgo-hk-x86:gameevent.obj
 0001:0007e7a0       ??_EGameEventClientSide@hk@csgo@aw@@UAEPAXI@Z 1007f7a0 f i csgo-hk-x86:gameevent.obj
 0001:0007e7a0       ??_GGameEventClientSide@hk@csgo@aw@@UAEPAXI@Z 1007f7a0 f i csgo-hk-x86:gameevent.obj
 0001:0007e7d0       ??_EGameEventListener2@sdk@csgo@aw@@UAEPAXI@Z 1007f7d0 f i csgo-hk-x86:gameevent.obj
 0001:0007e7d0       ??_GGameEventListener2@sdk@csgo@aw@@UAEPAXI@Z 1007f7d0 f i csgo-hk-x86:gameevent.obj
 0001:0007e800       ??_EGameEventManager@impl@hk@csgo@aw@@UAEPAXI@Z 1007f800 f i csgo-hk-x86:gameevent.obj
 0001:0007e800       ??_GGameEventManager@impl@hk@csgo@aw@@UAEPAXI@Z 1007f800 f i csgo-hk-x86:gameevent.obj
 0001:0007e830       ?AllowListener@GameEventManager@impl@hk@csgo@aw@@UAEXV?$basic_string_view@DU?$char_traits@D@std@@@std@@@Z 1007f830 f   csgo-hk-x86:gameevent.obj
 0001:0007e860       ?CreateModule@?$ModuleWithFactory@VGameEventManager@hk@csgo@aw@@@aw@@SAPAVGameEventManager@hk@csgo@2@XZ 1007f860 f   csgo-hk-x86:gameevent.obj
 0001:0007e980       ?FireGameEvent@GameEventManager@impl@hk@csgo@aw@@MAEXPAVGameEvent@sdk@45@@Z 1007f980 f   csgo-hk-x86:gameevent.obj
 0001:0007e9d0       ?Get@GameEventManager@sdk@csgo@aw@@SAPAV1234@XZ 1007f9d0 f i csgo-hk-x86:gameevent.obj
 0001:0007e9e0       ?GetEventDebugID@GameEventListener2@sdk@csgo@aw@@UAEHXZ 1007f9e0 f i csgo-hk-x86:gameevent.obj
 0001:0007e9f0       ?GetId@?$TypedObject@UGameEvent@hk@csgo@aw@@UCallbackVars@4@@aw@@UAEIXZ 1007f9f0 f i csgo-hk-x86:gameevent.obj
 0001:0007ea00       ?GetId@?$TypedObject@UGameEventClientSide@hk@csgo@aw@@UCallbackVars@4@@aw@@UAEIXZ 1007fa00 f i csgo-hk-x86:gameevent.obj
 0001:0007ea10       ?GetId@?$TypedObject@VGameEventManager@hk@csgo@aw@@VModuleBase@4@@aw@@UAEIXZ 1007fa10 f i csgo-hk-x86:gameevent.obj
 0001:0007ea20       ?HkFireEventClientSide@GameEventManager@impl@hk@csgo@aw@@KI_NPAV1sdk@45@HPAVGameEvent@645@@Z 1007fa20 f   csgo-hk-x86:gameevent.obj
 0001:0007ea70       ?OnFireEventClientSide@GameEventManager@impl@hk@csgo@aw@@IAEXAAUGameEventClientSide@345@@Z 1007fa70 f   csgo-hk-x86:gameevent.obj
 0001:0007ea90       ?OnHook@GameEventManager@impl@hk@csgo@aw@@IAEXAAUCommonHook@5@@Z 1007fa90 f   csgo-hk-x86:gameevent.obj
 0001:0007f1b0       ?OnUnhook@GameEventManager@impl@hk@csgo@aw@@IAEXAAUCommonUnhook@5@@Z 100801b0 f   csgo-hk-x86:gameevent.obj
 0001:0007f1e0       ??$CreateModule@VD3D9Resources@gfx@aw@@@ModuleMgr@aw@@QAEPAVD3D9Resources@gfx@1@XZ 100801e0 f i csgo-hk-x86:d3d9device.obj
 0001:0007f1f0       ??$CreateModule@VD3D9Thread@gfx@aw@@@ModuleMgr@aw@@QAEPAVD3D9Thread@gfx@1@XZ 100801f0 f i csgo-hk-x86:d3d9device.obj
 0001:0007f200       ??$FindModule@VD3D9Resources@gfx@aw@@@ModuleMgr@aw@@QAEPAVD3D9Resources@gfx@1@_N@Z 10080200 f i csgo-hk-x86:d3d9device.obj
 0001:0007f2d0       ??$FindModule@VD3D9Thread@gfx@aw@@@ModuleMgr@aw@@QAEPAVD3D9Thread@gfx@1@_N@Z 100802d0 f i csgo-hk-x86:d3d9device.obj
 0001:0007f3a0       ??$FindOrCreateModule@VD3D9Resources@gfx@aw@@@ModuleMgr@aw@@QAEPAVD3D9Resources@gfx@1@XZ 100803a0 f i csgo-hk-x86:d3d9device.obj
 0001:0007f3c0       ??$FindOrCreateModule@VD3D9Thread@gfx@aw@@@ModuleMgr@aw@@QAEPAVD3D9Thread@gfx@1@XZ 100803c0 f i csgo-hk-x86:d3d9device.obj
 0001:0007f3e0       ??0D3D9Device@impl@hk@csgo@aw@@QAE@XZ 100803e0 f i csgo-hk-x86:d3d9device.obj
 0001:0007f620       ??_E?$ModuleBaseImpl@VD3D9Device@hk@csgo@aw@@V?$TypedObject@VD3D9Device@hk@csgo@aw@@VModuleBase@4@@4@@aw@@UAEPAXI@Z 10080620 f i csgo-hk-x86:d3d9device.obj
 0001:0007f620       ??_G?$ModuleBaseImpl@VD3D9Device@hk@csgo@aw@@V?$TypedObject@VD3D9Device@hk@csgo@aw@@VModuleBase@4@@4@@aw@@UAEPAXI@Z 10080620 f i csgo-hk-x86:d3d9device.obj
 0001:0007f650       ??_ED3D9Device@impl@hk@csgo@aw@@UAEPAXI@Z 10080650 f i csgo-hk-x86:d3d9device.obj
 0001:0007f650       ??_GD3D9Device@impl@hk@csgo@aw@@UAEPAXI@Z 10080650 f i csgo-hk-x86:d3d9device.obj
 0001:0007f680       ??_ED3D9EndScene@impl@hk@csgo@aw@@UAEPAXI@Z 10080680 f i csgo-hk-x86:d3d9device.obj
 0001:0007f680       ??_GD3D9EndScene@impl@hk@csgo@aw@@UAEPAXI@Z 10080680 f i csgo-hk-x86:d3d9device.obj
 0001:0007f6b0       ??_ED3D9Reset@impl@hk@csgo@aw@@UAEPAXI@Z 100806b0 f i csgo-hk-x86:d3d9device.obj
 0001:0007f6b0       ??_GD3D9Reset@impl@hk@csgo@aw@@UAEPAXI@Z 100806b0 f i csgo-hk-x86:d3d9device.obj
 0001:0007f6e0       ?CreateModule@?$ModuleWithFactory@VD3D9Device@hk@csgo@aw@@@aw@@SAPAVD3D9Device@hk@csgo@2@XZ 100806e0 f   csgo-hk-x86:d3d9device.obj
 0001:0007f710       ?GetFrameTime@D3D9Device@impl@hk@csgo@aw@@UAEMXZ 10080710 f i csgo-hk-x86:d3d9device.obj
 0001:0007f720       ?GetId@?$TypedObject@UD3D9EndScene@impl@hk@csgo@aw@@UCallbackVars@5@@aw@@UAEIXZ 10080720 f i csgo-hk-x86:d3d9device.obj
 0001:0007f730       ?GetId@?$TypedObject@UD3D9Reset@impl@hk@csgo@aw@@UCallbackVars@5@@aw@@UAEIXZ 10080730 f i csgo-hk-x86:d3d9device.obj
 0001:0007f740       ?GetId@?$TypedObject@VD3D9Device@hk@csgo@aw@@VModuleBase@4@@aw@@UAEIXZ 10080740 f i csgo-hk-x86:d3d9device.obj
 0001:0007f750       ?HkEndScene@D3D9Device@impl@hk@csgo@aw@@KGJPAUIDirect3DDevice9@@@Z 10080750 f   csgo-hk-x86:d3d9device.obj
 0001:0007f790       ?HkReset@D3D9Device@impl@hk@csgo@aw@@KGJPAUIDirect3DDevice9@@PAU_D3DPRESENT_PARAMETERS_@@@Z 10080790 f   csgo-hk-x86:d3d9device.obj
 0001:0007f7d0       ?OnEndScene@D3D9Device@impl@hk@csgo@aw@@IAEXAAUD3D9EndScene@2345@@Z 100807d0 f   csgo-hk-x86:d3d9device.obj
 0001:0007f880       ?OnHook@D3D9Device@impl@hk@csgo@aw@@IAEXAAUCommonHook@5@@Z 10080880 f   csgo-hk-x86:d3d9device.obj
 0001:0007f8d0       ?OnInit@D3D9Device@impl@hk@csgo@aw@@IAEXAAUCommonInit@5@@Z 100808d0 f   csgo-hk-x86:d3d9device.obj
 0001:0007f9a0       ?OnReset@D3D9Device@impl@hk@csgo@aw@@IAEXAAUD3D9Reset@2345@@Z 100809a0 f   csgo-hk-x86:d3d9device.obj
 0001:0007f9d0       ?OnUnhook@D3D9Device@impl@hk@csgo@aw@@IAEXAAUCommonUnhook@5@@Z 100809d0 f   csgo-hk-x86:d3d9device.obj
 0001:0007f9e0       ??_E?$ModuleBaseImpl@VRender@hk@csgo@aw@@V?$TypedObject@VRender@hk@csgo@aw@@VModuleBase@4@@4@@aw@@UAEPAXI@Z 100809e0 f i csgo-hk-x86:render.obj
 0001:0007f9e0       ??_G?$ModuleBaseImpl@VRender@hk@csgo@aw@@V?$TypedObject@VRender@hk@csgo@aw@@VModuleBase@4@@4@@aw@@UAEPAXI@Z 100809e0 f i csgo-hk-x86:render.obj
 0001:0007fa10       ??_EDrawWorldLists@hk@csgo@aw@@UAEPAXI@Z 10080a10 f i csgo-hk-x86:render.obj
 0001:0007fa10       ??_GDrawWorldLists@hk@csgo@aw@@UAEPAXI@Z 10080a10 f i csgo-hk-x86:render.obj
 0001:0007fa40       ??_EFrameEnd@hk@csgo@aw@@UAEPAXI@Z 10080a40 f i csgo-hk-x86:render.obj
 0001:0007fa40       ??_GFrameEnd@hk@csgo@aw@@UAEPAXI@Z 10080a40 f i csgo-hk-x86:render.obj
 0001:0007fa70       ??_ERender@impl@hk@csgo@aw@@UAEPAXI@Z 10080a70 f i csgo-hk-x86:render.obj
 0001:0007fa70       ??_GRender@impl@hk@csgo@aw@@UAEPAXI@Z 10080a70 f i csgo-hk-x86:render.obj
 0001:0007faa0       ?CreateModule@?$ModuleWithFactory@VRender@hk@csgo@aw@@@aw@@SAPAVRender@hk@csgo@2@XZ 10080aa0 f   csgo-hk-x86:render.obj
 0001:0007fbf0       ?GetId@?$TypedObject@UDrawWorldLists@hk@csgo@aw@@UCallbackVars@4@@aw@@UAEIXZ 10080bf0 f i csgo-hk-x86:render.obj
 0001:0007fc00       ?GetId@?$TypedObject@UFrameEnd@hk@csgo@aw@@UCallbackVars@4@@aw@@UAEIXZ 10080c00 f i csgo-hk-x86:render.obj
 0001:0007fc10       ?GetId@?$TypedObject@VRender@hk@csgo@aw@@VModuleBase@4@@aw@@UAEIXZ 10080c10 f i csgo-hk-x86:render.obj
 0001:0007fc20       ?HkDrawWorldLists@Render@impl@hk@csgo@aw@@KIXPAV1sdk@45@HPAVMatRenderContext@645@PAVWorldRenderList@645@IM@Z 10080c20 f   csgo-hk-x86:render.obj
 0001:0007fc70       ?HkFrameEnd@Render@impl@hk@csgo@aw@@KIXPAV1sdk@45@H@Z 10080c70 f   csgo-hk-x86:render.obj
 0001:0007fc90       ?OnDrawWorldLists@Render@impl@hk@csgo@aw@@IAEXAAUDrawWorldLists@345@@Z 10080c90 f   csgo-hk-x86:render.obj
 0001:0007fcc0       ?OnFrameEnd@Render@impl@hk@csgo@aw@@IAEXAAUFrameEnd@345@@Z 10080cc0 f   csgo-hk-x86:render.obj
 0001:0007fcd0       ?OnHook@Render@impl@hk@csgo@aw@@IAEXAAUCommonHook@5@@Z 10080cd0 f   csgo-hk-x86:render.obj
 0001:0007fd90       ?OnUnhook@Render@impl@hk@csgo@aw@@IAEXAAUCommonUnhook@5@@Z 10080d90 f   csgo-hk-x86:render.obj
 0001:0007fda0       ??0BaseClientState@impl@hk@csgo@aw@@QAE@XZ 10080da0 f i csgo-hk-x86:baseclientstate.obj
 0001:0007ff50       ??_E?$ModuleBaseImpl@VBaseClientState@hk@csgo@aw@@V?$TypedObject@VBaseClientState@hk@csgo@aw@@VModuleBase@4@@4@@aw@@UAEPAXI@Z 10080f50 f i csgo-hk-x86:baseclientstate.obj
 0001:0007ff50       ??_G?$ModuleBaseImpl@VBaseClientState@hk@csgo@aw@@V?$TypedObject@VBaseClientState@hk@csgo@aw@@VModuleBase@4@@4@@aw@@UAEPAXI@Z 10080f50 f i csgo-hk-x86:baseclientstate.obj
 0001:0007ff80       ??_EBaseClientState@impl@hk@csgo@aw@@UAEPAXI@Z 10080f80 f i csgo-hk-x86:baseclientstate.obj
 0001:0007ff80       ??_GBaseClientState@impl@hk@csgo@aw@@UAEPAXI@Z 10080f80 f i csgo-hk-x86:baseclientstate.obj
 0001:0007ffb0       ??_EConnectionStart@hk@csgo@aw@@UAEPAXI@Z 10080fb0 f i csgo-hk-x86:baseclientstate.obj
 0001:0007ffb0       ??_GConnectionStart@hk@csgo@aw@@UAEPAXI@Z 10080fb0 f i csgo-hk-x86:baseclientstate.obj
 0001:0007ffe0       ??_EPacketEnd@hk@csgo@aw@@UAEPAXI@Z 10080fe0 f i csgo-hk-x86:baseclientstate.obj
 0001:0007ffe0       ??_GPacketEnd@hk@csgo@aw@@UAEPAXI@Z 10080fe0 f i csgo-hk-x86:baseclientstate.obj
 0001:00080010       ??_EPacketStart@hk@csgo@aw@@UAEPAXI@Z 10081010 f i csgo-hk-x86:baseclientstate.obj
 0001:00080010       ??_GPacketStart@hk@csgo@aw@@UAEPAXI@Z 10081010 f i csgo-hk-x86:baseclientstate.obj
 0001:00080040       ??_EReadPacketEntities@hk@csgo@aw@@UAEPAXI@Z 10081040 f i csgo-hk-x86:baseclientstate.obj
 0001:00080040       ??_GReadPacketEntities@hk@csgo@aw@@UAEPAXI@Z 10081040 f i csgo-hk-x86:baseclientstate.obj
 0001:00080070       ?CreateModule@?$ModuleWithFactory@VBaseClientState@hk@csgo@aw@@@aw@@SAPAVBaseClientState@hk@csgo@2@XZ 10081070 f   csgo-hk-x86:baseclientstate.obj
 0001:000800a0       ?GetId@?$TypedObject@UConnectionStart@hk@csgo@aw@@UCallbackVars@4@@aw@@UAEIXZ 100810a0 f i csgo-hk-x86:baseclientstate.obj
 0001:000800b0       ?GetId@?$TypedObject@UPacketEnd@hk@csgo@aw@@UCallbackVars@4@@aw@@UAEIXZ 100810b0 f i csgo-hk-x86:baseclientstate.obj
 0001:000800c0       ?GetId@?$TypedObject@UPacketStart@hk@csgo@aw@@UCallbackVars@4@@aw@@UAEIXZ 100810c0 f i csgo-hk-x86:baseclientstate.obj
 0001:000800d0       ?GetId@?$TypedObject@UReadPacketEntities@hk@csgo@aw@@UCallbackVars@4@@aw@@UAEIXZ 100810d0 f i csgo-hk-x86:baseclientstate.obj
 0001:000800e0       ?GetId@?$TypedObject@VBaseClientState@hk@csgo@aw@@VModuleBase@4@@aw@@UAEIXZ 100810e0 f i csgo-hk-x86:baseclientstate.obj
 0001:000800f0       ?HkConnectionStart@BaseClientState@impl@hk@csgo@aw@@KIXPAXHPAVNetChan@sdk@45@@Z 100810f0 f   csgo-hk-x86:baseclientstate.obj
 0001:00080120       ?HkPacketEnd@BaseClientState@impl@hk@csgo@aw@@KIXPAXH@Z 10081120 f   csgo-hk-x86:baseclientstate.obj
 0001:00080150       ?HkPacketStart@BaseClientState@impl@hk@csgo@aw@@KIXPAXHHH@Z 10081150 f   csgo-hk-x86:baseclientstate.obj
 0001:00080190       ?HkReadPacketEntities@BaseClientState@impl@hk@csgo@aw@@KIXPAXH0@Z 10081190 f   csgo-hk-x86:baseclientstate.obj
 0001:000801c0       ?OnConnectionStart@BaseClientState@impl@hk@csgo@aw@@IAEXAAUConnectionStart@345@@Z 100811c0 f   csgo-hk-x86:baseclientstate.obj
 0001:000801e0       ?OnHook@BaseClientState@impl@hk@csgo@aw@@IAEXAAUCommonHook@5@@Z 100811e0 f   csgo-hk-x86:baseclientstate.obj
 0001:00080250       ?OnPacketEnd@BaseClientState@impl@hk@csgo@aw@@IAEXAAUPacketEnd@345@@Z 10081250 f   csgo-hk-x86:baseclientstate.obj
 0001:00080270       ?OnPacketStart@BaseClientState@impl@hk@csgo@aw@@IAEXAAUPacketStart@345@@Z 10081270 f   csgo-hk-x86:baseclientstate.obj
 0001:000802a0       ?OnReadPacketEntities@BaseClientState@impl@hk@csgo@aw@@IAEXAAUReadPacketEntities@345@@Z 100812a0 f   csgo-hk-x86:baseclientstate.obj
 0001:000802c0       ?OnUnhook@BaseClientState@impl@hk@csgo@aw@@IAEXAAUCommonUnhook@5@@Z 100812c0 f   csgo-hk-x86:baseclientstate.obj
 0001:000802d0       ??$_Resize_reallocate@U_Value_init_tag@std@@@?$vector@VVTable@hk@aw@@V?$allocator@VVTable@hk@aw@@@std@@@std@@AAEXIABU_Value_init_tag@1@@Z 100812d0 f i csgo-hk-x86:netchan.obj
 0001:00080410       ??$_Uninitialized_value_construct_n@V?$allocator@VVTable@hk@aw@@@std@@@std@@YAPAVVTable@hk@aw@@PAV123@IAAV?$allocator@VVTable@hk@aw@@@0@@Z 10081410 f i csgo-hk-x86:netchan.obj
 0001:00080450       ??0NetChan@hk@csgo@aw@@QAE@XZ 10081450 f   csgo-hk-x86:netchan.obj
 0001:00080680       ??_E?$ModuleBaseImpl@VNetChan@hk@csgo@aw@@V?$TypedObject@VNetChan@hk@csgo@aw@@VModuleBase@4@@4@@aw@@UAEPAXI@Z 10081680 f i csgo-hk-x86:netchan.obj
 0001:00080680       ??_G?$ModuleBaseImpl@VNetChan@hk@csgo@aw@@V?$TypedObject@VNetChan@hk@csgo@aw@@VModuleBase@4@@4@@aw@@UAEPAXI@Z 10081680 f i csgo-hk-x86:netchan.obj
 0001:000806b0       ??_ENetChan@hk@csgo@aw@@UAEPAXI@Z 100816b0 f i csgo-hk-x86:netchan.obj
 0001:000806b0       ??_GNetChan@hk@csgo@aw@@UAEPAXI@Z 100816b0 f i csgo-hk-x86:netchan.obj
 0001:00080730       ??_ENetChannelCreated@hk@csgo@aw@@UAEPAXI@Z 10081730 f i csgo-hk-x86:netchan.obj
 0001:00080730       ??_GNetChannelCreated@hk@csgo@aw@@UAEPAXI@Z 10081730 f i csgo-hk-x86:netchan.obj
 0001:00080760       ??_EParseNetMsg@hk@csgo@aw@@UAEPAXI@Z 10081760 f i csgo-hk-x86:netchan.obj
 0001:00080760       ??_GParseNetMsg@hk@csgo@aw@@UAEPAXI@Z 10081760 f i csgo-hk-x86:netchan.obj
 0001:00080790       ??_EProcessPacket@hk@csgo@aw@@UAEPAXI@Z 10081790 f i csgo-hk-x86:netchan.obj
 0001:00080790       ??_GProcessPacket@hk@csgo@aw@@UAEPAXI@Z 10081790 f i csgo-hk-x86:netchan.obj
 0001:000807c0       ??_ESendDatagram@hk@csgo@aw@@UAEPAXI@Z 100817c0 f i csgo-hk-x86:netchan.obj
 0001:000807c0       ??_GSendDatagram@hk@csgo@aw@@UAEPAXI@Z 100817c0 f i csgo-hk-x86:netchan.obj
 0001:000807f0       ??_ESendNetMsg@hk@csgo@aw@@UAEPAXI@Z 100817f0 f i csgo-hk-x86:netchan.obj
 0001:000807f0       ??_GSendNetMsg@hk@csgo@aw@@UAEPAXI@Z 100817f0 f i csgo-hk-x86:netchan.obj
 0001:00080820       ?GetId@?$TypedObject@UNetChannelCreated@hk@csgo@aw@@UCallbackVars@4@@aw@@UAEIXZ 10081820 f i csgo-hk-x86:netchan.obj
 0001:00080830       ?GetId@?$TypedObject@UParseNetMsg@hk@csgo@aw@@UCallbackVars@4@@aw@@UAEIXZ 10081830 f i csgo-hk-x86:netchan.obj
 0001:00080840       ?GetId@?$TypedObject@UProcessPacket@hk@csgo@aw@@UCallbackVars@4@@aw@@UAEIXZ 10081840 f i csgo-hk-x86:netchan.obj
 0001:00080850       ?GetId@?$TypedObject@USendDatagram@hk@csgo@aw@@UCallbackVars@4@@aw@@UAEIXZ 10081850 f i csgo-hk-x86:netchan.obj
 0001:00080860       ?GetId@?$TypedObject@USendNetMsg@hk@csgo@aw@@UCallbackVars@4@@aw@@UAEIXZ 10081860 f i csgo-hk-x86:netchan.obj
 0001:00080870       ?GetId@?$TypedObject@VNetChan@hk@csgo@aw@@VModuleBase@4@@aw@@UAEIXZ 10081870 f i csgo-hk-x86:netchan.obj
 0001:00080880       ?HkCreateFromBuffer@NetChan@hk@csgo@aw@@KIPAVNetMessage@sdk@34@PAVNetMessageBinder@634@HPAVbf_read@634@@Z 10081880 f   csgo-hk-x86:netchan.obj
 0001:000808c0       ?HkProcessPacket@NetChan@hk@csgo@aw@@KIXPAV1sdk@34@HPAX_N@Z 100818c0 f   csgo-hk-x86:netchan.obj
 0001:00080900       ?HkSendDatagram@NetChan@hk@csgo@aw@@KIHPAV1sdk@34@HPAX@Z 10081900 f   csgo-hk-x86:netchan.obj
 0001:00080950       ?HkSendNetMsg@NetChan@hk@csgo@aw@@KI_NPAV1sdk@34@HPAVNetMessage@534@_N2@Z 10081950 f   csgo-hk-x86:netchan.obj
 0001:000809a0       ?HookNetChan@NetChan@hk@csgo@aw@@IAEXPAV1sdk@34@@Z 100819a0 f   csgo-hk-x86:netchan.obj
 0001:00080b00       ?OnConnectionStart@NetChan@hk@csgo@aw@@IAEXAAUConnectionStart@234@@Z 10081b00 f   csgo-hk-x86:netchan.obj
 0001:00080b10       ?OnFrameEnd@NetChan@hk@csgo@aw@@IAEXAAUFrameEnd@234@@Z 10081b10 f   csgo-hk-x86:netchan.obj
 0001:00080b20       ?OnHook@NetChan@hk@csgo@aw@@IAEXAAUCommonHook@4@@Z 10081b20 f   csgo-hk-x86:netchan.obj
 0001:00080b30       ?OnParseNetMsg@NetChan@hk@csgo@aw@@IAEXAAUParseNetMsg@234@@Z 10081b30 f   csgo-hk-x86:netchan.obj
 0001:00080b70       ?OnProcessPacket@NetChan@hk@csgo@aw@@IAEXAAUProcessPacket@234@@Z 10081b70 f   csgo-hk-x86:netchan.obj
 0001:00080b90       ?OnSendDatagram@NetChan@hk@csgo@aw@@IAEXAAUSendDatagram@234@@Z 10081b90 f   csgo-hk-x86:netchan.obj
 0001:00080bb0       ?OnSendNetMsg@NetChan@hk@csgo@aw@@IAEXAAUSendNetMsg@234@@Z 10081bb0 f   csgo-hk-x86:netchan.obj
 0001:00080be0       ?OnUnhook@NetChan@hk@csgo@aw@@IAEXAAUCommonUnhook@4@@Z 10081be0 f   csgo-hk-x86:netchan.obj
 0001:00080c20       ?Rehook@NetChan@hk@csgo@aw@@QAEX_N@Z 10081c20 f   csgo-hk-x86:netchan.obj
 0001:00080ca0       ?_Xlength@?$vector@VVTable@hk@aw@@V?$allocator@VVTable@hk@aw@@@std@@@std@@CAXXZ 10081ca0 f i csgo-hk-x86:netchan.obj
 0001:00080cb0       ??$FindModule@VInputBase@hk@aw@@@ModuleMgr@aw@@QAEPAVInputBase@hk@1@_N@Z 10081cb0 f i csgo-hk-x86:vgui_surface.obj
 0001:00080d80       ??_E?$ModuleBaseImpl@VVGuiSurface@hk@csgo@aw@@V?$TypedObject@VVGuiSurface@hk@csgo@aw@@VModuleBase@4@@4@@aw@@UAEPAXI@Z 10081d80 f i csgo-hk-x86:vgui_surface.obj
 0001:00080d80       ??_G?$ModuleBaseImpl@VVGuiSurface@hk@csgo@aw@@V?$TypedObject@VVGuiSurface@hk@csgo@aw@@VModuleBase@4@@4@@aw@@UAEPAXI@Z 10081d80 f i csgo-hk-x86:vgui_surface.obj
 0001:00080db0       ??_EDrawSetColor@hk@csgo@aw@@UAEPAXI@Z 10081db0 f i csgo-hk-x86:vgui_surface.obj
 0001:00080db0       ??_GDrawSetColor@hk@csgo@aw@@UAEPAXI@Z 10081db0 f i csgo-hk-x86:vgui_surface.obj
 0001:00080de0       ??_ELockCursor@hk@csgo@aw@@UAEPAXI@Z 10081de0 f i csgo-hk-x86:vgui_surface.obj
 0001:00080de0       ??_GLockCursor@hk@csgo@aw@@UAEPAXI@Z 10081de0 f i csgo-hk-x86:vgui_surface.obj
 0001:00080e10       ??_EVGuiSurface@impl@hk@csgo@aw@@UAEPAXI@Z 10081e10 f i csgo-hk-x86:vgui_surface.obj
 0001:00080e10       ??_GVGuiSurface@impl@hk@csgo@aw@@UAEPAXI@Z 10081e10 f i csgo-hk-x86:vgui_surface.obj
 0001:00080e40       ?CreateModule@?$ModuleWithFactory@VVGuiSurface@hk@csgo@aw@@@aw@@SAPAVVGuiSurface@hk@csgo@2@XZ 10081e40 f   csgo-hk-x86:vgui_surface.obj
 0001:00080fb0       ?Get@VGuiSurface@sdk@csgo@aw@@SAPAV1234@XZ 10081fb0 f i csgo-hk-x86:vgui_surface.obj
 0001:00080fc0       ?GetDynamic@VGuiSurface@sdk@csgo@aw@@SAPAV1234@XZ 10081fc0 f i csgo-hk-x86:vgui_surface.obj
 0001:00080fe0       ?GetId@?$TypedObject@UDrawSetColor@hk@csgo@aw@@UCallbackVars@4@@aw@@UAEIXZ 10081fe0 f i csgo-hk-x86:vgui_surface.obj
 0001:00080ff0       ?GetId@?$TypedObject@ULockCursor@hk@csgo@aw@@UCallbackVars@4@@aw@@UAEIXZ 10081ff0 f i csgo-hk-x86:vgui_surface.obj
 0001:00081000       ?GetId@?$TypedObject@VVGuiSurface@hk@csgo@aw@@VModuleBase@4@@aw@@UAEIXZ 10082000 f i csgo-hk-x86:vgui_surface.obj
 0001:00081010       ?HkDrawSetColor@VGuiSurface@impl@hk@csgo@aw@@KIXPAV1sdk@45@HHHHH@Z 10082010 f   csgo-hk-x86:vgui_surface.obj
 0001:00081060       ?HkLockCursor@VGuiSurface@impl@hk@csgo@aw@@KIXPAV1sdk@45@@Z 10082060 f   csgo-hk-x86:vgui_surface.obj
 0001:00081080       ?OnDrawSetColor@VGuiSurface@impl@hk@csgo@aw@@IAEXAAUDrawSetColor@345@@Z 10082080 f   csgo-hk-x86:vgui_surface.obj
 0001:000810b0       ?OnHook@VGuiSurface@impl@hk@csgo@aw@@IAEXAAUCommonHook@5@@Z 100820b0 f   csgo-hk-x86:vgui_surface.obj
 0001:00081100       ?OnLockCursor@VGuiSurface@impl@hk@csgo@aw@@IAEXAAULockCursor@345@@Z 10082100 f   csgo-hk-x86:vgui_surface.obj
 0001:00081160       ?OnUnhook@VGuiSurface@impl@hk@csgo@aw@@IAEXAAUCommonUnhook@5@@Z 10082160 f   csgo-hk-x86:vgui_surface.obj
 0001:00081170       ??_E?$ModuleBaseImpl@VStudioRender@hk@csgo@aw@@V?$TypedObject@VStudioRender@hk@csgo@aw@@VModuleBase@4@@4@@aw@@UAEPAXI@Z 10082170 f i csgo-hk-x86:studiorender.obj
 0001:00081170       ??_G?$ModuleBaseImpl@VStudioRender@hk@csgo@aw@@V?$TypedObject@VStudioRender@hk@csgo@aw@@VModuleBase@4@@4@@aw@@UAEPAXI@Z 10082170 f i csgo-hk-x86:studiorender.obj
 0001:000811a0       ??_EDrawModel@hk@csgo@aw@@UAEPAXI@Z 100821a0 f i csgo-hk-x86:studiorender.obj
 0001:000811a0       ??_GDrawModel@hk@csgo@aw@@UAEPAXI@Z 100821a0 f i csgo-hk-x86:studiorender.obj
 0001:000811d0       ??_EStudioRender@impl@hk@csgo@aw@@UAEPAXI@Z 100821d0 f i csgo-hk-x86:studiorender.obj
 0001:000811d0       ??_GStudioRender@impl@hk@csgo@aw@@UAEPAXI@Z 100821d0 f i csgo-hk-x86:studiorender.obj
 0001:00081200       ?CreateModule@?$ModuleWithFactory@VStudioRender@hk@csgo@aw@@@aw@@SAPAVStudioRender@hk@csgo@2@XZ 10082200 f   csgo-hk-x86:studiorender.obj
 0001:00081340       ?GetId@?$TypedObject@UDrawModel@hk@csgo@aw@@UCallbackVars@4@@aw@@UAEIXZ 10082340 f i csgo-hk-x86:studiorender.obj
 0001:00081350       ?GetId@?$TypedObject@VStudioRender@hk@csgo@aw@@VModuleBase@4@@aw@@UAEIXZ 10082350 f i csgo-hk-x86:studiorender.obj
 0001:00081360       ?GetOrgDrawModel@StudioRender@impl@hk@csgo@aw@@UAEP6IXPAV1sdk@45@HPAXPAUDrawModelInfo@645@PAVMatrix3x4@5@HHABVVector3@5@H@ZXZ 10082360 f i csgo-hk-x86:studiorender.obj
 0001:00081370       ?HkDrawModel@StudioRender@impl@hk@csgo@aw@@KIXPAV1sdk@45@HPAXPAUDrawModelInfo@645@PAVMatrix3x4@5@HHABVVector3@5@H@Z 10082370 f   csgo-hk-x86:studiorender.obj
 0001:000813f0       ?OnDrawModel@StudioRender@impl@hk@csgo@aw@@IAEXAAUDrawModel@345@@Z 100823f0 f   csgo-hk-x86:studiorender.obj
 0001:00081420       ?OnHook@StudioRender@impl@hk@csgo@aw@@IAEXAAUCommonHook@5@@Z 10082420 f   csgo-hk-x86:studiorender.obj
 0001:00081450       ?OnUnhook@StudioRender@impl@hk@csgo@aw@@IAEXAAUCommonUnhook@5@@Z 10082450 f   csgo-hk-x86:studiorender.obj
 0001:00081460       ??$OnAnimLayerChanged@ULayerCycle@impl@hk@csgo@aw@@@RecvProxies@impl@hk@csgo@aw@@IAEXAAULayerCycle@1234@@Z 10082460 f i csgo-hk-x86:recvproxy.obj
 0001:000814a0       ??$OnAnimLayerChanged@ULayerOrder@impl@hk@csgo@aw@@@RecvProxies@impl@hk@csgo@aw@@IAEXAAULayerOrder@1234@@Z 100824a0 f i csgo-hk-x86:recvproxy.obj
 0001:000814e0       ??$OnAnimLayerChanged@ULayerPlaybackRate@impl@hk@csgo@aw@@@RecvProxies@impl@hk@csgo@aw@@IAEXAAULayerPlaybackRate@1234@@Z 100824e0 f i csgo-hk-x86:recvproxy.obj
 0001:00081520       ??$OnAnimLayerChanged@ULayerPrevCycle@impl@hk@csgo@aw@@@RecvProxies@impl@hk@csgo@aw@@IAEXAAULayerPrevCycle@1234@@Z 10082520 f i csgo-hk-x86:recvproxy.obj
 0001:00081560       ??$OnAnimLayerChanged@ULayerSequence@impl@hk@csgo@aw@@@RecvProxies@impl@hk@csgo@aw@@IAEXAAULayerSequence@1234@@Z 10082560 f i csgo-hk-x86:recvproxy.obj
 0001:000815a0       ??$OnAnimLayerChanged@ULayerWeight@impl@hk@csgo@aw@@@RecvProxies@impl@hk@csgo@aw@@IAEXAAULayerWeight@1234@@Z 100825a0 f i csgo-hk-x86:recvproxy.obj
 0001:000815e0       ??$OnAnimLayerChanged@ULayerWeightDeltaRate@impl@hk@csgo@aw@@@RecvProxies@impl@hk@csgo@aw@@IAEXAAULayerWeightDeltaRate@1234@@Z 100825e0 f i csgo-hk-x86:recvproxy.obj
 0001:00081620       ??0RecvProxies@impl@hk@csgo@aw@@QAE@XZ 10082620 f i csgo-hk-x86:recvproxy.obj
 0001:00081a30       ??_E?$ModuleBaseImpl@VRecvProxies@hk@csgo@aw@@V?$TypedObject@VRecvProxies@hk@csgo@aw@@VModuleBase@4@@4@@aw@@UAEPAXI@Z 10082a30 f i csgo-hk-x86:recvproxy.obj
 0001:00081a30       ??_G?$ModuleBaseImpl@VRecvProxies@hk@csgo@aw@@V?$TypedObject@VRecvProxies@hk@csgo@aw@@VModuleBase@4@@4@@aw@@UAEPAXI@Z 10082a30 f i csgo-hk-x86:recvproxy.obj
 0001:00081a60       ??_EAnimLayerVar@hk@csgo@aw@@UAEPAXI@Z 10082a60 f i csgo-hk-x86:recvproxy.obj
 0001:00081a60       ??_GAnimLayerVar@hk@csgo@aw@@UAEPAXI@Z 10082a60 f i csgo-hk-x86:recvproxy.obj
 0001:00081a90       ??_EBaseViewModelSequence@hk@csgo@aw@@UAEPAXI@Z 10082a90 f i csgo-hk-x86:recvproxy.obj
 0001:00081a90       ??_GBaseViewModelSequence@hk@csgo@aw@@UAEPAXI@Z 10082a90 f i csgo-hk-x86:recvproxy.obj
 0001:00081ac0       ??_EFlashDuration@hk@csgo@aw@@UAEPAXI@Z 10082ac0 f i csgo-hk-x86:recvproxy.obj
 0001:00081ac0       ??_GFlashDuration@hk@csgo@aw@@UAEPAXI@Z 10082ac0 f i csgo-hk-x86:recvproxy.obj
 0001:00081af0       ??_EGroundAccelLinearFracLastTime@hk@csgo@aw@@UAEPAXI@Z 10082af0 f i csgo-hk-x86:recvproxy.obj
 0001:00081af0       ??_GGroundAccelLinearFracLastTime@hk@csgo@aw@@UAEPAXI@Z 10082af0 f i csgo-hk-x86:recvproxy.obj
 0001:00081b20       ??_ELayerCycle@impl@hk@csgo@aw@@UAEPAXI@Z 10082b20 f i csgo-hk-x86:recvproxy.obj
 0001:00081b20       ??_GLayerCycle@impl@hk@csgo@aw@@UAEPAXI@Z 10082b20 f i csgo-hk-x86:recvproxy.obj
 0001:00081b50       ??_ELayerOrder@impl@hk@csgo@aw@@UAEPAXI@Z 10082b50 f i csgo-hk-x86:recvproxy.obj
 0001:00081b50       ??_GLayerOrder@impl@hk@csgo@aw@@UAEPAXI@Z 10082b50 f i csgo-hk-x86:recvproxy.obj
 0001:00081b80       ??_ELayerPlaybackRate@impl@hk@csgo@aw@@UAEPAXI@Z 10082b80 f i csgo-hk-x86:recvproxy.obj
 0001:00081b80       ??_GLayerPlaybackRate@impl@hk@csgo@aw@@UAEPAXI@Z 10082b80 f i csgo-hk-x86:recvproxy.obj
 0001:00081bb0       ??_ELayerPrevCycle@impl@hk@csgo@aw@@UAEPAXI@Z 10082bb0 f i csgo-hk-x86:recvproxy.obj
 0001:00081bb0       ??_GLayerPrevCycle@impl@hk@csgo@aw@@UAEPAXI@Z 10082bb0 f i csgo-hk-x86:recvproxy.obj
 0001:00081be0       ??_ELayerSequence@impl@hk@csgo@aw@@UAEPAXI@Z 10082be0 f i csgo-hk-x86:recvproxy.obj
 0001:00081be0       ??_GLayerSequence@impl@hk@csgo@aw@@UAEPAXI@Z 10082be0 f i csgo-hk-x86:recvproxy.obj
 0001:00081c10       ??_ELayerWeight@impl@hk@csgo@aw@@UAEPAXI@Z 10082c10 f i csgo-hk-x86:recvproxy.obj
 0001:00081c10       ??_GLayerWeight@impl@hk@csgo@aw@@UAEPAXI@Z 10082c10 f i csgo-hk-x86:recvproxy.obj
 0001:00081c40       ??_ELayerWeightDeltaRate@impl@hk@csgo@aw@@UAEPAXI@Z 10082c40 f i csgo-hk-x86:recvproxy.obj
 0001:00081c40       ??_GLayerWeightDeltaRate@impl@hk@csgo@aw@@UAEPAXI@Z 10082c40 f i csgo-hk-x86:recvproxy.obj
 0001:00081c70       ??_ELowerBodyYawTarget@hk@csgo@aw@@UAEPAXI@Z 10082c70 f i csgo-hk-x86:recvproxy.obj
 0001:00081c70       ??_GLowerBodyYawTarget@hk@csgo@aw@@UAEPAXI@Z 10082c70 f i csgo-hk-x86:recvproxy.obj
 0001:00081ca0       ??_ERecvProxies@impl@hk@csgo@aw@@UAEPAXI@Z 10082ca0 f i csgo-hk-x86:recvproxy.obj
 0001:00081ca0       ??_GRecvProxies@impl@hk@csgo@aw@@UAEPAXI@Z 10082ca0 f i csgo-hk-x86:recvproxy.obj
 0001:00081cd0       ??_ESmokeEffectTickBegin@hk@csgo@aw@@UAEPAXI@Z 10082cd0 f i csgo-hk-x86:recvproxy.obj
 0001:00081cd0       ??_GSmokeEffectTickBegin@hk@csgo@aw@@UAEPAXI@Z 10082cd0 f i csgo-hk-x86:recvproxy.obj
 0001:00081d00       ??_ETickBase@hk@csgo@aw@@UAEPAXI@Z 10082d00 f i csgo-hk-x86:recvproxy.obj
 0001:00081d00       ??_GTickBase@hk@csgo@aw@@UAEPAXI@Z 10082d00 f i csgo-hk-x86:recvproxy.obj
 0001:00081d30       ?CreateModule@?$ModuleWithFactory@VRecvProxies@hk@csgo@aw@@@aw@@SAPAVRecvProxies@hk@csgo@2@XZ 10082d30 f   csgo-hk-x86:recvproxy.obj
 0001:00081d60       ?GetId@?$TypedObject@UAnimLayerVar@hk@csgo@aw@@UCallbackVars@4@@aw@@UAEIXZ 10082d60 f i csgo-hk-x86:recvproxy.obj
 0001:00081d70       ?GetId@?$TypedObject@UBaseViewModelSequence@hk@csgo@aw@@UCallbackVars@4@@aw@@UAEIXZ 10082d70 f i csgo-hk-x86:recvproxy.obj
 0001:00081d80       ?GetId@?$TypedObject@UFlashDuration@hk@csgo@aw@@UCallbackVars@4@@aw@@UAEIXZ 10082d80 f i csgo-hk-x86:recvproxy.obj
 0001:00081d90       ?GetId@?$TypedObject@UGroundAccelLinearFracLastTime@hk@csgo@aw@@UCallbackVars@4@@aw@@UAEIXZ 10082d90 f i csgo-hk-x86:recvproxy.obj
 0001:00081da0       ?GetId@?$TypedObject@ULayerCycle@impl@hk@csgo@aw@@UCallbackVars@5@@aw@@UAEIXZ 10082da0 f i csgo-hk-x86:recvproxy.obj
 0001:00081db0       ?GetId@?$TypedObject@ULayerOrder@impl@hk@csgo@aw@@UCallbackVars@5@@aw@@UAEIXZ 10082db0 f i csgo-hk-x86:recvproxy.obj
 0001:00081dc0       ?GetId@?$TypedObject@ULayerPlaybackRate@impl@hk@csgo@aw@@UCallbackVars@5@@aw@@UAEIXZ 10082dc0 f i csgo-hk-x86:recvproxy.obj
 0001:00081dd0       ?GetId@?$TypedObject@ULayerPrevCycle@impl@hk@csgo@aw@@UCallbackVars@5@@aw@@UAEIXZ 10082dd0 f i csgo-hk-x86:recvproxy.obj
 0001:00081de0       ?GetId@?$TypedObject@ULayerSequence@impl@hk@csgo@aw@@UCallbackVars@5@@aw@@UAEIXZ 10082de0 f i csgo-hk-x86:recvproxy.obj
 0001:00081df0       ?GetId@?$TypedObject@ULayerWeight@impl@hk@csgo@aw@@UCallbackVars@5@@aw@@UAEIXZ 10082df0 f i csgo-hk-x86:recvproxy.obj
 0001:00081e00       ?GetId@?$TypedObject@ULayerWeightDeltaRate@impl@hk@csgo@aw@@UCallbackVars@5@@aw@@UAEIXZ 10082e00 f i csgo-hk-x86:recvproxy.obj
 0001:00081e10       ?GetId@?$TypedObject@ULowerBodyYawTarget@hk@csgo@aw@@UCallbackVars@4@@aw@@UAEIXZ 10082e10 f i csgo-hk-x86:recvproxy.obj
 0001:00081e20       ?GetId@?$TypedObject@USmokeEffectTickBegin@hk@csgo@aw@@UCallbackVars@4@@aw@@UAEIXZ 10082e20 f i csgo-hk-x86:recvproxy.obj
 0001:00081e30       ?GetId@?$TypedObject@UTickBase@hk@csgo@aw@@UCallbackVars@4@@aw@@UAEIXZ 10082e30 f i csgo-hk-x86:recvproxy.obj
 0001:00081e40       ?GetId@?$TypedObject@VRecvProxies@hk@csgo@aw@@VModuleBase@4@@aw@@UAEIXZ 10082e40 f i csgo-hk-x86:recvproxy.obj
 0001:00081e60       ?OnHook@RecvProxies@impl@hk@csgo@aw@@IAEXAAUCommonHook@5@@Z 10082e60 f   csgo-hk-x86:recvproxy.obj
 0001:000821b0       ?OnUnhook@RecvProxies@impl@hk@csgo@aw@@IAEXAAUCommonUnhook@5@@Z 100831b0 f   csgo-hk-x86:recvproxy.obj
 0001:00082220       ?ProxyCallback@?$RecvProxyHook@UBaseViewModelSequence@hk@csgo@aw@@@impl@hk@csgo@aw@@QAEXAAUBaseViewModelSequence@345@@Z 10083220 f i csgo-hk-x86:recvproxy.obj
 0001:00082240       ?ProxyCallback@?$RecvProxyHook@UFlashDuration@hk@csgo@aw@@@impl@hk@csgo@aw@@QAEXAAUFlashDuration@345@@Z 10083240 f i csgo-hk-x86:recvproxy.obj
 0001:00082260       ?ProxyCallback@?$RecvProxyHook@UGroundAccelLinearFracLastTime@hk@csgo@aw@@@impl@hk@csgo@aw@@QAEXAAUGroundAccelLinearFracLastTime@345@@Z 10083260 f i csgo-hk-x86:recvproxy.obj
 0001:00082280       ?ProxyCallback@?$RecvProxyHook@ULayerCycle@impl@hk@csgo@aw@@@impl@hk@csgo@aw@@QAEXAAULayerCycle@2345@@Z 10083280 f i csgo-hk-x86:recvproxy.obj
 0001:000822a0       ?ProxyCallback@?$RecvProxyHook@ULayerOrder@impl@hk@csgo@aw@@@impl@hk@csgo@aw@@QAEXAAULayerOrder@2345@@Z 100832a0 f i csgo-hk-x86:recvproxy.obj
 0001:000822c0       ?ProxyCallback@?$RecvProxyHook@ULayerPlaybackRate@impl@hk@csgo@aw@@@impl@hk@csgo@aw@@QAEXAAULayerPlaybackRate@2345@@Z 100832c0 f i csgo-hk-x86:recvproxy.obj
 0001:000822e0       ?ProxyCallback@?$RecvProxyHook@ULayerPrevCycle@impl@hk@csgo@aw@@@impl@hk@csgo@aw@@QAEXAAULayerPrevCycle@2345@@Z 100832e0 f i csgo-hk-x86:recvproxy.obj
 0001:00082300       ?ProxyCallback@?$RecvProxyHook@ULayerSequence@impl@hk@csgo@aw@@@impl@hk@csgo@aw@@QAEXAAULayerSequence@2345@@Z 10083300 f i csgo-hk-x86:recvproxy.obj
 0001:00082320       ?ProxyCallback@?$RecvProxyHook@ULayerWeight@impl@hk@csgo@aw@@@impl@hk@csgo@aw@@QAEXAAULayerWeight@2345@@Z 10083320 f i csgo-hk-x86:recvproxy.obj
 0001:00082340       ?ProxyCallback@?$RecvProxyHook@ULayerWeightDeltaRate@impl@hk@csgo@aw@@@impl@hk@csgo@aw@@QAEXAAULayerWeightDeltaRate@2345@@Z 10083340 f i csgo-hk-x86:recvproxy.obj
 0001:00082360       ?ProxyCallback@?$RecvProxyHook@ULowerBodyYawTarget@hk@csgo@aw@@@impl@hk@csgo@aw@@QAEXAAULowerBodyYawTarget@345@@Z 10083360 f i csgo-hk-x86:recvproxy.obj
 0001:00082380       ?ProxyCallback@?$RecvProxyHook@USmokeEffectTickBegin@hk@csgo@aw@@@impl@hk@csgo@aw@@QAEXAAUSmokeEffectTickBegin@345@@Z 10083380 f i csgo-hk-x86:recvproxy.obj
 0001:000823a0       ?ProxyCallback@?$RecvProxyHook@UTickBase@hk@csgo@aw@@@impl@hk@csgo@aw@@QAEXAAUTickBase@345@@Z 100833a0 f i csgo-hk-x86:recvproxy.obj
 0001:000823c0       ?RunCallbacks@?$RecvProxyHook@UBaseViewModelSequence@hk@csgo@aw@@@impl@hk@csgo@aw@@SAXPAVRecvProxyData@sdk@45@PAX1@Z 100833c0 f i csgo-hk-x86:recvproxy.obj
 0001:00082400       ?RunCallbacks@?$RecvProxyHook@UFlashDuration@hk@csgo@aw@@@impl@hk@csgo@aw@@SAXPAVRecvProxyData@sdk@45@PAX1@Z 10083400 f i csgo-hk-x86:recvproxy.obj
 0001:00082440       ?RunCallbacks@?$RecvProxyHook@UGroundAccelLinearFracLastTime@hk@csgo@aw@@@impl@hk@csgo@aw@@SAXPAVRecvProxyData@sdk@45@PAX1@Z 10083440 f i csgo-hk-x86:recvproxy.obj
 0001:00082480       ?RunCallbacks@?$RecvProxyHook@ULayerCycle@impl@hk@csgo@aw@@@impl@hk@csgo@aw@@SAXPAVRecvProxyData@sdk@45@PAX1@Z 10083480 f i csgo-hk-x86:recvproxy.obj
 0001:000824c0       ?RunCallbacks@?$RecvProxyHook@ULayerOrder@impl@hk@csgo@aw@@@impl@hk@csgo@aw@@SAXPAVRecvProxyData@sdk@45@PAX1@Z 100834c0 f i csgo-hk-x86:recvproxy.obj
 0001:00082500       ?RunCallbacks@?$RecvProxyHook@ULayerPlaybackRate@impl@hk@csgo@aw@@@impl@hk@csgo@aw@@SAXPAVRecvProxyData@sdk@45@PAX1@Z 10083500 f i csgo-hk-x86:recvproxy.obj
 0001:00082540       ?RunCallbacks@?$RecvProxyHook@ULayerPrevCycle@impl@hk@csgo@aw@@@impl@hk@csgo@aw@@SAXPAVRecvProxyData@sdk@45@PAX1@Z 10083540 f i csgo-hk-x86:recvproxy.obj
 0001:00082580       ?RunCallbacks@?$RecvProxyHook@ULayerSequence@impl@hk@csgo@aw@@@impl@hk@csgo@aw@@SAXPAVRecvProxyData@sdk@45@PAX1@Z 10083580 f i csgo-hk-x86:recvproxy.obj
 0001:000825c0       ?RunCallbacks@?$RecvProxyHook@ULayerWeight@impl@hk@csgo@aw@@@impl@hk@csgo@aw@@SAXPAVRecvProxyData@sdk@45@PAX1@Z 100835c0 f i csgo-hk-x86:recvproxy.obj
 0001:00082600       ?RunCallbacks@?$RecvProxyHook@ULayerWeightDeltaRate@impl@hk@csgo@aw@@@impl@hk@csgo@aw@@SAXPAVRecvProxyData@sdk@45@PAX1@Z 10083600 f i csgo-hk-x86:recvproxy.obj
 0001:00082640       ?RunCallbacks@?$RecvProxyHook@ULowerBodyYawTarget@hk@csgo@aw@@@impl@hk@csgo@aw@@SAXPAVRecvProxyData@sdk@45@PAX1@Z 10083640 f i csgo-hk-x86:recvproxy.obj
 0001:00082680       ?RunCallbacks@?$RecvProxyHook@USmokeEffectTickBegin@hk@csgo@aw@@@impl@hk@csgo@aw@@SAXPAVRecvProxyData@sdk@45@PAX1@Z 10083680 f i csgo-hk-x86:recvproxy.obj
 0001:000826c0       ?RunCallbacks@?$RecvProxyHook@UTickBase@hk@csgo@aw@@@impl@hk@csgo@aw@@SAXPAVRecvProxyData@sdk@45@PAX1@Z 100836c0 f i csgo-hk-x86:recvproxy.obj
 0001:00082700       ??_E?$ModuleBaseImpl@VGameMovement@hk@csgo@aw@@V?$TypedObject@VGameMovement@hk@csgo@aw@@VModuleBase@4@@4@@aw@@UAEPAXI@Z 10083700 f i csgo-hk-x86:gamemovement.obj
 0001:00082700       ??_G?$ModuleBaseImpl@VGameMovement@hk@csgo@aw@@V?$TypedObject@VGameMovement@hk@csgo@aw@@VModuleBase@4@@4@@aw@@UAEPAXI@Z 10083700 f i csgo-hk-x86:gamemovement.obj
 0001:00082730       ??_EGameMovement@impl@hk@csgo@aw@@UAEPAXI@Z 10083730 f i csgo-hk-x86:gamemovement.obj
 0001:00082730       ??_GGameMovement@impl@hk@csgo@aw@@UAEPAXI@Z 10083730 f i csgo-hk-x86:gamemovement.obj
 0001:00082760       ??_EPlayerHeadCollisionUnknown@hk@csgo@aw@@UAEPAXI@Z 10083760 f i csgo-hk-x86:gamemovement.obj
 0001:00082760       ??_GPlayerHeadCollisionUnknown@hk@csgo@aw@@UAEPAXI@Z 10083760 f i csgo-hk-x86:gamemovement.obj
 0001:00082790       ??_EPlayerMove@hk@csgo@aw@@UAEPAXI@Z 10083790 f i csgo-hk-x86:gamemovement.obj
 0001:00082790       ??_GPlayerMove@hk@csgo@aw@@UAEPAXI@Z 10083790 f i csgo-hk-x86:gamemovement.obj
 0001:000827c0       ?CreateModule@?$ModuleWithFactory@VGameMovement@hk@csgo@aw@@@aw@@SAPAVGameMovement@hk@csgo@2@XZ 100837c0 f   csgo-hk-x86:gamemovement.obj
 0001:00082920       ?GetId@?$TypedObject@UPlayerHeadCollisionUnknown@hk@csgo@aw@@UCallbackVars@4@@aw@@UAEIXZ 10083920 f i csgo-hk-x86:gamemovement.obj
 0001:00082930       ?GetId@?$TypedObject@UPlayerMove@hk@csgo@aw@@UCallbackVars@4@@aw@@UAEIXZ 10083930 f i csgo-hk-x86:gamemovement.obj
 0001:00082940       ?GetId@?$TypedObject@VGameMovement@hk@csgo@aw@@VModuleBase@4@@aw@@UAEIXZ 10083940 f i csgo-hk-x86:gamemovement.obj
 0001:00082950       ?HkPlayerHeadCollisionUnknown@GameMovement@impl@hk@csgo@aw@@KI_NPAX@Z 10083950 f   csgo-hk-x86:gamemovement.obj
 0001:00082980       ?HkPlayerMove@GameMovement@impl@hk@csgo@aw@@KIXPAX@Z 10083980 f   csgo-hk-x86:gamemovement.obj
 0001:000829a0       ?OnHook@GameMovement@impl@hk@csgo@aw@@IAEXAAUCommonHook@5@@Z 100839a0 f   csgo-hk-x86:gamemovement.obj
 0001:000829e0       ?OnPlayerHeadCollisionUnknown@GameMovement@impl@hk@csgo@aw@@IAEXAAUPlayerHeadCollisionUnknown@345@@Z 100839e0 f   csgo-hk-x86:gamemovement.obj
 0001:00082a00       ?OnPlayerMove@GameMovement@impl@hk@csgo@aw@@IAEXAAUPlayerMove@345@@Z 10083a00 f   csgo-hk-x86:gamemovement.obj
 0001:00082b80       ?OnUnhook@GameMovement@impl@hk@csgo@aw@@IAEXAAUCommonUnhook@5@@Z 10083b80 f   csgo-hk-x86:gamemovement.obj
 0001:00082b90       ??_E?$ModuleBaseImpl@VPanel@hk@csgo@aw@@V?$TypedObject@VPanel@hk@csgo@aw@@VModuleBase@4@@4@@aw@@UAEPAXI@Z 10083b90 f i csgo-hk-x86:panel.obj
 0001:00082b90       ??_G?$ModuleBaseImpl@VPanel@hk@csgo@aw@@V?$TypedObject@VPanel@hk@csgo@aw@@VModuleBase@4@@4@@aw@@UAEPAXI@Z 10083b90 f i csgo-hk-x86:panel.obj
 0001:00082bc0       ??_EPaintTraverse@hk@csgo@aw@@UAEPAXI@Z 10083bc0 f i csgo-hk-x86:panel.obj
 0001:00082bc0       ??_GPaintTraverse@hk@csgo@aw@@UAEPAXI@Z 10083bc0 f i csgo-hk-x86:panel.obj
 0001:00082bf0       ??_EPanel@impl@hk@csgo@aw@@UAEPAXI@Z 10083bf0 f i csgo-hk-x86:panel.obj
 0001:00082bf0       ??_GPanel@impl@hk@csgo@aw@@UAEPAXI@Z 10083bf0 f i csgo-hk-x86:panel.obj
 0001:00082c20       ?CreateModule@?$ModuleWithFactory@VPanel@hk@csgo@aw@@@aw@@SAPAVPanel@hk@csgo@2@XZ 10083c20 f   csgo-hk-x86:panel.obj
 0001:00082d60       ?Get@Panel@sdk@csgo@aw@@SAPAV1234@XZ 10083d60 f i csgo-hk-x86:panel.obj
 0001:00082d70       ?GetId@?$TypedObject@UPaintTraverse@hk@csgo@aw@@UCallbackVars@4@@aw@@UAEIXZ 10083d70 f i csgo-hk-x86:panel.obj
 0001:00082d80       ?GetId@?$TypedObject@VPanel@hk@csgo@aw@@VModuleBase@4@@aw@@UAEIXZ 10083d80 f i csgo-hk-x86:panel.obj
 0001:00082d90       ?HkPaintTraverse@Panel@impl@hk@csgo@aw@@KIXPAV1sdk@45@HH_N1@Z 10083d90 f   csgo-hk-x86:panel.obj
 0001:00082de0       ?OnHook@Panel@impl@hk@csgo@aw@@IAEXAAUCommonHook@5@@Z 10083de0 f   csgo-hk-x86:panel.obj
 0001:00082e10       ?OnPaintTraverse@Panel@impl@hk@csgo@aw@@IAEXAAUPaintTraverse@345@@Z 10083e10 f   csgo-hk-x86:panel.obj
 0001:00082e40       ?OnUnhook@Panel@impl@hk@csgo@aw@@IAEXAAUCommonUnhook@5@@Z 10083e40 f   csgo-hk-x86:panel.obj
 0001:00082e50       ??_E?$ModuleBaseImpl@VGameRules@hk@csgo@aw@@V?$TypedObject@VGameRules@hk@csgo@aw@@VModuleBase@4@@4@@aw@@UAEPAXI@Z 10083e50 f i csgo-hk-x86:gamerules.obj
 0001:00082e50       ??_G?$ModuleBaseImpl@VGameRules@hk@csgo@aw@@V?$TypedObject@VGameRules@hk@csgo@aw@@VModuleBase@4@@4@@aw@@UAEPAXI@Z 10083e50 f i csgo-hk-x86:gamerules.obj
 0001:00082e80       ??_EAllowThirdPersonCamera@hk@csgo@aw@@UAEPAXI@Z 10083e80 f i csgo-hk-x86:gamerules.obj
 0001:00082e80       ??_GAllowThirdPersonCamera@hk@csgo@aw@@UAEPAXI@Z 10083e80 f i csgo-hk-x86:gamerules.obj
 0001:00082eb0       ??_EGameRules@impl@hk@csgo@aw@@UAEPAXI@Z 10083eb0 f i csgo-hk-x86:gamerules.obj
 0001:00082eb0       ??_GGameRules@impl@hk@csgo@aw@@UAEPAXI@Z 10083eb0 f i csgo-hk-x86:gamerules.obj
 0001:00082ee0       ?CreateModule@?$ModuleWithFactory@VGameRules@hk@csgo@aw@@@aw@@SAPAVGameRules@hk@csgo@2@XZ 10083ee0 f   csgo-hk-x86:gamerules.obj
 0001:00083050       ?GetId@?$TypedObject@UAllowThirdPersonCamera@hk@csgo@aw@@UCallbackVars@4@@aw@@UAEIXZ 10084050 f i csgo-hk-x86:gamerules.obj
 0001:00083060       ?GetId@?$TypedObject@VGameRules@hk@csgo@aw@@VModuleBase@4@@aw@@UAEIXZ 10084060 f i csgo-hk-x86:gamerules.obj
 0001:00083070       ?HkAllowThirdPersonCamera@GameRules@impl@hk@csgo@aw@@KI_NPAVCSGameRules@sdk@45@H@Z 10084070 f   csgo-hk-x86:gamerules.obj
 0001:000830a0       ?OnAllowThirdPersonCamera@GameRules@impl@hk@csgo@aw@@IAEXAAUAllowThirdPersonCamera@345@@Z 100840a0 f   csgo-hk-x86:gamerules.obj
 0001:000830c0       ?OnFrameEnd@GameRules@impl@hk@csgo@aw@@IAEXAAUFrameEnd@345@@Z 100840c0 f   csgo-hk-x86:gamerules.obj
 0001:00083110       ?OnHook@GameRules@impl@hk@csgo@aw@@IAEXAAUCommonHook@5@@Z 10084110 f   csgo-hk-x86:gamerules.obj
 0001:00083120       ?OnUnhook@GameRules@impl@hk@csgo@aw@@IAEXAAUCommonUnhook@5@@Z 10084120 f   csgo-hk-x86:gamerules.obj
 0001:00083130       ??_E?$ModuleBaseImpl@VSpatialQuery@hk@csgo@aw@@V?$TypedObject@VSpatialQuery@hk@csgo@aw@@VModuleBase@4@@4@@aw@@UAEPAXI@Z 10084130 f i csgo-hk-x86:spatialquery.obj
 0001:00083130       ??_G?$ModuleBaseImpl@VSpatialQuery@hk@csgo@aw@@V?$TypedObject@VSpatialQuery@hk@csgo@aw@@VModuleBase@4@@4@@aw@@UAEPAXI@Z 10084130 f i csgo-hk-x86:spatialquery.obj
 0001:00083160       ??_EListLeavesInBox@hk@csgo@aw@@UAEPAXI@Z 10084160 f i csgo-hk-x86:spatialquery.obj
 0001:00083160       ??_GListLeavesInBox@hk@csgo@aw@@UAEPAXI@Z 10084160 f i csgo-hk-x86:spatialquery.obj
 0001:00083190       ??_ESpatialQuery@impl@hk@csgo@aw@@UAEPAXI@Z 10084190 f i csgo-hk-x86:spatialquery.obj
 0001:00083190       ??_GSpatialQuery@impl@hk@csgo@aw@@UAEPAXI@Z 10084190 f i csgo-hk-x86:spatialquery.obj
 0001:000831c0       ?CreateModule@?$ModuleWithFactory@VSpatialQuery@hk@csgo@aw@@@aw@@SAPAVSpatialQuery@hk@csgo@2@XZ 100841c0 f   csgo-hk-x86:spatialquery.obj
 0001:00083300       ?GetId@?$TypedObject@UListLeavesInBox@hk@csgo@aw@@UCallbackVars@4@@aw@@UAEIXZ 10084300 f i csgo-hk-x86:spatialquery.obj
 0001:00083310       ?GetId@?$TypedObject@VSpatialQuery@hk@csgo@aw@@VModuleBase@4@@aw@@UAEIXZ 10084310 f i csgo-hk-x86:spatialquery.obj
 0001:00083320       ?HkListLeavesInBox@SpatialQuery@impl@hk@csgo@aw@@KIHPAXHABVVector3@5@1PAGHPAURenderableInfo@sdk@45@@Z 10084320 f   csgo-hk-x86:spatialquery.obj
 0001:000833a0       ?HkListLeavesInBoxGate@SpatialQuery@impl@hk@csgo@aw@@KAHXZ 100843a0 f   csgo-hk-x86:spatialquery.obj
 0001:000833c0       ?OnListLeavesInBox@SpatialQuery@impl@hk@csgo@aw@@IAEXAAUListLeavesInBox@345@@Z 100843c0 f   csgo-hk-x86:spatialquery.obj
 0001:000833f0       ?OnUnhook@SpatialQuery@impl@hk@csgo@aw@@IAEXAAUCommonUnhook@5@@Z 100843f0 f   csgo-hk-x86:spatialquery.obj
 0001:00083400       ??_E?$ModuleBaseImpl@VSpatialPartition@hk@csgo@aw@@V?$TypedObject@VSpatialPartition@hk@csgo@aw@@VModuleBase@4@@4@@aw@@UAEPAXI@Z 10084400 f i csgo-hk-x86:spatialpartition.obj
 0001:00083400       ??_G?$ModuleBaseImpl@VSpatialPartition@hk@csgo@aw@@V?$TypedObject@VSpatialPartition@hk@csgo@aw@@VModuleBase@4@@4@@aw@@UAEPAXI@Z 10084400 f i csgo-hk-x86:spatialpartition.obj
 0001:00083430       ??_ESpatialPartition@impl@hk@csgo@aw@@UAEPAXI@Z 10084430 f i csgo-hk-x86:spatialpartition.obj
 0001:00083430       ??_GSpatialPartition@impl@hk@csgo@aw@@UAEPAXI@Z 10084430 f i csgo-hk-x86:spatialpartition.obj
 0001:00083460       ??_ESuppressLists@hk@csgo@aw@@UAEPAXI@Z 10084460 f i csgo-hk-x86:spatialpartition.obj
 0001:00083460       ??_GSuppressLists@hk@csgo@aw@@UAEPAXI@Z 10084460 f i csgo-hk-x86:spatialpartition.obj
 0001:00083490       ??_ESuppressLists_NetUpdateEnd@hk@csgo@aw@@UAEPAXI@Z 10084490 f i csgo-hk-x86:spatialpartition.obj
 0001:00083490       ??_GSuppressLists_NetUpdateEnd@hk@csgo@aw@@UAEPAXI@Z 10084490 f i csgo-hk-x86:spatialpartition.obj
 0001:000834c0       ?CreateModule@?$ModuleWithFactory@VSpatialPartition@hk@csgo@aw@@@aw@@SAPAVSpatialPartition@hk@csgo@2@XZ 100844c0 f   csgo-hk-x86:spatialpartition.obj
 0001:00083600       ?Get@SpatialPartition@sdk@csgo@aw@@SAPAV1234@XZ 10084600 f i csgo-hk-x86:spatialpartition.obj
 0001:00083610       ?GetDynamic@SpatialPartition@sdk@csgo@aw@@SAPAV1234@XZ 10084610 f i csgo-hk-x86:spatialpartition.obj
 0001:00083630       ?GetId@?$TypedObject@USuppressLists@hk@csgo@aw@@UCallbackVars@4@@aw@@UAEIXZ 10084630 f i csgo-hk-x86:spatialpartition.obj
 0001:00083640       ?GetId@?$TypedObject@USuppressLists_NetUpdateEnd@hk@csgo@aw@@UCallbackVars@4@@aw@@UAEIXZ 10084640 f i csgo-hk-x86:spatialpartition.obj
 0001:00083650       ?GetId@?$TypedObject@VSpatialPartition@hk@csgo@aw@@VModuleBase@4@@aw@@UAEIXZ 10084650 f i csgo-hk-x86:spatialpartition.obj
 0001:00083660       ?HkSuppressLists@SpatialPartition@impl@hk@csgo@aw@@KIXPAV1sdk@45@HH_N@Z 10084660 f   csgo-hk-x86:spatialpartition.obj
 0001:000836c0       ?OnHook@SpatialPartition@impl@hk@csgo@aw@@IAEXAAUCommonHook@5@@Z 100846c0 f   csgo-hk-x86:spatialpartition.obj
 0001:000837b0       ?OnSuppressLists@SpatialPartition@impl@hk@csgo@aw@@IAEXAAUSuppressLists@345@@Z 100847b0 f   csgo-hk-x86:spatialpartition.obj
 0001:000837d0       ?OnUnhook@SpatialPartition@impl@hk@csgo@aw@@IAEXAAUCommonUnhook@5@@Z 100847d0 f   csgo-hk-x86:spatialpartition.obj
 0001:000837e0       ??_E?$ModuleBaseImpl@VDemoPlayer@hk@csgo@aw@@V?$TypedObject@VDemoPlayer@hk@csgo@aw@@VModuleBase@4@@4@@aw@@UAEPAXI@Z 100847e0 f i csgo-hk-x86:demoplayer.obj
 0001:000837e0       ??_G?$ModuleBaseImpl@VDemoPlayer@hk@csgo@aw@@V?$TypedObject@VDemoPlayer@hk@csgo@aw@@VModuleBase@4@@4@@aw@@UAEPAXI@Z 100847e0 f i csgo-hk-x86:demoplayer.obj
 0001:00083810       ??_EDemoPlayer@impl@hk@csgo@aw@@UAEPAXI@Z 10084810 f i csgo-hk-x86:demoplayer.obj
 0001:00083810       ??_GDemoPlayer@impl@hk@csgo@aw@@UAEPAXI@Z 10084810 f i csgo-hk-x86:demoplayer.obj
 0001:00083840       ??_EGetDemoPlaybackParameters@hk@csgo@aw@@UAEPAXI@Z 10084840 f i csgo-hk-x86:demoplayer.obj
 0001:00083840       ??_GGetDemoPlaybackParameters@hk@csgo@aw@@UAEPAXI@Z 10084840 f i csgo-hk-x86:demoplayer.obj
 0001:00083870       ??_EReadPacket@hk@csgo@aw@@UAEPAXI@Z 10084870 f i csgo-hk-x86:demoplayer.obj
 0001:00083870       ??_GReadPacket@hk@csgo@aw@@UAEPAXI@Z 10084870 f i csgo-hk-x86:demoplayer.obj
 0001:000838a0       ?CreateModule@?$ModuleWithFactory@VDemoPlayer@hk@csgo@aw@@@aw@@SAPAVDemoPlayer@hk@csgo@2@XZ 100848a0 f   csgo-hk-x86:demoplayer.obj
 0001:00083a00       ?GetId@?$TypedObject@UGetDemoPlaybackParameters@hk@csgo@aw@@UCallbackVars@4@@aw@@UAEIXZ 10084a00 f i csgo-hk-x86:demoplayer.obj
 0001:00083a10       ?GetId@?$TypedObject@UReadPacket@hk@csgo@aw@@UCallbackVars@4@@aw@@UAEIXZ 10084a10 f i csgo-hk-x86:demoplayer.obj
 0001:00083a20       ?GetId@?$TypedObject@VDemoPlayer@hk@csgo@aw@@VModuleBase@4@@aw@@UAEIXZ 10084a20 f i csgo-hk-x86:demoplayer.obj
 0001:00083a30       ?HkGetDemoPlaybackParameters@DemoPlayer@impl@hk@csgo@aw@@KIPAUDemoPlaybackParameters@sdk@45@PAV1745@H@Z 10084a30 f   csgo-hk-x86:demoplayer.obj
 0001:00083a60       ?HkReadPacket@DemoPlayer@impl@hk@csgo@aw@@KIPAXPAV1sdk@45@H@Z 10084a60 f   csgo-hk-x86:demoplayer.obj
 0001:00083a90       ?OnGetDemoPlaybackParameters@DemoPlayer@impl@hk@csgo@aw@@IAEXAAUGetDemoPlaybackParameters@345@@Z 10084a90 f   csgo-hk-x86:demoplayer.obj
 0001:00083ab0       ?OnHook@DemoPlayer@impl@hk@csgo@aw@@IAEXAAUCommonHook@5@@Z 10084ab0 f   csgo-hk-x86:demoplayer.obj
 0001:00083b00       ?OnReadPacket@DemoPlayer@impl@hk@csgo@aw@@IAEXAAUReadPacket@345@@Z 10084b00 f   csgo-hk-x86:demoplayer.obj
 0001:00083b20       ?OnUnhook@DemoPlayer@impl@hk@csgo@aw@@IAEXAAUCommonUnhook@5@@Z 10084b20 f   csgo-hk-x86:demoplayer.obj
 0001:00083b30       ??_E?$ModuleBaseImpl@VSteamGameCoordinator@hk@csgo@aw@@V?$TypedObject@VSteamGameCoordinator@hk@csgo@aw@@VModuleBase@4@@4@@aw@@UAEPAXI@Z 10084b30 f i csgo-hk-x86:steamgc.obj
 0001:00083b30       ??_G?$ModuleBaseImpl@VSteamGameCoordinator@hk@csgo@aw@@V?$TypedObject@VSteamGameCoordinator@hk@csgo@aw@@VModuleBase@4@@4@@aw@@UAEPAXI@Z 10084b30 f i csgo-hk-x86:steamgc.obj
 0001:00083b60       ??_ESendGCMsg@hk@csgo@aw@@UAEPAXI@Z 10084b60 f i csgo-hk-x86:steamgc.obj
 0001:00083b60       ??_GSendGCMsg@hk@csgo@aw@@UAEPAXI@Z 10084b60 f i csgo-hk-x86:steamgc.obj
 0001:00083b90       ??_ESteamGameCoordinator@impl@hk@csgo@aw@@UAEPAXI@Z 10084b90 f i csgo-hk-x86:steamgc.obj
 0001:00083b90       ??_GSteamGameCoordinator@impl@hk@csgo@aw@@UAEPAXI@Z 10084b90 f i csgo-hk-x86:steamgc.obj
 0001:00083bc0       ?CreateModule@?$ModuleWithFactory@VSteamGameCoordinator@hk@csgo@aw@@@aw@@SAPAVSteamGameCoordinator@hk@csgo@2@XZ 10084bc0 f   csgo-hk-x86:steamgc.obj
 0001:00083d00       ?GetId@?$TypedObject@USendGCMsg@hk@csgo@aw@@UCallbackVars@4@@aw@@UAEIXZ 10084d00 f i csgo-hk-x86:steamgc.obj
 0001:00083d10       ?GetId@?$TypedObject@VSteamGameCoordinator@hk@csgo@aw@@VModuleBase@4@@aw@@UAEIXZ 10084d10 f i csgo-hk-x86:steamgc.obj
 0001:00083d20       ?HkSendMessage@SteamGameCoordinator@impl@hk@csgo@aw@@SI?AW4EGCResults@sdk@45@PAXHIPBXI@Z 10084d20 f   csgo-hk-x86:steamgc.obj
 0001:00083d70       ?OnFrame@SteamGameCoordinator@impl@hk@csgo@aw@@QAEXAAURenderFrame@gfx@5@@Z 10084d70 f   csgo-hk-x86:steamgc.obj
 0001:00083f40       ?OnSendMessage@SteamGameCoordinator@impl@hk@csgo@aw@@QAEXAAUSendGCMsg@345@@Z 10084f40 f   csgo-hk-x86:steamgc.obj
 0001:00083f70       ?OnUnhook@SteamGameCoordinator@impl@hk@csgo@aw@@QAEXAAUCommonUnhook@5@@Z 10084f70 f   csgo-hk-x86:steamgc.obj
 0001:00083f80       ??_E?$ModuleBaseImpl@VSteamSocketMgr@hk@csgo@aw@@V?$TypedObject@VSteamSocketMgr@hk@csgo@aw@@VModuleBase@4@@4@@aw@@UAEPAXI@Z 10084f80 f i csgo-hk-x86:steamsocketmgr.obj
 0001:00083f80       ??_G?$ModuleBaseImpl@VSteamSocketMgr@hk@csgo@aw@@V?$TypedObject@VSteamSocketMgr@hk@csgo@aw@@VModuleBase@4@@4@@aw@@UAEPAXI@Z 10084f80 f i csgo-hk-x86:steamsocketmgr.obj
 0001:00083fb0       ??_ESteamSocketMgr@impl@hk@csgo@aw@@UAEPAXI@Z 10084fb0 f i csgo-hk-x86:steamsocketmgr.obj
 0001:00083fb0       ??_GSteamSocketMgr@impl@hk@csgo@aw@@UAEPAXI@Z 10084fb0 f i csgo-hk-x86:steamsocketmgr.obj
 0001:00083fe0       ?CreateModule@?$ModuleWithFactory@VSteamSocketMgr@hk@csgo@aw@@@aw@@SAPAVSteamSocketMgr@hk@csgo@2@XZ 10084fe0 f   csgo-hk-x86:steamsocketmgr.obj
 0001:00084140       ?GetId@?$TypedObject@VSteamSocketMgr@hk@csgo@aw@@VModuleBase@4@@aw@@UAEIXZ 10085140 f i csgo-hk-x86:steamsocketmgr.obj
 0001:00084150       ?OnHook@SteamSocketMgr@impl@hk@csgo@aw@@IAEXAAUCommonHook@5@@Z 10085150 f   csgo-hk-x86:steamsocketmgr.obj
 0001:00084160       ?OnNetRecvFrom@SteamSocketMgr@impl@hk@csgo@aw@@IAEXAAUNetRecvFrom@345@@Z 10085160 f   csgo-hk-x86:steamsocketmgr.obj
 0001:00084190       ?OnNetSendTo@SteamSocketMgr@impl@hk@csgo@aw@@IAEXAAUNetSendTo@345@@Z 10085190 f   csgo-hk-x86:steamsocketmgr.obj
 0001:000841c0       ?OnUnhook@SteamSocketMgr@impl@hk@csgo@aw@@IAEXAAUCommonUnhook@5@@Z 100851c0 f   csgo-hk-x86:steamsocketmgr.obj
 0001:000841d0       ??_E?$ModuleBaseImpl@VEngine@hk@csgo@aw@@V?$TypedObject@VEngine@hk@csgo@aw@@VModuleBase@4@@4@@aw@@UAEPAXI@Z 100851d0 f i csgo-hk-x86:engine.obj
 0001:000841d0       ??_G?$ModuleBaseImpl@VEngine@hk@csgo@aw@@V?$TypedObject@VEngine@hk@csgo@aw@@VModuleBase@4@@4@@aw@@UAEPAXI@Z 100851d0 f i csgo-hk-x86:engine.obj
 0001:00084200       ??_EEngine@impl@hk@csgo@aw@@UAEPAXI@Z 10085200 f i csgo-hk-x86:engine.obj
 0001:00084200       ??_GEngine@impl@hk@csgo@aw@@UAEPAXI@Z 10085200 f i csgo-hk-x86:engine.obj
 0001:00084230       ??_EEngineFrame@hk@csgo@aw@@UAEPAXI@Z 10085230 f i csgo-hk-x86:engine.obj
 0001:00084230       ??_GEngineFrame@hk@csgo@aw@@UAEPAXI@Z 10085230 f i csgo-hk-x86:engine.obj
 0001:00084260       ?CreateModule@?$ModuleWithFactory@VEngine@hk@csgo@aw@@@aw@@SAPAVEngine@hk@csgo@2@XZ 10085260 f   csgo-hk-x86:engine.obj
 0001:000843a0       ?GetId@?$TypedObject@UEngineFrame@hk@csgo@aw@@UCallbackVars@4@@aw@@UAEIXZ 100853a0 f i csgo-hk-x86:engine.obj
 0001:000843b0       ?GetId@?$TypedObject@VEngine@hk@csgo@aw@@VModuleBase@4@@aw@@UAEIXZ 100853b0 f i csgo-hk-x86:engine.obj
 0001:000843c0       ?HkEngineFrame@Engine@impl@hk@csgo@aw@@KIXPAV1sdk@45@H@Z 100853c0 f   csgo-hk-x86:engine.obj
 0001:000843f0       ?OnEngineFrame@Engine@impl@hk@csgo@aw@@IAEXAAUEngineFrame@345@@Z 100853f0 f   csgo-hk-x86:engine.obj
 0001:00084410       ?OnHook@Engine@impl@hk@csgo@aw@@IAEXAAUCommonHook@5@@Z 10085410 f   csgo-hk-x86:engine.obj
 0001:00084440       ?OnUnhook@Engine@impl@hk@csgo@aw@@IAEXAAUCommonUnhook@5@@Z 10085440 f   csgo-hk-x86:engine.obj
 0001:00084450       ??$BindThunk@$1?FindByClass@LibEntities@lua@csgo@aw@@IAEXAAVState@35@@Z@?$Library@VLibEntities@lua@csgo@aw@@@lua@aw@@SAHPAUlua_State@@@Z 10085450 f i csgo-lua-x86:lib_entities.obj
 0001:00084490       ??$BindThunk@$1?GetByIndex@LibEntities@lua@csgo@aw@@IAEXAAVState@35@@Z@?$Library@VLibEntities@lua@csgo@aw@@@lua@aw@@SAHPAUlua_State@@@Z 10085490 f i csgo-lua-x86:lib_entities.obj
 0001:00084520       ??$BindThunk@$1?GetByUserID@LibEntities@lua@csgo@aw@@IAEXAAVState@35@@Z@?$Library@VLibEntities@lua@csgo@aw@@@lua@aw@@SAHPAUlua_State@@@Z 10085520 f i csgo-lua-x86:lib_entities.obj
 0001:00084560       ??$BindThunk@$1?GetGameRules@LibEntities@lua@csgo@aw@@IAEXAAVState@35@@Z@?$Library@VLibEntities@lua@csgo@aw@@@lua@aw@@SAHPAUlua_State@@@Z 10085560 f i csgo-lua-x86:lib_entities.obj
 0001:00084600       ??$BindThunk@$1?GetLocalPlayer@LibEntities@lua@csgo@aw@@IAEXAAVState@35@@Z@?$Library@VLibEntities@lua@csgo@aw@@@lua@aw@@SAHPAUlua_State@@@Z 10085600 f i csgo-lua-x86:lib_entities.obj
 0001:00084650       ??$BindThunk@$1?GetPlayerResources@LibEntities@lua@csgo@aw@@IAEXAAVState@35@@Z@?$Library@VLibEntities@lua@csgo@aw@@@lua@aw@@SAHPAUlua_State@@@Z 10085650 f i csgo-lua-x86:lib_entities.obj
 0001:000846a0       ??$Get@H@State@lua@aw@@QAEHH@Z 100856a0 f i csgo-lua-x86:lib_entities.obj
 0001:000846d0       ??$Get@V?$basic_string@DU?$char_traits@D@std@@V?$allocator@D@2@@std@@@State@lua@aw@@QAE?AV?$basic_string@DU?$char_traits@D@std@@V?$allocator@D@2@@std@@H@Z 100856d0 f i csgo-lua-x86:lib_entities.obj
 0001:00084740       ??$_Emplace_reallocate@ABQAVBaseEntity@sdk@csgo@aw@@@?$vector@PAVBaseEntity@sdk@csgo@aw@@V?$allocator@PAVBaseEntity@sdk@csgo@aw@@@std@@@std@@AAEPAPAVBaseEntity@sdk@csgo@aw@@QAPAV2345@ABQAV2345@@Z 10085740 f i csgo-lua-x86:lib_entities.obj
 0001:00084880       ?FindByClass@LibEntities@lua@csgo@aw@@IAEXAAVState@24@@Z 10085880 f   csgo-lua-x86:lib_entities.obj
 0001:00084a80       ?GetByUserID@LibEntities@lua@csgo@aw@@IAEXAAVState@24@@Z 10085a80 f   csgo-lua-x86:lib_entities.obj
 0001:00084b00       ?Init@LibEntities@lua@csgo@aw@@UAEXPAVContext@24@@Z 10085b00 f   csgo-lua-x86:lib_entities.obj
 0001:00085070       ?Push@?$Stack@VBaseHandle@sdk@csgo@aw@@X@lua@aw@@QAEXAAVState@23@PAVBaseHandle@sdk@csgo@3@@Z 10086070 f i csgo-lua-x86:lib_entities.obj
 0001:000850e0       ??$BindThunk@$1?GetUserID@LibCheat@lua@csgo@aw@@IAEXAAVState@35@@Z@?$Library@VLibCheat@lua@csgo@aw@@@lua@aw@@SAHPAUlua_State@@@Z 100860e0 f i csgo-lua-x86:lib_cheat.obj
 0001:00085140       ??$BindThunk@$1?GetUserName@LibCheat@lua@csgo@aw@@IAEXAAVState@35@@Z@?$Library@VLibCheat@lua@csgo@aw@@@lua@aw@@SAHPAUlua_State@@@Z 10086140 f i csgo-lua-x86:lib_cheat.obj
 0001:00085180       ??$BindThunk@$1?IsFakeDucking@LibCheat@lua@csgo@aw@@IAEXAAVState@35@@Z@?$Library@VLibCheat@lua@csgo@aw@@@lua@aw@@SAHPAUlua_State@@@Z 10086180 f i csgo-lua-x86:lib_cheat.obj
 0001:000851e0       ??$BindThunk@$1?RequestSpeedBurst@LibCheat@lua@csgo@aw@@IAEXAAVState@35@@Z@?$Library@VLibCheat@lua@csgo@aw@@@lua@aw@@SAHPAUlua_State@@@Z 100861e0 f i csgo-lua-x86:lib_cheat.obj
 0001:00085220       ??$Push@I@State@lua@aw@@QAEXABI@Z 10086220 f i csgo-lua-x86:lib_cheat.obj
 0001:00085250       ?GetUserName@LibCheat@lua@csgo@aw@@IAEXAAVState@24@@Z 10086250 f   csgo-lua-x86:lib_cheat.obj
 0001:00085440       ?Init@LibCheat@lua@csgo@aw@@UAEXPAVContext@24@@Z 10086440 f   csgo-lua-x86:lib_cheat.obj
 0001:00085830       ??$BindThunk@$1?AbsoluteFrameTime@LibGlobalVars@lua@csgo@aw@@IAEXAAVState@35@@Z@?$Library@VLibGlobalVars@lua@csgo@aw@@@lua@aw@@SAHPAUlua_State@@@Z 10086830 f i csgo-lua-x86:lib_globals.obj
 0001:000858a0       ??$BindThunk@$1?CurTime@LibGlobalVars@lua@csgo@aw@@IAEXAAVState@35@@Z@?$Library@VLibGlobalVars@lua@csgo@aw@@@lua@aw@@SAHPAUlua_State@@@Z 100868a0 f i csgo-lua-x86:lib_globals.obj
 0001:00085910       ??$BindThunk@$1?FrameCount@LibGlobalVars@lua@csgo@aw@@IAEXAAVState@35@@Z@?$Library@VLibGlobalVars@lua@csgo@aw@@@lua@aw@@SAHPAUlua_State@@@Z 10086910 f i csgo-lua-x86:lib_globals.obj
 0001:00085960       ??$BindThunk@$1?FrameTime@LibGlobalVars@lua@csgo@aw@@IAEXAAVState@35@@Z@?$Library@VLibGlobalVars@lua@csgo@aw@@@lua@aw@@SAHPAUlua_State@@@Z 10086960 f i csgo-lua-x86:lib_globals.obj
 0001:000859d0       ??$BindThunk@$1?MaxClients@LibGlobalVars@lua@csgo@aw@@IAEXAAVState@35@@Z@?$Library@VLibGlobalVars@lua@csgo@aw@@@lua@aw@@SAHPAUlua_State@@@Z 100869d0 f i csgo-lua-x86:lib_globals.obj
 0001:00085a20       ??$BindThunk@$1?RealTime@LibGlobalVars@lua@csgo@aw@@IAEXAAVState@35@@Z@?$Library@VLibGlobalVars@lua@csgo@aw@@@lua@aw@@SAHPAUlua_State@@@Z 10086a20 f i csgo-lua-x86:lib_globals.obj
 0001:00085a90       ??$BindThunk@$1?TickCount@LibGlobalVars@lua@csgo@aw@@IAEXAAVState@35@@Z@?$Library@VLibGlobalVars@lua@csgo@aw@@@lua@aw@@SAHPAUlua_State@@@Z 10086a90 f i csgo-lua-x86:lib_globals.obj
 0001:00085ae0       ??$BindThunk@$1?TickInterval@LibGlobalVars@lua@csgo@aw@@IAEXAAVState@35@@Z@?$Library@VLibGlobalVars@lua@csgo@aw@@@lua@aw@@SAHPAUlua_State@@@Z 10086ae0 f i csgo-lua-x86:lib_globals.obj
 0001:00085b50       ??$Push@H@State@lua@aw@@QAEXABH@Z 10086b50 f i csgo-lua-x86:lib_globals.obj
 0001:00085b80       ??$Push@M@State@lua@aw@@QAEXABM@Z 10086b80 f i csgo-lua-x86:lib_globals.obj
 0001:00085bc0       ?Init@LibGlobalVars@lua@csgo@aw@@UAEXPAVContext@24@@Z 10086bc0 f   csgo-lua-x86:lib_globals.obj
 0001:00086280       ??$Get@_N@State@lua@aw@@QAE_NH@Z 10087280 f i csgo-lua-x86:cls_playerinfo.obj
 0001:000862e0       ??$GetProperty@$MPQLuaPlayerInfo@lua@csgo@aw@@H0A@@?$Class@VClsPlayerInfo@lua@csgo@aw@@ULuaPlayerInfo@234@$0A@@lua@aw@@SAXPAXAAVState@12@@Z 100872e0 f i csgo-lua-x86:cls_playerinfo.obj
 0001:00086310       ??$GetProperty@$MPQLuaPlayerInfo@lua@csgo@aw@@H0BM@@?$Class@VClsPlayerInfo@lua@csgo@aw@@ULuaPlayerInfo@234@$0A@@lua@aw@@SAXPAXAAVState@12@@Z 10087310 f i csgo-lua-x86:cls_playerinfo.obj
 0001:00086340       ??$GetProperty@$MPQLuaPlayerInfo@lua@csgo@aw@@H0DI@@?$Class@VClsPlayerInfo@lua@csgo@aw@@ULuaPlayerInfo@234@$0A@@lua@aw@@SAXPAXAAVState@12@@Z 10087340 f i csgo-lua-x86:cls_playerinfo.obj
 0001:00086370       ??$GetProperty@$MPQLuaPlayerInfo@lua@csgo@aw@@V?$basic_string@DU?$char_traits@D@std@@V?$allocator@D@2@@std@@03@?$Class@VClsPlayerInfo@lua@csgo@aw@@ULuaPlayerInfo@234@$0A@@lua@aw@@SAXPAXAAVState@12@@Z 10087370 f i csgo-lua-x86:cls_playerinfo.obj
 0001:000863b0       ??$GetProperty@$MPQLuaPlayerInfo@lua@csgo@aw@@V?$basic_string@DU?$char_traits@D@std@@V?$allocator@D@2@@std@@0CA@@?$Class@VClsPlayerInfo@lua@csgo@aw@@ULuaPlayerInfo@234@$0A@@lua@aw@@SAXPAXAAVState@12@@Z 100873b0 f i csgo-lua-x86:cls_playerinfo.obj
 0001:000863f0       ??$GetProperty@$MPQLuaPlayerInfo@lua@csgo@aw@@V?$basic_string@DU?$char_traits@D@std@@V?$allocator@D@2@@std@@0DM@@?$Class@VClsPlayerInfo@lua@csgo@aw@@ULuaPlayerInfo@234@$0A@@lua@aw@@SAXPAXAAVState@12@@Z 100873f0 f i csgo-lua-x86:cls_playerinfo.obj
 0001:00086430       ??$GetProperty@$MPQLuaPlayerInfo@lua@csgo@aw@@_N0FE@@?$Class@VClsPlayerInfo@lua@csgo@aw@@ULuaPlayerInfo@234@$0A@@lua@aw@@SAXPAXAAVState@12@@Z 10087430 f i csgo-lua-x86:cls_playerinfo.obj
 0001:00086460       ??$GetProperty@$MPQLuaPlayerInfo@lua@csgo@aw@@_N0FF@@?$Class@VClsPlayerInfo@lua@csgo@aw@@ULuaPlayerInfo@234@$0A@@lua@aw@@SAXPAXAAVState@12@@Z 10087460 f i csgo-lua-x86:cls_playerinfo.obj
 0001:00086490       ??$Method@VClsPlayerInfo@lua@csgo@aw@@$1?__gc@1234@QAEXPAULuaPlayerInfo@234@AAVState@24@@Z@?$Class@VClsPlayerInfo@lua@csgo@aw@@ULuaPlayerInfo@234@$0A@@lua@aw@@SAHPAUlua_State@@@Z 10087490 f i csgo-lua-x86:cls_playerinfo.obj
 0001:000864e0       ??$SetProperty@$MPQLuaPlayerInfo@lua@csgo@aw@@H0A@H@?$Class@VClsPlayerInfo@lua@csgo@aw@@ULuaPlayerInfo@234@$0A@@lua@aw@@SAXPAXAAVState@12@@Z 100874e0 f i csgo-lua-x86:cls_playerinfo.obj
 0001:00086510       ??$SetProperty@$MPQLuaPlayerInfo@lua@csgo@aw@@H0BM@H@?$Class@VClsPlayerInfo@lua@csgo@aw@@ULuaPlayerInfo@234@$0A@@lua@aw@@SAXPAXAAVState@12@@Z 10087510 f i csgo-lua-x86:cls_playerinfo.obj
 0001:00086540       ??$SetProperty@$MPQLuaPlayerInfo@lua@csgo@aw@@H0DI@H@?$Class@VClsPlayerInfo@lua@csgo@aw@@ULuaPlayerInfo@234@$0A@@lua@aw@@SAXPAXAAVState@12@@Z 10087540 f i csgo-lua-x86:cls_playerinfo.obj
 0001:00086570       ??$SetProperty@$MPQLuaPlayerInfo@lua@csgo@aw@@V?$basic_string@DU?$char_traits@D@std@@V?$allocator@D@2@@std@@03V56@@?$Class@VClsPlayerInfo@lua@csgo@aw@@ULuaPlayerInfo@234@$0A@@lua@aw@@SAXPAXAAVState@12@@Z 10087570 f i csgo-lua-x86:cls_playerinfo.obj
 0001:000865c0       ??$SetProperty@$MPQLuaPlayerInfo@lua@csgo@aw@@V?$basic_string@DU?$char_traits@D@std@@V?$allocator@D@2@@std@@0CA@V56@@?$Class@VClsPlayerInfo@lua@csgo@aw@@ULuaPlayerInfo@234@$0A@@lua@aw@@SAXPAXAAVState@12@@Z 100875c0 f i csgo-lua-x86:cls_playerinfo.obj
 0001:00086610       ??$SetProperty@$MPQLuaPlayerInfo@lua@csgo@aw@@V?$basic_string@DU?$char_traits@D@std@@V?$allocator@D@2@@std@@0DM@V56@@?$Class@VClsPlayerInfo@lua@csgo@aw@@ULuaPlayerInfo@234@$0A@@lua@aw@@SAXPAXAAVState@12@@Z 10087610 f i csgo-lua-x86:cls_playerinfo.obj
 0001:00086660       ??$SetProperty@$MPQLuaPlayerInfo@lua@csgo@aw@@_N0FE@_N@?$Class@VClsPlayerInfo@lua@csgo@aw@@ULuaPlayerInfo@234@$0A@@lua@aw@@SAXPAXAAVState@12@@Z 10087660 f i csgo-lua-x86:cls_playerinfo.obj
 0001:000866d0       ??$SetProperty@$MPQLuaPlayerInfo@lua@csgo@aw@@_N0FF@_N@?$Class@VClsPlayerInfo@lua@csgo@aw@@ULuaPlayerInfo@234@$0A@@lua@aw@@SAXPAXAAVState@12@@Z 100876d0 f i csgo-lua-x86:cls_playerinfo.obj
 0001:00086740       ??$_Find_last@ULuaJITString@lua@aw@@@?$_Hash@V?$_Umap_traits@ULuaJITString@lua@aw@@UClassProperty@23@V?$_Uhash_compare@ULuaJITString@lua@aw@@ULuaJITStringHasher@23@ULuaJITStringEqual@23@@std@@V?$allocator@U?$pair@$$CBULuaJITString@lua@aw@@UClassProperty@23@@std@@@6@$0A@@std@@@std@@IBE?AU?$_Hash_find_last_result@PAU?$_List_node@U?$pair@$$CBULuaJITString@lua@aw@@UClassProperty@23@@std@@PAX@std@@@1@ABULuaJITString@lua@aw@@I@Z 10087740 f i csgo-lua-x86:cls_playerinfo.obj
 0001:000867b0       ??$fill@PAV?$_List_unchecked_iterator@V?$_List_val@U?$_List_simple_types@U?$pair@$$CBULuaJITString@lua@aw@@UClassProperty@23@@std@@@std@@@std@@@std@@V12@@std@@YAXQAV?$_List_unchecked_iterator@V?$_List_val@U?$_List_simple_types@U?$pair@$$CBULuaJITString@lua@aw@@UClassProperty@23@@std@@@std@@@std@@@0@0ABV10@@Z 100877b0 f i csgo-lua-x86:cls_playerinfo.obj
 0001:00086810       ??A?$unordered_map@ULuaJITString@lua@aw@@UClassProperty@23@ULuaJITStringHasher@23@ULuaJITStringEqual@23@V?$allocator@U?$pair@$$CBULuaJITString@lua@aw@@UClassProperty@23@@std@@@std@@@std@@QAEAAUClassProperty@lua@aw@@$$QAULuaJITString@34@@Z 10087810 f i csgo-lua-x86:cls_playerinfo.obj
 0001:00086990       ?Init@ClsPlayerInfo@lua@csgo@aw@@UAEXPAVContext@24@@Z 10087990 f   csgo-lua-x86:cls_playerinfo.obj
 0001:000875e0       ?ToLuaPlayerInfo@lua@csgo@aw@@YAXPAUPlayerInfo@sdk@23@PAULuaPlayerInfo@123@@Z 100885e0 f   csgo-lua-x86:cls_playerinfo.obj
 0001:00087650       ?_Forced_rehash@?$_Hash@V?$_Umap_traits@ULuaJITString@lua@aw@@UClassProperty@23@V?$_Uhash_compare@ULuaJITString@lua@aw@@ULuaJITStringHasher@23@ULuaJITStringEqual@23@@std@@V?$allocator@U?$pair@$$CBULuaJITString@lua@aw@@UClassProperty@23@@std@@@6@$0A@@std@@@std@@IAEXI@Z 10088650 f i csgo-lua-x86:cls_playerinfo.obj
 0001:00087830       ?__gc@ClsPlayerInfo@lua@csgo@aw@@QAEXPAULuaPlayerInfo@234@AAVState@24@@Z 10088830 f   csgo-lua-x86:cls_playerinfo.obj
 0001:000878f0       ??$?HDU?$char_traits@D@std@@V?$allocator@D@1@@std@@YA?AV?$basic_string@DU?$char_traits@D@std@@V?$allocator@D@2@@0@QBD$$QAV10@@Z 100888f0 f i csgo-lua-x86:lib_client.obj
 0001:000879e0       ??$BindThunk@$1?AllowListener@LibClient@lua@csgo@aw@@IAEXAAVState@35@@Z@?$Library@VLibClient@lua@csgo@aw@@@lua@aw@@SAHPAUlua_State@@@Z 100889e0 f i csgo-lua-x86:lib_client.obj
 0001:00087a70       ??$BindThunk@$1?ChatSay@LibClient@lua@csgo@aw@@IAEXAAVState@35@@Z@?$Library@VLibClient@lua@csgo@aw@@@lua@aw@@SAHPAUlua_State@@@Z 10088a70 f i csgo-lua-x86:lib_client.obj
 0001:00087ab0       ??$BindThunk@$1?ChatTeamSay@LibClient@lua@csgo@aw@@IAEXAAVState@35@@Z@?$Library@VLibClient@lua@csgo@aw@@@lua@aw@@SAHPAUlua_State@@@Z 10088ab0 f i csgo-lua-x86:lib_client.obj
 0001:00087af0       ??$BindThunk@$1?Command@LibClient@lua@csgo@aw@@IAEXAAVState@35@@Z@?$Library@VLibClient@lua@csgo@aw@@@lua@aw@@SAHPAUlua_State@@@Z 10088af0 f i csgo-lua-x86:lib_client.obj
 0001:00087b30       ??$BindThunk@$1?GetConVar@LibClient@lua@csgo@aw@@IAEXAAVState@35@@Z@?$Library@VLibClient@lua@csgo@aw@@@lua@aw@@SAHPAUlua_State@@@Z 10088b30 f i csgo-lua-x86:lib_client.obj
 0001:00087b70       ??$BindThunk@$1?GetLocalPlayerIndex@LibClient@lua@csgo@aw@@IAEXAAVState@35@@Z@?$Library@VLibClient@lua@csgo@aw@@@lua@aw@@SAHPAUlua_State@@@Z 10088b70 f i csgo-lua-x86:lib_client.obj
 0001:00087bd0       ??$BindThunk@$1?GetPlayerIndexByUserID@LibClient@lua@csgo@aw@@IAEXAAVState@35@@Z@?$Library@VLibClient@lua@csgo@aw@@@lua@aw@@SAHPAUlua_State@@@Z 10088bd0 f i csgo-lua-x86:lib_client.obj
 0001:00087c60       ??$BindThunk@$1?GetPlayerInfo@LibClient@lua@csgo@aw@@IAEXAAVState@35@@Z@?$Library@VLibClient@lua@csgo@aw@@@lua@aw@@SAHPAUlua_State@@@Z 10088c60 f i csgo-lua-x86:lib_client.obj
 0001:00087ca0       ??$BindThunk@$1?GetPlayerNameByIndex@LibClient@lua@csgo@aw@@IAEXAAVState@35@@Z@?$Library@VLibClient@lua@csgo@aw@@@lua@aw@@SAHPAUlua_State@@@Z 10088ca0 f i csgo-lua-x86:lib_client.obj
 0001:00087ce0       ??$BindThunk@$1?GetPlayerNameByUserID@LibClient@lua@csgo@aw@@IAEXAAVState@35@@Z@?$Library@VLibClient@lua@csgo@aw@@@lua@aw@@SAHPAUlua_State@@@Z 10088ce0 f i csgo-lua-x86:lib_client.obj
 0001:00087d20       ??$BindThunk@$1?SetConVar@LibClient@lua@csgo@aw@@IAEXAAVState@35@@Z@?$Library@VLibClient@lua@csgo@aw@@@lua@aw@@SAHPAUlua_State@@@Z 10088d20 f i csgo-lua-x86:lib_client.obj
 0001:00087d60       ??$BindThunk@$1?WorldToScreen@LibClient@lua@csgo@aw@@IAEXAAVState@35@@Z@?$Library@VLibClient@lua@csgo@aw@@@lua@aw@@SAHPAUlua_State@@@Z 10088d60 f i csgo-lua-x86:lib_client.obj
 0001:00087da0       ??$Get@V?$basic_string_view@DU?$char_traits@D@std@@@std@@@State@lua@aw@@QAE?AV?$basic_string_view@DU?$char_traits@D@std@@@std@@H@Z 10088da0 f i csgo-lua-x86:lib_client.obj
 0001:00087e00       ??$GetPtr@VVector3@aw@@@State@lua@aw@@QAEPAVVector3@2@H@Z 10088e00 f i csgo-lua-x86:lib_client.obj
 0001:00087e30       ??$_Reallocate_grow_by@V<lambda_1>@?1??insert@?$basic_string@DU?$char_traits@D@std@@V?$allocator@D@2@@std@@QAEAAV34@IQBDI@Z@IPBDI@?$basic_string@DU?$char_traits@D@std@@V?$allocator@D@2@@std@@AAEAAV01@IV<lambda_1>@?1??insert@01@QAEAAV01@IQBDI@Z@IPBDI@Z 10088e30 f i csgo-lua-x86:lib_client.obj
 0001:00087f90       ?ChatSay@LibClient@lua@csgo@aw@@IAEXAAVState@24@@Z 10088f90 f   csgo-lua-x86:lib_client.obj
 0001:00088050       ?ChatTeamSay@LibClient@lua@csgo@aw@@IAEXAAVState@24@@Z 10089050 f   csgo-lua-x86:lib_client.obj
 0001:00088110       ?Command@LibClient@lua@csgo@aw@@IAEXAAVState@24@@Z 10089110 f   csgo-lua-x86:lib_client.obj
 0001:00088500       ?Get@?$Class@VClsVector3@lua@aw@@VVector3@3@$00@lua@aw@@QAEPAVVector3@3@PAUlua_State@@H@Z 10089500 f i csgo-lua-x86:lib_client.obj
 0001:00088670       ?GetConVar@LibClient@lua@csgo@aw@@IAEXAAVState@24@@Z 10089670 f   csgo-lua-x86:lib_client.obj
 0001:000888e0       ?GetPlayerInfo@LibClient@lua@csgo@aw@@IAEXAAVState@24@@Z 100898e0 f   csgo-lua-x86:lib_client.obj
 0001:00088a10       ?GetPlayerNameByIndex@LibClient@lua@csgo@aw@@IAEXAAVState@24@@Z 10089a10 f   csgo-lua-x86:lib_client.obj
 0001:00088b00       ?GetPlayerNameByUserID@LibClient@lua@csgo@aw@@IAEXAAVState@24@@Z 10089b00 f   csgo-lua-x86:lib_client.obj
 0001:00088c00       ?Init@LibClient@lua@csgo@aw@@UAEXPAVContext@24@@Z 10089c00 f   csgo-lua-x86:lib_client.obj
 0001:000897b0       ?MakeSayCommandSafe@LibClient@lua@csgo@aw@@IAEXPAD@Z 1008a7b0 f   csgo-lua-x86:lib_client.obj
 0001:000897e0       ?SetConVar@LibClient@lua@csgo@aw@@IAEXAAVState@24@@Z 1008a7e0 f   csgo-lua-x86:lib_client.obj
 0001:00089a60       ?WorldToScreen@LibClient@lua@csgo@aw@@IAEXAAVState@24@@Z 1008aa60 f   csgo-lua-x86:lib_client.obj
 0001:00089b30       ??$BindThunk@$1?Create@LibMaterials@lua@csgo@aw@@IAEXAAVState@35@@Z@?$Library@VLibMaterials@lua@csgo@aw@@@lua@aw@@SAHPAUlua_State@@@Z 1008ab30 f i csgo-lua-x86:lib_materials.obj
 0001:00089b70       ??$BindThunk@$1?Enumerate@LibMaterials@lua@csgo@aw@@IAEXAAVState@35@@Z@?$Library@VLibMaterials@lua@csgo@aw@@@lua@aw@@SAHPAUlua_State@@@Z 1008ab70 f i csgo-lua-x86:lib_materials.obj
 0001:00089bb0       ??$BindThunk@$1?Find@LibMaterials@lua@csgo@aw@@IAEXAAVState@35@@Z@?$Library@VLibMaterials@lua@csgo@aw@@@lua@aw@@SAHPAUlua_State@@@Z 1008abb0 f i csgo-lua-x86:lib_materials.obj
 0001:00089bf0       ??$Push@VMaterial@sdk@csgo@aw@@@State@lua@aw@@QAEXPAVMaterial@sdk@csgo@2@@Z 1008abf0 f i csgo-lua-x86:lib_materials.obj
 0001:00089c60       ?Create@LibMaterials@lua@csgo@aw@@IAEXAAVState@24@@Z 1008ac60 f   csgo-lua-x86:lib_materials.obj
 0001:00089fd0       ?Enumerate@LibMaterials@lua@csgo@aw@@IAEXAAVState@24@@Z 1008afd0 f   csgo-lua-x86:lib_materials.obj
 0001:0008a0d0       ?Find@LibMaterials@lua@csgo@aw@@IAEXAAVState@24@@Z 1008b0d0 f   csgo-lua-x86:lib_materials.obj
 0001:0008a1c0       ?Init@LibMaterials@lua@csgo@aw@@UAEXPAVContext@24@@Z 1008b1c0 f   csgo-lua-x86:lib_materials.obj
 0001:0008a470       ??$BindThunk@$1?GetMapName@LibEngine@lua@csgo@aw@@IAEXAAVState@35@@Z@?$Library@VLibEngine@lua@csgo@aw@@@lua@aw@@SAHPAUlua_State@@@Z 1008b470 f i csgo-lua-x86:lib_engine.obj
 0001:0008a4e0       ??$BindThunk@$1?GetPointContents@LibEngine@lua@csgo@aw@@IAEXAAVState@35@@Z@?$Library@VLibEngine@lua@csgo@aw@@@lua@aw@@SAHPAUlua_State@@@Z 1008b4e0 f i csgo-lua-x86:lib_engine.obj
 0001:0008a520       ??$BindThunk@$1?GetServerIP@LibEngine@lua@csgo@aw@@IAEXAAVState@35@@Z@?$Library@VLibEngine@lua@csgo@aw@@@lua@aw@@SAHPAUlua_State@@@Z 1008b520 f i csgo-lua-x86:lib_engine.obj
 0001:0008a590       ??$BindThunk@$1?GetViewAngles@LibEngine@lua@csgo@aw@@IAEXAAVState@35@@Z@?$Library@VLibEngine@lua@csgo@aw@@@lua@aw@@SAHPAUlua_State@@@Z 1008b590 f i csgo-lua-x86:lib_engine.obj
 0001:0008a5d0       ??$BindThunk@$1?SetViewAngles@LibEngine@lua@csgo@aw@@IAEXAAVState@35@@Z@?$Library@VLibEngine@lua@csgo@aw@@@lua@aw@@SAHPAUlua_State@@@Z 1008b5d0 f i csgo-lua-x86:lib_engine.obj
 0001:0008a640       ??$BindThunk@$1?TraceHull@LibEngine@lua@csgo@aw@@IAEXAAVState@35@@Z@?$Library@VLibEngine@lua@csgo@aw@@@lua@aw@@SAHPAUlua_State@@@Z 1008b640 f i csgo-lua-x86:lib_engine.obj
 0001:0008a680       ??$BindThunk@$1?TraceLine@LibEngine@lua@csgo@aw@@IAEXAAVState@35@@Z@?$Library@VLibEngine@lua@csgo@aw@@@lua@aw@@SAHPAUlua_State@@@Z 1008b680 f i csgo-lua-x86:lib_engine.obj
 0001:0008a6c0       ??$Push@V?$basic_string_view@DU?$char_traits@D@std@@@std@@@State@lua@aw@@QAEXABV?$basic_string_view@DU?$char_traits@D@std@@@std@@@Z 1008b6c0 f i csgo-lua-x86:lib_engine.obj
 0001:0008a6f0       ??$Push@VEulerAngles@aw@@@State@lua@aw@@QAEXPAVEulerAngles@2@@Z 1008b6f0 f i csgo-lua-x86:lib_engine.obj
 0001:0008a760       ??$Push@VTrace@sdk@csgo@aw@@@State@lua@aw@@QAEXPAVTrace@sdk@csgo@2@@Z 1008b760 f i csgo-lua-x86:lib_engine.obj
 0001:0008a7d0       ?Get@?$Class@VClsEulerAngles@lua@aw@@VEulerAngles@3@$00@lua@aw@@QAEPAVEulerAngles@3@PAUlua_State@@H@Z 1008b7d0 f i csgo-lua-x86:lib_engine.obj
 0001:0008a940       ?GetPointContents@LibEngine@lua@csgo@aw@@IAEXAAVState@24@@Z 1008b940 f   csgo-lua-x86:lib_engine.obj
 0001:0008aa00       ?GetViewAngles@LibEngine@lua@csgo@aw@@IAEXAAVState@24@@Z 1008ba00 f   csgo-lua-x86:lib_engine.obj
 0001:0008aa90       ?Init@LibEngine@lua@csgo@aw@@UAEXPAVContext@24@@Z 1008ba90 f   csgo-lua-x86:lib_engine.obj
 0001:0008b0a0       ?TraceHull@LibEngine@lua@csgo@aw@@IAEXAAVState@24@@Z 1008c0a0 f   csgo-lua-x86:lib_engine.obj
 0001:0008b220       ?TraceLine@LibEngine@lua@csgo@aw@@IAEXAAVState@24@@Z 1008c220 f   csgo-lua-x86:lib_engine.obj
 0001:0008b330       ??$BindThunk@$1?RunScript@LibPanorama@lua@csgo@aw@@IAEXAAVState@35@@Z@?$Library@VLibPanorama@lua@csgo@aw@@@lua@aw@@SAHPAUlua_State@@@Z 1008c330 f i csgo-lua-x86:lib_panorama.obj
 0001:0008b370       ?Get@PanoramaUIEngine@sdk@csgo@aw@@SAPAV1234@XZ 1008c370 f i csgo-lua-x86:lib_panorama.obj
 0001:0008b380       ?Init@LibPanorama@lua@csgo@aw@@UAEXPAVContext@24@@Z 1008c380 f   csgo-lua-x86:lib_panorama.obj
 0001:0008b4f0       ?RunScript@LibPanorama@lua@csgo@aw@@IAEXAAVState@24@@Z 1008c4f0 f   csgo-lua-x86:lib_panorama.obj
 0001:0008b6c0       ??$Get@M@State@lua@aw@@QAEMH@Z 1008c6c0 f i csgo-lua-x86:cls_usercmd.obj
 0001:0008b6f0       ??$GetProperty@$MPQUserCmd@sdk@csgo@aw@@D0DE@@?$Class@VClsUserCmd@lua@csgo@aw@@VUserCmdEx@234@$0A@@lua@aw@@SAXPAXAAVState@12@@Z 1008c6f0 f i csgo-lua-x86:cls_usercmd.obj
 0001:0008b720       ??$GetProperty@$MPQUserCmd@sdk@csgo@aw@@F0EE@@?$Class@VClsUserCmd@lua@csgo@aw@@VUserCmdEx@234@$0A@@lua@aw@@SAXPAXAAVState@12@@Z 1008c720 f i csgo-lua-x86:cls_usercmd.obj
 0001:0008b750       ??$GetProperty@$MPQUserCmd@sdk@csgo@aw@@F0EG@@?$Class@VClsUserCmd@lua@csgo@aw@@VUserCmdEx@234@$0A@@lua@aw@@SAXPAXAAVState@12@@Z 1008c750 f i csgo-lua-x86:cls_usercmd.obj
 0001:0008b780       ??$GetProperty@$MPQUserCmd@sdk@csgo@aw@@H03@?$Class@VClsUserCmd@lua@csgo@aw@@VUserCmdEx@234@$0A@@lua@aw@@SAXPAXAAVState@12@@Z 1008c780 f i csgo-lua-x86:cls_usercmd.obj
 0001:0008b7b0       ??$GetProperty@$MPQUserCmd@sdk@csgo@aw@@H07@?$Class@VClsUserCmd@lua@csgo@aw@@VUserCmdEx@234@$0A@@lua@aw@@SAXPAXAAVState@12@@Z 1008c7b0 f i csgo-lua-x86:cls_usercmd.obj
 0001:0008b7e0       ??$GetProperty@$MPQUserCmd@sdk@csgo@aw@@H0DA@@?$Class@VClsUserCmd@lua@csgo@aw@@VUserCmdEx@234@$0A@@lua@aw@@SAXPAXAAVState@12@@Z 1008c7e0 f i csgo-lua-x86:cls_usercmd.obj
 0001:0008b810       ??$GetProperty@$MPQUserCmd@sdk@csgo@aw@@H0DI@@?$Class@VClsUserCmd@lua@csgo@aw@@VUserCmdEx@234@$0A@@lua@aw@@SAXPAXAAVState@12@@Z 1008c810 f i csgo-lua-x86:cls_usercmd.obj
 0001:0008b840       ??$GetProperty@$MPQUserCmd@sdk@csgo@aw@@H0DM@@?$Class@VClsUserCmd@lua@csgo@aw@@VUserCmdEx@234@$0A@@lua@aw@@SAXPAXAAVState@12@@Z 1008c840 f i csgo-lua-x86:cls_usercmd.obj
 0001:0008b870       ??$GetProperty@$MPQUserCmd@sdk@csgo@aw@@H0EA@@?$Class@VClsUserCmd@lua@csgo@aw@@VUserCmdEx@234@$0A@@lua@aw@@SAXPAXAAVState@12@@Z 1008c870 f i csgo-lua-x86:cls_usercmd.obj
 0001:0008b8a0       ??$GetProperty@$MPQUserCmd@sdk@csgo@aw@@M0CE@@?$Class@VClsUserCmd@lua@csgo@aw@@VUserCmdEx@234@$0A@@lua@aw@@SAXPAXAAVState@12@@Z 1008c8a0 f i csgo-lua-x86:cls_usercmd.obj
 0001:0008b8e0       ??$GetProperty@$MPQUserCmd@sdk@csgo@aw@@M0CI@@?$Class@VClsUserCmd@lua@csgo@aw@@VUserCmdEx@234@$0A@@lua@aw@@SAXPAXAAVState@12@@Z 1008c8e0 f i csgo-lua-x86:cls_usercmd.obj
 0001:0008b920       ??$GetProperty@$MPQUserCmd@sdk@csgo@aw@@M0CM@@?$Class@VClsUserCmd@lua@csgo@aw@@VUserCmdEx@234@$0A@@lua@aw@@SAXPAXAAVState@12@@Z 1008c920 f i csgo-lua-x86:cls_usercmd.obj
 0001:0008b960       ??$GetProperty@$MPQUserCmd@sdk@csgo@aw@@_N0EI@@?$Class@VClsUserCmd@lua@csgo@aw@@VUserCmdEx@234@$0A@@lua@aw@@SAXPAXAAVState@12@@Z 1008c960 f i csgo-lua-x86:cls_usercmd.obj
 0001:0008b990       ??$GetProperty@$MPQUserCmdEx@lua@csgo@aw@@_N0GE@@?$Class@VClsUserCmd@lua@csgo@aw@@VUserCmdEx@234@$0A@@lua@aw@@SAXPAXAAVState@12@@Z 1008c990 f i csgo-lua-x86:cls_usercmd.obj
 0001:0008b9c0       ??$GetPropertyObject@$MPQUserCmd@sdk@csgo@aw@@VEulerAngles@4@0M@V54@@?$Class@VClsUserCmd@lua@csgo@aw@@VUserCmdEx@234@$0A@@lua@aw@@SAXPAXAAVState@12@@Z 1008c9c0 f i csgo-lua-x86:cls_usercmd.obj
 0001:0008b9e0       ??$GetPropertyObject@$MPQUserCmd@sdk@csgo@aw@@VVector3@4@0BI@V54@@?$Class@VClsUserCmd@lua@csgo@aw@@VUserCmdEx@234@$0A@@lua@aw@@SAXPAXAAVState@12@@Z 1008c9e0 f i csgo-lua-x86:cls_usercmd.obj
 0001:0008ba60       ??$Method@VClsUserCmd@lua@csgo@aw@@$1?GetButtons@1234@AAEXPAVUserCmdEx@234@AAVState@24@@Z@?$Class@VClsUserCmd@lua@csgo@aw@@VUserCmdEx@234@$0A@@lua@aw@@SAHPAUlua_State@@@Z 1008ca60 f i csgo-lua-x86:cls_usercmd.obj
 0001:0008bac0       ??$Method@VClsUserCmd@lua@csgo@aw@@$1?GetForwardMove@1234@AAEXPAVUserCmdEx@234@AAVState@24@@Z@?$Class@VClsUserCmd@lua@csgo@aw@@VUserCmdEx@234@$0A@@lua@aw@@SAHPAUlua_State@@@Z 1008cac0 f i csgo-lua-x86:cls_usercmd.obj
 0001:0008bb40       ??$Method@VClsUserCmd@lua@csgo@aw@@$1?GetSendPacket@1234@AAEXPAVUserCmdEx@234@AAVState@24@@Z@?$Class@VClsUserCmd@lua@csgo@aw@@VUserCmdEx@234@$0A@@lua@aw@@SAHPAUlua_State@@@Z 1008cb40 f i csgo-lua-x86:cls_usercmd.obj
 0001:0008bba0       ??$Method@VClsUserCmd@lua@csgo@aw@@$1?GetSideMove@1234@AAEXPAVUserCmdEx@234@AAVState@24@@Z@?$Class@VClsUserCmd@lua@csgo@aw@@VUserCmdEx@234@$0A@@lua@aw@@SAHPAUlua_State@@@Z 1008cba0 f i csgo-lua-x86:cls_usercmd.obj
 0001:0008bc20       ??$Method@VClsUserCmd@lua@csgo@aw@@$1?GetUpMove@1234@AAEXPAVUserCmdEx@234@AAVState@24@@Z@?$Class@VClsUserCmd@lua@csgo@aw@@VUserCmdEx@234@$0A@@lua@aw@@SAHPAUlua_State@@@Z 1008cc20 f i csgo-lua-x86:cls_usercmd.obj
 0001:0008bca0       ??$Method@VClsUserCmd@lua@csgo@aw@@$1?GetViewAngles@1234@AAEXPAVUserCmdEx@234@AAVState@24@@Z@?$Class@VClsUserCmd@lua@csgo@aw@@VUserCmdEx@234@$0A@@lua@aw@@SAHPAUlua_State@@@Z 1008cca0 f i csgo-lua-x86:cls_usercmd.obj
 0001:0008bcf0       ??$Method@VClsUserCmd@lua@csgo@aw@@$1?SetButtons@1234@AAEXPAVUserCmdEx@234@AAVState@24@@Z@?$Class@VClsUserCmd@lua@csgo@aw@@VUserCmdEx@234@$0A@@lua@aw@@SAHPAUlua_State@@@Z 1008ccf0 f i csgo-lua-x86:cls_usercmd.obj
 0001:0008bd70       ??$Method@VClsUserCmd@lua@csgo@aw@@$1?SetForwardMove@1234@AAEXPAVUserCmdEx@234@AAVState@24@@Z@?$Class@VClsUserCmd@lua@csgo@aw@@VUserCmdEx@234@$0A@@lua@aw@@SAHPAUlua_State@@@Z 1008cd70 f i csgo-lua-x86:cls_usercmd.obj
 0001:0008bdf0       ??$Method@VClsUserCmd@lua@csgo@aw@@$1?SetSendPacket@1234@AAEXPAVUserCmdEx@234@AAVState@24@@Z@?$Class@VClsUserCmd@lua@csgo@aw@@VUserCmdEx@234@$0A@@lua@aw@@SAHPAUlua_State@@@Z 1008cdf0 f i csgo-lua-x86:cls_usercmd.obj
 0001:0008be50       ??$Method@VClsUserCmd@lua@csgo@aw@@$1?SetSideMove@1234@AAEXPAVUserCmdEx@234@AAVState@24@@Z@?$Class@VClsUserCmd@lua@csgo@aw@@VUserCmdEx@234@$0A@@lua@aw@@SAHPAUlua_State@@@Z 1008ce50 f i csgo-lua-x86:cls_usercmd.obj
 0001:0008bed0       ??$Method@VClsUserCmd@lua@csgo@aw@@$1?SetUpMove@1234@AAEXPAVUserCmdEx@234@AAVState@24@@Z@?$Class@VClsUserCmd@lua@csgo@aw@@VUserCmdEx@234@$0A@@lua@aw@@SAHPAUlua_State@@@Z 1008ced0 f i csgo-lua-x86:cls_usercmd.obj
 0001:0008bf50       ??$Method@VClsUserCmd@lua@csgo@aw@@$1?SetViewAngles@1234@AAEXPAVUserCmdEx@234@AAVState@24@@Z@?$Class@VClsUserCmd@lua@csgo@aw@@VUserCmdEx@234@$0A@@lua@aw@@SAHPAUlua_State@@@Z 1008cf50 f i csgo-lua-x86:cls_usercmd.obj
 0001:0008bfe0       ??$Push@VVector3@aw@@@State@lua@aw@@QAEXPAVVector3@2@@Z 1008cfe0 f i csgo-lua-x86:cls_usercmd.obj
 0001:0008c050       ??$SetProperty@$MPQUserCmd@sdk@csgo@aw@@D0DE@D@?$Class@VClsUserCmd@lua@csgo@aw@@VUserCmdEx@234@$0A@@lua@aw@@SAXPAXAAVState@12@@Z 1008d050 f i csgo-lua-x86:cls_usercmd.obj
 0001:0008c080       ??$SetProperty@$MPQUserCmd@sdk@csgo@aw@@F0EE@F@?$Class@VClsUserCmd@lua@csgo@aw@@VUserCmdEx@234@$0A@@lua@aw@@SAXPAXAAVState@12@@Z 1008d080 f i csgo-lua-x86:cls_usercmd.obj
 0001:0008c0b0       ??$SetProperty@$MPQUserCmd@sdk@csgo@aw@@F0EG@F@?$Class@VClsUserCmd@lua@csgo@aw@@VUserCmdEx@234@$0A@@lua@aw@@SAXPAXAAVState@12@@Z 1008d0b0 f i csgo-lua-x86:cls_usercmd.obj
 0001:0008c0e0       ??$SetProperty@$MPQUserCmd@sdk@csgo@aw@@H03H@?$Class@VClsUserCmd@lua@csgo@aw@@VUserCmdEx@234@$0A@@lua@aw@@SAXPAXAAVState@12@@Z 1008d0e0 f i csgo-lua-x86:cls_usercmd.obj
 0001:0008c110       ??$SetProperty@$MPQUserCmd@sdk@csgo@aw@@H07H@?$Class@VClsUserCmd@lua@csgo@aw@@VUserCmdEx@234@$0A@@lua@aw@@SAXPAXAAVState@12@@Z 1008d110 f i csgo-lua-x86:cls_usercmd.obj
 0001:0008c140       ??$SetProperty@$MPQUserCmd@sdk@csgo@aw@@H0DA@H@?$Class@VClsUserCmd@lua@csgo@aw@@VUserCmdEx@234@$0A@@lua@aw@@SAXPAXAAVState@12@@Z 1008d140 f i csgo-lua-x86:cls_usercmd.obj
 0001:0008c170       ??$SetProperty@$MPQUserCmd@sdk@csgo@aw@@H0DI@H@?$Class@VClsUserCmd@lua@csgo@aw@@VUserCmdEx@234@$0A@@lua@aw@@SAXPAXAAVState@12@@Z 1008d170 f i csgo-lua-x86:cls_usercmd.obj
 0001:0008c1a0       ??$SetProperty@$MPQUserCmd@sdk@csgo@aw@@H0DM@H@?$Class@VClsUserCmd@lua@csgo@aw@@VUserCmdEx@234@$0A@@lua@aw@@SAXPAXAAVState@12@@Z 1008d1a0 f i csgo-lua-x86:cls_usercmd.obj
 0001:0008c1d0       ??$SetProperty@$MPQUserCmd@sdk@csgo@aw@@H0EA@H@?$Class@VClsUserCmd@lua@csgo@aw@@VUserCmdEx@234@$0A@@lua@aw@@SAXPAXAAVState@12@@Z 1008d1d0 f i csgo-lua-x86:cls_usercmd.obj
 0001:0008c200       ??$SetProperty@$MPQUserCmd@sdk@csgo@aw@@M0CE@M@?$Class@VClsUserCmd@lua@csgo@aw@@VUserCmdEx@234@$0A@@lua@aw@@SAXPAXAAVState@12@@Z 1008d200 f i csgo-lua-x86:cls_usercmd.obj
 0001:0008c230       ??$SetProperty@$MPQUserCmd@sdk@csgo@aw@@M0CI@M@?$Class@VClsUserCmd@lua@csgo@aw@@VUserCmdEx@234@$0A@@lua@aw@@SAXPAXAAVState@12@@Z 1008d230 f i csgo-lua-x86:cls_usercmd.obj
 0001:0008c260       ??$SetProperty@$MPQUserCmd@sdk@csgo@aw@@M0CM@M@?$Class@VClsUserCmd@lua@csgo@aw@@VUserCmdEx@234@$0A@@lua@aw@@SAXPAXAAVState@12@@Z 1008d260 f i csgo-lua-x86:cls_usercmd.obj
 0001:0008c290       ??$SetProperty@$MPQUserCmd@sdk@csgo@aw@@_N0EI@_N@?$Class@VClsUserCmd@lua@csgo@aw@@VUserCmdEx@234@$0A@@lua@aw@@SAXPAXAAVState@12@@Z 1008d290 f i csgo-lua-x86:cls_usercmd.obj
 0001:0008c300       ??$SetProperty@$MPQUserCmdEx@lua@csgo@aw@@_N0GE@_N@?$Class@VClsUserCmd@lua@csgo@aw@@VUserCmdEx@234@$0A@@lua@aw@@SAXPAXAAVState@12@@Z 1008d300 f i csgo-lua-x86:cls_usercmd.obj
 0001:0008c370       ??$SetPropertyObject@$MPQUserCmd@sdk@csgo@aw@@VEulerAngles@4@0M@V54@@?$Class@VClsUserCmd@lua@csgo@aw@@VUserCmdEx@234@$0A@@lua@aw@@SAXPAXAAVState@12@@Z 1008d370 f i csgo-lua-x86:cls_usercmd.obj
 0001:0008c3b0       ??$SetPropertyObject@$MPQUserCmd@sdk@csgo@aw@@VVector3@4@0BI@V54@@?$Class@VClsUserCmd@lua@csgo@aw@@VUserCmdEx@234@$0A@@lua@aw@@SAXPAXAAVState@12@@Z 1008d3b0 f i csgo-lua-x86:cls_usercmd.obj
 0001:0008c3f0       ??$_Find_last@ULuaJITString@lua@aw@@@?$_Hash@V?$_Umap_traits@ULuaJITString@lua@aw@@P6AHPAUlua_State@@@ZV?$_Uhash_compare@ULuaJITString@lua@aw@@ULuaJITStringHasher@23@ULuaJITStringEqual@23@@std@@V?$allocator@U?$pair@$$CBULuaJITString@lua@aw@@P6AHPAUlua_State@@@Z@std@@@6@$0A@@std@@@std@@IBE?AU?$_Hash_find_last_result@PAU?$_List_node@U?$pair@$$CBULuaJITString@lua@aw@@P6AHPAUlua_State@@@Z@std@@PAX@std@@@1@ABULuaJITString@lua@aw@@I@Z 1008d3f0 f i csgo-lua-x86:cls_usercmd.obj
 0001:0008c460       ??$fill@PAV?$_List_unchecked_iterator@V?$_List_val@U?$_List_simple_types@U?$pair@$$CBULuaJITString@lua@aw@@P6AHPAUlua_State@@@Z@std@@@std@@@std@@@std@@V12@@std@@YAXQAV?$_List_unchecked_iterator@V?$_List_val@U?$_List_simple_types@U?$pair@$$CBULuaJITString@lua@aw@@P6AHPAUlua_State@@@Z@std@@@std@@@std@@@0@0ABV10@@Z 1008d460 f i csgo-lua-x86:cls_usercmd.obj
 0001:0008c4c0       ??0UserCmdEx@lua@csgo@aw@@QAE@AAVUserCmd@sdk@23@AA_N@Z 1008d4c0 f   csgo-lua-x86:cls_usercmd.obj
 0001:0008c580       ??1UserCmdEx@lua@csgo@aw@@UAE@XZ 1008d580 f   csgo-lua-x86:cls_usercmd.obj
 0001:0008c630       ??A?$unordered_map@ULuaJITString@lua@aw@@P6AHPAUlua_State@@@ZULuaJITStringHasher@23@ULuaJITStringEqual@23@V?$allocator@U?$pair@$$CBULuaJITString@lua@aw@@P6AHPAUlua_State@@@Z@std@@@std@@@std@@QAEAAP6AHPAUlua_State@@@Z$$QAULuaJITString@lua@aw@@@Z 1008d630 f i csgo-lua-x86:cls_usercmd.obj
 0001:0008c7b0       ??_EUserCmdEx@lua@csgo@aw@@UAEPAXI@Z 1008d7b0 f i csgo-lua-x86:cls_usercmd.obj
 0001:0008c7b0       ??_GUserCmdEx@lua@csgo@aw@@UAEPAXI@Z 1008d7b0 f i csgo-lua-x86:cls_usercmd.obj
 0001:0008c880       ?Init@ClsUserCmd@lua@csgo@aw@@UAEXPAVContext@24@@Z 1008d880 f   csgo-lua-x86:cls_usercmd.obj
 0001:0008e550       ?_Forced_rehash@?$_Hash@V?$_Umap_traits@ULuaJITString@lua@aw@@P6AHPAUlua_State@@@ZV?$_Uhash_compare@ULuaJITString@lua@aw@@ULuaJITStringHasher@23@ULuaJITStringEqual@23@@std@@V?$allocator@U?$pair@$$CBULuaJITString@lua@aw@@P6AHPAUlua_State@@@Z@std@@@6@$0A@@std@@@std@@IAEXI@Z 1008f550 f i csgo-lua-x86:cls_usercmd.obj
 0001:0008e730       ??$Method@VClsMaterial@lua@csgo@aw@@$1?AlphaModulate@1234@IAEXPAVMaterial@sdk@34@AAVState@24@@Z@?$Class@VClsMaterial@lua@csgo@aw@@VMaterial@sdk@34@$0A@@lua@aw@@SAHPAUlua_State@@@Z 1008f730 f i csgo-lua-x86:cls_material.obj
 0001:0008e7c0       ??$Method@VClsMaterial@lua@csgo@aw@@$1?ColorModulate@1234@IAEXPAVMaterial@sdk@34@AAVState@24@@Z@?$Class@VClsMaterial@lua@csgo@aw@@VMaterial@sdk@34@$0A@@lua@aw@@SAHPAUlua_State@@@Z 1008f7c0 f i csgo-lua-x86:cls_material.obj
 0001:0008e810       ??$Method@VClsMaterial@lua@csgo@aw@@$1?GetName@1234@IAEXPAVMaterial@sdk@34@AAVState@24@@Z@?$Class@VClsMaterial@lua@csgo@aw@@VMaterial@sdk@34@$0A@@lua@aw@@SAHPAUlua_State@@@Z 1008f810 f i csgo-lua-x86:cls_material.obj
 0001:0008e880       ??$Method@VClsMaterial@lua@csgo@aw@@$1?GetTextureGroupName@1234@IAEXPAVMaterial@sdk@34@AAVState@24@@Z@?$Class@VClsMaterial@lua@csgo@aw@@VMaterial@sdk@34@$0A@@lua@aw@@SAHPAUlua_State@@@Z 1008f880 f i csgo-lua-x86:cls_material.obj
 0001:0008e900       ??$Method@VClsMaterial@lua@csgo@aw@@$1?SetMaterialVarFlag@1234@IAEXPAVMaterial@sdk@34@AAVState@24@@Z@?$Class@VClsMaterial@lua@csgo@aw@@VMaterial@sdk@34@$0A@@lua@aw@@SAHPAUlua_State@@@Z 1008f900 f i csgo-lua-x86:cls_material.obj
 0001:0008e990       ??$Method@VClsMaterial@lua@csgo@aw@@$1?SetShaderParam@1234@IAEXPAVMaterial@sdk@34@AAVState@24@@Z@?$Class@VClsMaterial@lua@csgo@aw@@VMaterial@sdk@34@$0A@@lua@aw@@SAHPAUlua_State@@@Z 1008f990 f i csgo-lua-x86:cls_material.obj
 0001:0008e9e0       ??$Method@VClsMaterial@lua@csgo@aw@@$1?__gc@1234@IAEXPAVMaterial@sdk@34@AAVState@24@@Z@?$Class@VClsMaterial@lua@csgo@aw@@VMaterial@sdk@34@$0A@@lua@aw@@SAHPAUlua_State@@@Z 1008f9e0 f i csgo-lua-x86:cls_material.obj
 0001:0008ea30       ??$Method@VClsMaterial@lua@csgo@aw@@$1?__tostring@1234@IAEXPAVMaterial@sdk@34@AAVState@24@@Z@?$Class@VClsMaterial@lua@csgo@aw@@VMaterial@sdk@34@$0A@@lua@aw@@SAHPAUlua_State@@@Z 1008fa30 f i csgo-lua-x86:cls_material.obj
 0001:0008eaa0       ??$_Emplace_reallocate@M@?$vector@MV?$allocator@M@std@@@std@@AAEPAMQAM$$QAM@Z 1008faa0 f i csgo-lua-x86:cls_material.obj
 0001:0008ebe0       ?ColorModulate@ClsMaterial@lua@csgo@aw@@IAEXPAVMaterial@sdk@34@AAVState@24@@Z 1008fbe0 f   csgo-lua-x86:cls_material.obj
 0001:0008ec90       ?Init@ClsMaterial@lua@csgo@aw@@UAEXPAVContext@24@@Z 1008fc90 f   csgo-lua-x86:cls_material.obj
 0001:0008f690       ?SetShaderParam@ClsMaterial@lua@csgo@aw@@IAEXPAVMaterial@sdk@34@AAVState@24@@Z 10090690 f   csgo-lua-x86:cls_material.obj
 0001:0008f890       ??$Method@VClsDrawModelContext@lua@csgo@aw@@$1?DrawExtraPass@1234@AAEXPAUDrawChamsModel@mod@34@AAVState@24@@Z@?$Class@VClsDrawModelContext@lua@csgo@aw@@UDrawChamsModel@mod@34@$0A@@lua@aw@@SAHPAUlua_State@@@Z 10090890 f i csgo-lua-x86:cls_drawmodelctx.obj
 0001:0008f910       ??$Method@VClsDrawModelContext@lua@csgo@aw@@$1?ForcedMaterialOverride@1234@AAEXPAUDrawChamsModel@mod@34@AAVState@24@@Z@?$Class@VClsDrawModelContext@lua@csgo@aw@@UDrawChamsModel@mod@34@$0A@@lua@aw@@SAHPAUlua_State@@@Z 10090910 f i csgo-lua-x86:cls_drawmodelctx.obj
 0001:0008f960       ??$Method@VClsDrawModelContext@lua@csgo@aw@@$1?GetEntity@1234@AAEXPAUDrawChamsModel@mod@34@AAVState@24@@Z@?$Class@VClsDrawModelContext@lua@csgo@aw@@UDrawChamsModel@mod@34@$0A@@lua@aw@@SAHPAUlua_State@@@Z 10090960 f i csgo-lua-x86:cls_drawmodelctx.obj
 0001:0008f9b0       ??$Method@VClsDrawModelContext@lua@csgo@aw@@$1?SetDrawOriginal@1234@AAEXPAUDrawChamsModel@mod@34@AAVState@24@@Z@?$Class@VClsDrawModelContext@lua@csgo@aw@@UDrawChamsModel@mod@34@$0A@@lua@aw@@SAHPAUlua_State@@@Z 100909b0 f i csgo-lua-x86:cls_drawmodelctx.obj
 0001:0008fa00       ?ForcedMaterialOverride@ClsDrawModelContext@lua@csgo@aw@@AAEXPAUDrawChamsModel@mod@34@AAVState@24@@Z 10090a00 f   csgo-lua-x86:cls_drawmodelctx.obj
 0001:0008fa70       ?GetEntity@ClsDrawModelContext@lua@csgo@aw@@AAEXPAUDrawChamsModel@mod@34@AAVState@24@@Z 10090a70 f   csgo-lua-x86:cls_drawmodelctx.obj
 0001:0008fb00       ?Init@ClsDrawModelContext@lua@csgo@aw@@UAEXPAVContext@24@@Z 10090b00 f   csgo-lua-x86:cls_drawmodelctx.obj
 0001:00090140       ?SetDrawOriginal@ClsDrawModelContext@lua@csgo@aw@@AAEXPAUDrawChamsModel@mod@34@AAVState@24@@Z 10091140 f   csgo-lua-x86:cls_drawmodelctx.obj
 0001:000901c0       ??$Error@AAV?$basic_string@DU?$char_traits@D@std@@V?$allocator@D@2@@std@@@State@lua@aw@@QAEXV?$basic_format_string@DAAV?$basic_string@DU?$char_traits@D@std@@V?$allocator@D@2@@std@@@v9@fmt@@AAV?$basic_string@DU?$char_traits@D@std@@V?$allocator@D@2@@std@@@Z 100911c0 f i csgo-lua-x86:cls_entity.obj
 0001:00090260       ??$Method@VClsEntity@lua@csgo@aw@@$1?GetAbsAngles@1234@IAEXPAVBaseHandle@sdk@34@AAVState@24@@Z@?$Class@VClsEntity@lua@csgo@aw@@VBaseHandle@sdk@34@$00@lua@aw@@SAHPAUlua_State@@@Z 10091260 f i csgo-lua-x86:cls_entity.obj
 0001:000902c0       ??$Method@VClsEntity@lua@csgo@aw@@$1?GetAbsOrigin@1234@IAEXPAVBaseHandle@sdk@34@AAVState@24@@Z@?$Class@VClsEntity@lua@csgo@aw@@VBaseHandle@sdk@34@$00@lua@aw@@SAHPAUlua_State@@@Z 100912c0 f i csgo-lua-x86:cls_entity.obj
 0001:00090320       ??$Method@VClsEntity@lua@csgo@aw@@$1?GetBonePosition@1234@IAEXPAVBaseHandle@sdk@34@AAVState@24@@Z@?$Class@VClsEntity@lua@csgo@aw@@VBaseHandle@sdk@34@$00@lua@aw@@SAHPAUlua_State@@@Z 10091320 f i csgo-lua-x86:cls_entity.obj
 0001:00090370       ??$Method@VClsEntity@lua@csgo@aw@@$1?GetClass@1234@IAEXPAVBaseHandle@sdk@34@AAVState@24@@Z@?$Class@VClsEntity@lua@csgo@aw@@VBaseHandle@sdk@34@$00@lua@aw@@SAHPAUlua_State@@@Z 10091370 f i csgo-lua-x86:cls_entity.obj
 0001:000903f0       ??$Method@VClsEntity@lua@csgo@aw@@$1?GetHealth@1234@IAEXPAVBaseHandle@sdk@34@AAVState@24@@Z@?$Class@VClsEntity@lua@csgo@aw@@VBaseHandle@sdk@34@$00@lua@aw@@SAHPAUlua_State@@@Z 100913f0 f i csgo-lua-x86:cls_entity.obj
 0001:00090470       ??$Method@VClsEntity@lua@csgo@aw@@$1?GetHitboxPosition@1234@IAEXPAVBaseHandle@sdk@34@AAVState@24@@Z@?$Class@VClsEntity@lua@csgo@aw@@VBaseHandle@sdk@34@$00@lua@aw@@SAHPAUlua_State@@@Z 10091470 f i csgo-lua-x86:cls_entity.obj
 0001:000904c0       ??$Method@VClsEntity@lua@csgo@aw@@$1?GetIndex@1234@IAEXPAVBaseHandle@sdk@34@AAVState@24@@Z@?$Class@VClsEntity@lua@csgo@aw@@VBaseHandle@sdk@34@$00@lua@aw@@SAHPAUlua_State@@@Z 100914c0 f i csgo-lua-x86:cls_entity.obj
 0001:00090530       ??$Method@VClsEntity@lua@csgo@aw@@$1?GetMaxHealth@1234@IAEXPAVBaseHandle@sdk@34@AAVState@24@@Z@?$Class@VClsEntity@lua@csgo@aw@@VBaseHandle@sdk@34@$00@lua@aw@@SAHPAUlua_State@@@Z 10091530 f i csgo-lua-x86:cls_entity.obj
 0001:000905b0       ??$Method@VClsEntity@lua@csgo@aw@@$1?GetMaxs@1234@IAEXPAVBaseHandle@sdk@34@AAVState@24@@Z@?$Class@VClsEntity@lua@csgo@aw@@VBaseHandle@sdk@34@$00@lua@aw@@SAHPAUlua_State@@@Z 100915b0 f i csgo-lua-x86:cls_entity.obj
 0001:00090620       ??$Method@VClsEntity@lua@csgo@aw@@$1?GetMins@1234@IAEXPAVBaseHandle@sdk@34@AAVState@24@@Z@?$Class@VClsEntity@lua@csgo@aw@@VBaseHandle@sdk@34@$00@lua@aw@@SAHPAUlua_State@@@Z 10091620 f i csgo-lua-x86:cls_entity.obj
 0001:00090690       ??$Method@VClsEntity@lua@csgo@aw@@$1?GetModelName@1234@IAEXPAVBaseHandle@sdk@34@AAVState@24@@Z@?$Class@VClsEntity@lua@csgo@aw@@VBaseHandle@sdk@34@$00@lua@aw@@SAHPAUlua_State@@@Z 10091690 f i csgo-lua-x86:cls_entity.obj
 0001:00090710       ??$Method@VClsEntity@lua@csgo@aw@@$1?GetName@1234@IAEXPAVBaseHandle@sdk@34@AAVState@24@@Z@?$Class@VClsEntity@lua@csgo@aw@@VBaseHandle@sdk@34@$00@lua@aw@@SAHPAUlua_State@@@Z 10091710 f i csgo-lua-x86:cls_entity.obj
 0001:00090760       ??$Method@VClsEntity@lua@csgo@aw@@$1?GetProp@1234@IAEXPAVBaseHandle@sdk@34@AAVState@24@@Z@?$Class@VClsEntity@lua@csgo@aw@@VBaseHandle@sdk@34@$00@lua@aw@@SAHPAUlua_State@@@Z 10091760 f i csgo-lua-x86:cls_entity.obj
 0001:000907b0       ??$Method@VClsEntity@lua@csgo@aw@@$1?GetPropBool@1234@IAEXPAVBaseHandle@sdk@34@AAVState@24@@Z@?$Class@VClsEntity@lua@csgo@aw@@VBaseHandle@sdk@34@$00@lua@aw@@SAHPAUlua_State@@@Z 100917b0 f i csgo-lua-x86:cls_entity.obj
 0001:00090820       ??$Method@VClsEntity@lua@csgo@aw@@$1?GetPropEntity@1234@IAEXPAVBaseHandle@sdk@34@AAVState@24@@Z@?$Class@VClsEntity@lua@csgo@aw@@VBaseHandle@sdk@34@$00@lua@aw@@SAHPAUlua_State@@@Z 10091820 f i csgo-lua-x86:cls_entity.obj
 0001:00090870       ??$Method@VClsEntity@lua@csgo@aw@@$1?GetPropFloat@1234@IAEXPAVBaseHandle@sdk@34@AAVState@24@@Z@?$Class@VClsEntity@lua@csgo@aw@@VBaseHandle@sdk@34@$00@lua@aw@@SAHPAUlua_State@@@Z 10091870 f i csgo-lua-x86:cls_entity.obj
 0001:00090900       ??$Method@VClsEntity@lua@csgo@aw@@$1?GetPropInt@1234@IAEXPAVBaseHandle@sdk@34@AAVState@24@@Z@?$Class@VClsEntity@lua@csgo@aw@@VBaseHandle@sdk@34@$00@lua@aw@@SAHPAUlua_State@@@Z 10091900 f i csgo-lua-x86:cls_entity.obj
 0001:00090970       ??$Method@VClsEntity@lua@csgo@aw@@$1?GetPropString@1234@IAEXPAVBaseHandle@sdk@34@AAVState@24@@Z@?$Class@VClsEntity@lua@csgo@aw@@VBaseHandle@sdk@34@$00@lua@aw@@SAHPAUlua_State@@@Z 10091970 f i csgo-lua-x86:cls_entity.obj
 0001:000909f0       ??$Method@VClsEntity@lua@csgo@aw@@$1?GetPropVector@1234@IAEXPAVBaseHandle@sdk@34@AAVState@24@@Z@?$Class@VClsEntity@lua@csgo@aw@@VBaseHandle@sdk@34@$00@lua@aw@@SAHPAUlua_State@@@Z 100919f0 f i csgo-lua-x86:cls_entity.obj
 0001:00090a50       ??$Method@VClsEntity@lua@csgo@aw@@$1?GetTeamNumber@1234@IAEXPAVBaseHandle@sdk@34@AAVState@24@@Z@?$Class@VClsEntity@lua@csgo@aw@@VBaseHandle@sdk@34@$00@lua@aw@@SAHPAUlua_State@@@Z 10091a50 f i csgo-lua-x86:cls_entity.obj
 0001:00090ac0       ??$Method@VClsEntity@lua@csgo@aw@@$1?GetWeaponID@1234@IAEXPAVBaseHandle@sdk@34@AAVState@24@@Z@?$Class@VClsEntity@lua@csgo@aw@@VBaseHandle@sdk@34@$00@lua@aw@@SAHPAUlua_State@@@Z 10091ac0 f i csgo-lua-x86:cls_entity.obj
 0001:00090b10       ??$Method@VClsEntity@lua@csgo@aw@@$1?GetWeaponInaccuracy@1234@IAEXPAVBaseHandle@sdk@34@AAVState@24@@Z@?$Class@VClsEntity@lua@csgo@aw@@VBaseHandle@sdk@34@$00@lua@aw@@SAHPAUlua_State@@@Z 10091b10 f i csgo-lua-x86:cls_entity.obj
 0001:00090b60       ??$Method@VClsEntity@lua@csgo@aw@@$1?GetWeaponSpread@1234@IAEXPAVBaseHandle@sdk@34@AAVState@24@@Z@?$Class@VClsEntity@lua@csgo@aw@@VBaseHandle@sdk@34@$00@lua@aw@@SAHPAUlua_State@@@Z 10091b60 f i csgo-lua-x86:cls_entity.obj
 0001:00090bb0       ??$Method@VClsEntity@lua@csgo@aw@@$1?GetWeaponType@1234@IAEXPAVBaseHandle@sdk@34@AAVState@24@@Z@?$Class@VClsEntity@lua@csgo@aw@@VBaseHandle@sdk@34@$00@lua@aw@@SAHPAUlua_State@@@Z 10091bb0 f i csgo-lua-x86:cls_entity.obj
 0001:00090c00       ??$Method@VClsEntity@lua@csgo@aw@@$1?IsAlive@1234@IAEXPAVBaseHandle@sdk@34@AAVState@24@@Z@?$Class@VClsEntity@lua@csgo@aw@@VBaseHandle@sdk@34@$00@lua@aw@@SAHPAUlua_State@@@Z 10091c00 f i csgo-lua-x86:cls_entity.obj
 0001:00090c80       ??$Method@VClsEntity@lua@csgo@aw@@$1?IsDormant@1234@IAEXPAVBaseHandle@sdk@34@AAVState@24@@Z@?$Class@VClsEntity@lua@csgo@aw@@VBaseHandle@sdk@34@$00@lua@aw@@SAHPAUlua_State@@@Z 10091c80 f i csgo-lua-x86:cls_entity.obj
 0001:00090cf0       ??$Method@VClsEntity@lua@csgo@aw@@$1?IsPlayer@1234@IAEXPAVBaseHandle@sdk@34@AAVState@24@@Z@?$Class@VClsEntity@lua@csgo@aw@@VBaseHandle@sdk@34@$00@lua@aw@@SAHPAUlua_State@@@Z 10091cf0 f i csgo-lua-x86:cls_entity.obj
 0001:00090d60       ??$Method@VClsEntity@lua@csgo@aw@@$1?SetProp@1234@IAEXPAVBaseHandle@sdk@34@AAVState@24@@Z@?$Class@VClsEntity@lua@csgo@aw@@VBaseHandle@sdk@34@$00@lua@aw@@SAHPAUlua_State@@@Z 10091d60 f i csgo-lua-x86:cls_entity.obj
 0001:00090db0       ??$Method@VClsEntity@lua@csgo@aw@@$1?SetPropBool@1234@IAEXPAVBaseHandle@sdk@34@AAVState@24@@Z@?$Class@VClsEntity@lua@csgo@aw@@VBaseHandle@sdk@34@$00@lua@aw@@SAHPAUlua_State@@@Z 10091db0 f i csgo-lua-x86:cls_entity.obj
 0001:00090e00       ??$Method@VClsEntity@lua@csgo@aw@@$1?SetPropEntity@1234@IAEXPAVBaseHandle@sdk@34@AAVState@24@@Z@?$Class@VClsEntity@lua@csgo@aw@@VBaseHandle@sdk@34@$00@lua@aw@@SAHPAUlua_State@@@Z 10091e00 f i csgo-lua-x86:cls_entity.obj
 0001:00090e80       ??$Method@VClsEntity@lua@csgo@aw@@$1?SetPropFloat@1234@IAEXPAVBaseHandle@sdk@34@AAVState@24@@Z@?$Class@VClsEntity@lua@csgo@aw@@VBaseHandle@sdk@34@$00@lua@aw@@SAHPAUlua_State@@@Z 10091e80 f i csgo-lua-x86:cls_entity.obj
 0001:00090f00       ??$Method@VClsEntity@lua@csgo@aw@@$1?SetPropInt@1234@IAEXPAVBaseHandle@sdk@34@AAVState@24@@Z@?$Class@VClsEntity@lua@csgo@aw@@VBaseHandle@sdk@34@$00@lua@aw@@SAHPAUlua_State@@@Z 10091f00 f i csgo-lua-x86:cls_entity.obj
 0001:00090f80       ??$Method@VClsEntity@lua@csgo@aw@@$1?SetPropVector@1234@IAEXPAVBaseHandle@sdk@34@AAVState@24@@Z@?$Class@VClsEntity@lua@csgo@aw@@VBaseHandle@sdk@34@$00@lua@aw@@SAHPAUlua_State@@@Z 10091f80 f i csgo-lua-x86:cls_entity.obj
 0001:00091010       ??$Method@VClsEntity@lua@csgo@aw@@$1?__tostring@1234@IAEXPAVBaseHandle@sdk@34@AAVState@24@@Z@?$Class@VClsEntity@lua@csgo@aw@@VBaseHandle@sdk@34@$00@lua@aw@@SAHPAUlua_State@@@Z 10092010 f i csgo-lua-x86:cls_entity.obj
 0001:00091060       ??Y?$basic_string@DU?$char_traits@D@std@@V?$allocator@D@2@@std@@QAEAAV01@QBD@Z 10092060 f i csgo-lua-x86:cls_entity.obj
 0001:000910d0       ?GetBonePosition@ClsEntity@lua@csgo@aw@@IAEXPAVBaseHandle@sdk@34@AAVState@24@@Z 100920d0 f   csgo-lua-x86:cls_entity.obj
 0001:000911a0       ?GetHitboxPosition@ClsEntity@lua@csgo@aw@@IAEXPAVBaseHandle@sdk@34@AAVState@24@@Z 100921a0 f   csgo-lua-x86:cls_entity.obj
 0001:000912e0       ?GetProp@ClsEntity@lua@csgo@aw@@IAEXPAVBaseHandle@sdk@34@AAVState@24@@Z 100922e0 f   csgo-lua-x86:cls_entity.obj
 0001:000913d0       ?GetPropEntity@ClsEntity@lua@csgo@aw@@IAEXPAVBaseHandle@sdk@34@AAVState@24@@Z 100923d0 f   csgo-lua-x86:cls_entity.obj
 0001:00091450       ?GetPropPointer@ClsEntity@lua@csgo@aw@@IAEPAXPAVBaseHandle@sdk@34@AAVState@24@H@Z 10092450 f   csgo-lua-x86:cls_entity.obj
 0001:000918b0       ?GetWeaponID@ClsEntity@lua@csgo@aw@@IAEXPAVBaseHandle@sdk@34@AAVState@24@@Z 100928b0 f   csgo-lua-x86:cls_entity.obj
 0001:00091920       ?GetWeaponInaccuracy@ClsEntity@lua@csgo@aw@@IAEXPAVBaseHandle@sdk@34@AAVState@24@@Z 10092920 f   csgo-lua-x86:cls_entity.obj
 0001:000919b0       ?GetWeaponSpread@ClsEntity@lua@csgo@aw@@IAEXPAVBaseHandle@sdk@34@AAVState@24@@Z 100929b0 f   csgo-lua-x86:cls_entity.obj
 0001:00091a30       ?GetWeaponType@ClsEntity@lua@csgo@aw@@IAEXPAVBaseHandle@sdk@34@AAVState@24@@Z 10092a30 f   csgo-lua-x86:cls_entity.obj
 0001:00091aa0       ?Init@ClsEntity@lua@csgo@aw@@UAEXPAVContext@24@@Z 10092aa0 f   csgo-lua-x86:cls_entity.obj
 0001:00093890       ?SetProp@ClsEntity@lua@csgo@aw@@IAEXPAVBaseHandle@sdk@34@AAVState@24@@Z 10094890 f   csgo-lua-x86:cls_entity.obj
 0001:000939c0       ?SetPropBool@ClsEntity@lua@csgo@aw@@IAEXPAVBaseHandle@sdk@34@AAVState@24@@Z 100949c0 f   csgo-lua-x86:cls_entity.obj
 0001:00093a40       ?__tostring@ClsEntity@lua@csgo@aw@@IAEXPAVBaseHandle@sdk@34@AAVState@24@@Z 10094a40 f   csgo-lua-x86:cls_entity.obj
 0001:00093ba0       ??$Method@VClsGameEvent@lua@csgo@aw@@$1?GetFloat@1234@AAEXPAVGameEvent@sdk@34@AAVState@24@@Z@?$Class@VClsGameEvent@lua@csgo@aw@@VGameEvent@sdk@34@$0A@@lua@aw@@SAHPAUlua_State@@@Z 10094ba0 f i csgo-lua-x86:cls_gameevent.obj
 0001:00093bf0       ??$Method@VClsGameEvent@lua@csgo@aw@@$1?GetInt@1234@AAEXPAVGameEvent@sdk@34@AAVState@24@@Z@?$Class@VClsGameEvent@lua@csgo@aw@@VGameEvent@sdk@34@$0A@@lua@aw@@SAHPAUlua_State@@@Z 10094bf0 f i csgo-lua-x86:cls_gameevent.obj
 0001:00093c40       ??$Method@VClsGameEvent@lua@csgo@aw@@$1?GetName@1234@AAEXPAVGameEvent@sdk@34@AAVState@24@@Z@?$Class@VClsGameEvent@lua@csgo@aw@@VGameEvent@sdk@34@$0A@@lua@aw@@SAHPAUlua_State@@@Z 10094c40 f i csgo-lua-x86:cls_gameevent.obj
 0001:00093cb0       ??$Method@VClsGameEvent@lua@csgo@aw@@$1?GetString@1234@AAEXPAVGameEvent@sdk@34@AAVState@24@@Z@?$Class@VClsGameEvent@lua@csgo@aw@@VGameEvent@sdk@34@$0A@@lua@aw@@SAHPAUlua_State@@@Z 10094cb0 f i csgo-lua-x86:cls_gameevent.obj
 0001:00093d00       ?GetFloat@ClsGameEvent@lua@csgo@aw@@AAEXPAVGameEvent@sdk@34@AAVState@24@@Z 10094d00 f   csgo-lua-x86:cls_gameevent.obj
 0001:00093d90       ?GetInt@ClsGameEvent@lua@csgo@aw@@AAEXPAVGameEvent@sdk@34@AAVState@24@@Z 10094d90 f   csgo-lua-x86:cls_gameevent.obj
 0001:00093e00       ?GetString@ClsGameEvent@lua@csgo@aw@@AAEXPAVGameEvent@sdk@34@AAVState@24@@Z 10094e00 f   csgo-lua-x86:cls_gameevent.obj
 0001:00093e90       ?Init@ClsGameEvent@lua@csgo@aw@@UAEXPAVContext@24@@Z 10094e90 f   csgo-lua-x86:cls_gameevent.obj
 0001:00094370       ??$Method@VClsEspBuilder@lua@csgo@aw@@$1?AddBarBottom@1234@AAEXPAVEspBuilder@mod@34@AAVState@24@@Z@?$Class@VClsEspBuilder@lua@csgo@aw@@VEspBuilder@mod@34@$0A@@lua@aw@@SAHPAUlua_State@@@Z 10095370 f i csgo-lua-x86:cls_espbuilder.obj
 0001:000943d0       ??$Method@VClsEspBuilder@lua@csgo@aw@@$1?AddBarLeft@1234@AAEXPAVEspBuilder@mod@34@AAVState@24@@Z@?$Class@VClsEspBuilder@lua@csgo@aw@@VEspBuilder@mod@34@$0A@@lua@aw@@SAHPAUlua_State@@@Z 100953d0 f i csgo-lua-x86:cls_espbuilder.obj
 0001:00094430       ??$Method@VClsEspBuilder@lua@csgo@aw@@$1?AddBarRight@1234@AAEXPAVEspBuilder@mod@34@AAVState@24@@Z@?$Class@VClsEspBuilder@lua@csgo@aw@@VEspBuilder@mod@34@$0A@@lua@aw@@SAHPAUlua_State@@@Z 10095430 f i csgo-lua-x86:cls_espbuilder.obj
 0001:00094490       ??$Method@VClsEspBuilder@lua@csgo@aw@@$1?AddBarTop@1234@AAEXPAVEspBuilder@mod@34@AAVState@24@@Z@?$Class@VClsEspBuilder@lua@csgo@aw@@VEspBuilder@mod@34@$0A@@lua@aw@@SAHPAUlua_State@@@Z 10095490 f i csgo-lua-x86:cls_espbuilder.obj
 0001:000944f0       ??$Method@VClsEspBuilder@lua@csgo@aw@@$1?AddIconBottom@1234@AAEXPAVEspBuilder@mod@34@AAVState@24@@Z@?$Class@VClsEspBuilder@lua@csgo@aw@@VEspBuilder@mod@34@$0A@@lua@aw@@SAHPAUlua_State@@@Z 100954f0 f i csgo-lua-x86:cls_espbuilder.obj
 0001:00094590       ??$Method@VClsEspBuilder@lua@csgo@aw@@$1?AddIconLeft@1234@AAEXPAVEspBuilder@mod@34@AAVState@24@@Z@?$Class@VClsEspBuilder@lua@csgo@aw@@VEspBuilder@mod@34@$0A@@lua@aw@@SAHPAUlua_State@@@Z 10095590 f i csgo-lua-x86:cls_espbuilder.obj
 0001:00094630       ??$Method@VClsEspBuilder@lua@csgo@aw@@$1?AddIconRight@1234@AAEXPAVEspBuilder@mod@34@AAVState@24@@Z@?$Class@VClsEspBuilder@lua@csgo@aw@@VEspBuilder@mod@34@$0A@@lua@aw@@SAHPAUlua_State@@@Z 10095630 f i csgo-lua-x86:cls_espbuilder.obj
 0001:000946d0       ??$Method@VClsEspBuilder@lua@csgo@aw@@$1?AddIconTop@1234@AAEXPAVEspBuilder@mod@34@AAVState@24@@Z@?$Class@VClsEspBuilder@lua@csgo@aw@@VEspBuilder@mod@34@$0A@@lua@aw@@SAHPAUlua_State@@@Z 100956d0 f i csgo-lua-x86:cls_espbuilder.obj
 0001:00094770       ??$Method@VClsEspBuilder@lua@csgo@aw@@$1?AddTextBottom@1234@AAEXPAVEspBuilder@mod@34@AAVState@24@@Z@?$Class@VClsEspBuilder@lua@csgo@aw@@VEspBuilder@mod@34@$0A@@lua@aw@@SAHPAUlua_State@@@Z 10095770 f i csgo-lua-x86:cls_espbuilder.obj
 0001:000947c0       ??$Method@VClsEspBuilder@lua@csgo@aw@@$1?AddTextLeft@1234@AAEXPAVEspBuilder@mod@34@AAVState@24@@Z@?$Class@VClsEspBuilder@lua@csgo@aw@@VEspBuilder@mod@34@$0A@@lua@aw@@SAHPAUlua_State@@@Z 100957c0 f i csgo-lua-x86:cls_espbuilder.obj
 0001:00094810       ??$Method@VClsEspBuilder@lua@csgo@aw@@$1?AddTextRight@1234@AAEXPAVEspBuilder@mod@34@AAVState@24@@Z@?$Class@VClsEspBuilder@lua@csgo@aw@@VEspBuilder@mod@34@$0A@@lua@aw@@SAHPAUlua_State@@@Z 10095810 f i csgo-lua-x86:cls_espbuilder.obj
 0001:00094860       ??$Method@VClsEspBuilder@lua@csgo@aw@@$1?AddTextTop@1234@AAEXPAVEspBuilder@mod@34@AAVState@24@@Z@?$Class@VClsEspBuilder@lua@csgo@aw@@VEspBuilder@mod@34@$0A@@lua@aw@@SAHPAUlua_State@@@Z 10095860 f i csgo-lua-x86:cls_espbuilder.obj
 0001:000948b0       ??$Method@VClsEspBuilder@lua@csgo@aw@@$1?Color@1234@AAEXPAVEspBuilder@mod@34@AAVState@24@@Z@?$Class@VClsEspBuilder@lua@csgo@aw@@VEspBuilder@mod@34@$0A@@lua@aw@@SAHPAUlua_State@@@Z 100958b0 f i csgo-lua-x86:cls_espbuilder.obj
 0001:00094900       ??$Method@VClsEspBuilder@lua@csgo@aw@@$1?GetEntity@1234@AAEXPAVEspBuilder@mod@34@AAVState@24@@Z@?$Class@VClsEspBuilder@lua@csgo@aw@@VEspBuilder@mod@34@$0A@@lua@aw@@SAHPAUlua_State@@@Z 10095900 f i csgo-lua-x86:cls_espbuilder.obj
 0001:00094950       ??$Method@VClsEspBuilder@lua@csgo@aw@@$1?GetRect@1234@AAEXPAVEspBuilder@mod@34@AAVState@24@@Z@?$Class@VClsEspBuilder@lua@csgo@aw@@VEspBuilder@mod@34@$0A@@lua@aw@@SAHPAUlua_State@@@Z 10095950 f i csgo-lua-x86:cls_espbuilder.obj
 0001:000949a0       ?AddBar@ClsEspBuilder@lua@csgo@aw@@IAEXPAVEspBuilder@mod@34@AAVState@24@W4EspPosition@cheat@4@@Z 100959a0 f   csgo-lua-x86:cls_espbuilder.obj
 0001:00094a30       ?AddTextBottom@ClsEspBuilder@lua@csgo@aw@@AAEXPAVEspBuilder@mod@34@AAVState@24@@Z 10095a30 f   csgo-lua-x86:cls_espbuilder.obj
 0001:00094a90       ?AddTextLeft@ClsEspBuilder@lua@csgo@aw@@AAEXPAVEspBuilder@mod@34@AAVState@24@@Z 10095a90 f   csgo-lua-x86:cls_espbuilder.obj
 0001:00094af0       ?AddTextRight@ClsEspBuilder@lua@csgo@aw@@AAEXPAVEspBuilder@mod@34@AAVState@24@@Z 10095af0 f   csgo-lua-x86:cls_espbuilder.obj
 0001:00094b50       ?AddTextTop@ClsEspBuilder@lua@csgo@aw@@AAEXPAVEspBuilder@mod@34@AAVState@24@@Z 10095b50 f   csgo-lua-x86:cls_espbuilder.obj
 0001:00094bb0       ?Color@ClsEspBuilder@lua@csgo@aw@@AAEXPAVEspBuilder@mod@34@AAVState@24@@Z 10095bb0 f   csgo-lua-x86:cls_espbuilder.obj
 0001:00094c80       ?Get@?$Class@VClsTexture@lua@aw@@VTexture@gfx@3@$0A@@lua@aw@@QAEPAVTexture@gfx@3@PAUlua_State@@H@Z 10095c80 f i csgo-lua-x86:cls_espbuilder.obj
 0001:00094df0       ?GetEntity@ClsEspBuilder@lua@csgo@aw@@AAEXPAVEspBuilder@mod@34@AAVState@24@@Z 10095df0 f   csgo-lua-x86:cls_espbuilder.obj
 0001:00094e70       ?GetRect@ClsEspBuilder@lua@csgo@aw@@AAEXPAVEspBuilder@mod@34@AAVState@24@@Z 10095e70 f   csgo-lua-x86:cls_espbuilder.obj
 0001:00094f50       ?Init@ClsEspBuilder@lua@csgo@aw@@UAEXPAVContext@24@@Z 10095f50 f   csgo-lua-x86:cls_espbuilder.obj
 0001:00095d90       ?Reset@ClsEspBuilder@lua@csgo@aw@@QAEXXZ 10096d90 f   csgo-lua-x86:cls_espbuilder.obj
 0001:00095da0       ??$Method@VClsUserMessage@lua@csgo@aw@@$1?GetFloat@1234@AAEXPAVUserMessage@sdk@34@AAVState@24@@Z@?$Class@VClsUserMessage@lua@csgo@aw@@VUserMessage@sdk@34@$0A@@lua@aw@@SAHPAUlua_State@@@Z 10096da0 f i csgo-lua-x86:cls_usermessage.obj
 0001:00095df0       ??$Method@VClsUserMessage@lua@csgo@aw@@$1?GetID@1234@AAEXPAVUserMessage@sdk@34@AAVState@24@@Z@?$Class@VClsUserMessage@lua@csgo@aw@@VUserMessage@sdk@34@$0A@@lua@aw@@SAHPAUlua_State@@@Z 10096df0 f i csgo-lua-x86:cls_usermessage.obj
 0001:00095e50       ??$Method@VClsUserMessage@lua@csgo@aw@@$1?GetInt@1234@AAEXPAVUserMessage@sdk@34@AAVState@24@@Z@?$Class@VClsUserMessage@lua@csgo@aw@@VUserMessage@sdk@34@$0A@@lua@aw@@SAHPAUlua_State@@@Z 10096e50 f i csgo-lua-x86:cls_usermessage.obj
 0001:00095ea0       ??$Method@VClsUserMessage@lua@csgo@aw@@$1?GetString@1234@AAEXPAVUserMessage@sdk@34@AAVState@24@@Z@?$Class@VClsUserMessage@lua@csgo@aw@@VUserMessage@sdk@34@$0A@@lua@aw@@SAHPAUlua_State@@@Z 10096ea0 f i csgo-lua-x86:cls_usermessage.obj
 0001:00095ef0       ?GetFloat@ClsUserMessage@lua@csgo@aw@@AAEXPAVUserMessage@sdk@34@AAVState@24@@Z 10096ef0 f   csgo-lua-x86:cls_usermessage.obj
 0001:00095fb0       ?GetInt@ClsUserMessage@lua@csgo@aw@@AAEXPAVUserMessage@sdk@34@AAVState@24@@Z 10096fb0 f   csgo-lua-x86:cls_usermessage.obj
 0001:00096040       ?GetString@ClsUserMessage@lua@csgo@aw@@AAEXPAVUserMessage@sdk@34@AAVState@24@@Z 10097040 f   csgo-lua-x86:cls_usermessage.obj
 0001:00096100       ?Init@ClsUserMessage@lua@csgo@aw@@UAEXPAVContext@24@@Z 10097100 f   csgo-lua-x86:cls_usermessage.obj
 0001:000965e0       ??$Method@VClsStringCmd@lua@csgo@aw@@$1?GetCmd@1234@AAEXPAUStringCmd@234@AAVState@24@@Z@?$Class@VClsStringCmd@lua@csgo@aw@@UStringCmd@234@$0A@@lua@aw@@SAHPAUlua_State@@@Z 100975e0 f i csgo-lua-x86:cls_stringcmd.obj
 0001:00096650       ??$Method@VClsStringCmd@lua@csgo@aw@@$1?SetCmd@1234@AAEXPAUStringCmd@234@AAVState@24@@Z@?$Class@VClsStringCmd@lua@csgo@aw@@UStringCmd@234@$0A@@lua@aw@@SAHPAUlua_State@@@Z 10097650 f i csgo-lua-x86:cls_stringcmd.obj
 0001:000966a0       ?Init@ClsStringCmd@lua@csgo@aw@@UAEXPAVContext@24@@Z 100976a0 f   csgo-lua-x86:cls_stringcmd.obj
 0001:000968d0       ?SetCmd@ClsStringCmd@lua@csgo@aw@@AAEXPAUStringCmd@234@AAVState@24@@Z 100978d0 f   csgo-lua-x86:cls_stringcmd.obj
 0001:00096940       ??$GetProperty@$MPQTrace@sdk@csgo@aw@@F0EI@@?$Class@VClsTrace@lua@csgo@aw@@VTrace@sdk@34@$0A@@lua@aw@@SAXPAXAAVState@12@@Z 10097940 f i csgo-lua-x86:cls_trace.obj
 0001:00096970       ??$GetProperty@$MPQTrace@sdk@csgo@aw@@G0DE@@?$Class@VClsTrace@lua@csgo@aw@@VTrace@sdk@34@$0A@@lua@aw@@SAXPAXAAVState@12@@Z 10097970 f i csgo-lua-x86:cls_trace.obj
 0001:000969a0       ??$GetProperty@$MPQTrace@sdk@csgo@aw@@H0DA@@?$Class@VClsTrace@lua@csgo@aw@@VTrace@sdk@34@$0A@@lua@aw@@SAXPAXAAVState@12@@Z 100979a0 f i csgo-lua-x86:cls_trace.obj
 0001:000969d0       ??$GetProperty@$MPQTrace@sdk@csgo@aw@@H0EE@@?$Class@VClsTrace@lua@csgo@aw@@VTrace@sdk@34@$0A@@lua@aw@@SAXPAXAAVState@12@@Z 100979d0 f i csgo-lua-x86:cls_trace.obj
 0001:00096a00       ??$GetProperty@$MPQTrace@sdk@csgo@aw@@H0FA@@?$Class@VClsTrace@lua@csgo@aw@@VTrace@sdk@34@$0A@@lua@aw@@SAXPAXAAVState@12@@Z 10097a00 f i csgo-lua-x86:cls_trace.obj
 0001:00096a30       ??$GetProperty@$MPQTrace@sdk@csgo@aw@@M0CM@@?$Class@VClsTrace@lua@csgo@aw@@VTrace@sdk@34@$0A@@lua@aw@@SAXPAXAAVState@12@@Z 10097a30 f i csgo-lua-x86:cls_trace.obj
 0001:00096a70       ??$GetProperty@$MPQTrace@sdk@csgo@aw@@M0DI@@?$Class@VClsTrace@lua@csgo@aw@@VTrace@sdk@34@$0A@@lua@aw@@SAXPAXAAVState@12@@Z 10097a70 f i csgo-lua-x86:cls_trace.obj
 0001:00096ab0       ??$GetProperty@$MPQTrace@sdk@csgo@aw@@_N0DG@@?$Class@VClsTrace@lua@csgo@aw@@VTrace@sdk@34@$0A@@lua@aw@@SAXPAXAAVState@12@@Z 10097ab0 f i csgo-lua-x86:cls_trace.obj
 0001:00096ae0       ??$GetProperty@$MPQTrace@sdk@csgo@aw@@_N0DH@@?$Class@VClsTrace@lua@csgo@aw@@VTrace@sdk@34@$0A@@lua@aw@@SAXPAXAAVState@12@@Z 10097ae0 f i csgo-lua-x86:cls_trace.obj
 0001:00096b10       ??$GetProperty@$MPQcplane_t@sdk@csgo@aw@@D0BA@@?$Class@VClsPlane@lua@csgo@aw@@Ucplane_t@sdk@34@$00@lua@aw@@SAXPAXAAVState@12@@Z 10097b10 f i csgo-lua-x86:cls_trace.obj
 0001:00096b40       ??$GetProperty@$MPQcplane_t@sdk@csgo@aw@@D0BB@@?$Class@VClsPlane@lua@csgo@aw@@Ucplane_t@sdk@34@$00@lua@aw@@SAXPAXAAVState@12@@Z 10097b40 f i csgo-lua-x86:cls_trace.obj
 0001:00096b70       ??$GetProperty@$MPQcplane_t@sdk@csgo@aw@@M0M@@?$Class@VClsPlane@lua@csgo@aw@@Ucplane_t@sdk@34@$00@lua@aw@@SAXPAXAAVState@12@@Z 10097b70 f i csgo-lua-x86:cls_trace.obj
 0001:00096bb0       ??$GetProperty@$MPQcsurface_t@sdk@csgo@aw@@F03@?$Class@VClsSurface@lua@csgo@aw@@Ucsurface_t@sdk@34@$00@lua@aw@@SAXPAXAAVState@12@@Z 10097bb0 f i csgo-lua-x86:cls_trace.obj
 0001:00096be0       ??$GetProperty@$MPQcsurface_t@sdk@csgo@aw@@G05@?$Class@VClsSurface@lua@csgo@aw@@Ucsurface_t@sdk@34@$00@lua@aw@@SAXPAXAAVState@12@@Z 10097be0 f i csgo-lua-x86:cls_trace.obj
 0001:00096c10       ??$GetPropertyObject@$MPQTrace@sdk@csgo@aw@@Ucplane_t@234@0BI@U5234@@?$Class@VClsTrace@lua@csgo@aw@@VTrace@sdk@34@$0A@@lua@aw@@SAXPAXAAVState@12@@Z 10097c10 f i csgo-lua-x86:cls_trace.obj
 0001:00096c80       ??$GetPropertyObject@$MPQTrace@sdk@csgo@aw@@Ucsurface_t@234@0DM@U5234@@?$Class@VClsTrace@lua@csgo@aw@@VTrace@sdk@34@$0A@@lua@aw@@SAXPAXAAVState@12@@Z 10097c80 f i csgo-lua-x86:cls_trace.obj
 0001:00096cf0       ??$GetPropertyObject@$MPQTrace@sdk@csgo@aw@@VVector3@4@0A@V54@@?$Class@VClsTrace@lua@csgo@aw@@VTrace@sdk@34@$0A@@lua@aw@@SAXPAXAAVState@12@@Z 10097cf0 f i csgo-lua-x86:cls_trace.obj
 0001:00096d00       ??$GetPropertyObject@$MPQTrace@sdk@csgo@aw@@VVector3@4@0M@V54@@?$Class@VClsTrace@lua@csgo@aw@@VTrace@sdk@34@$0A@@lua@aw@@SAXPAXAAVState@12@@Z 10097d00 f i csgo-lua-x86:cls_trace.obj
 0001:00096d20       ??$GetPropertyObject@$MPQcplane_t@sdk@csgo@aw@@VVector3@4@0A@V54@@?$Class@VClsPlane@lua@csgo@aw@@Ucplane_t@sdk@34@$00@lua@aw@@SAXPAXAAVState@12@@Z 10097d20 f i csgo-lua-x86:cls_trace.obj
 0001:00096d30       ??$Method@VClsTrace@lua@csgo@aw@@$1?__gc@1234@AAEXPAVTrace@sdk@34@AAVState@24@@Z@?$Class@VClsTrace@lua@csgo@aw@@VTrace@sdk@34@$0A@@lua@aw@@SAHPAUlua_State@@@Z 10097d30 f i csgo-lua-x86:cls_trace.obj
 0001:00096d80       ??$SetProperty@$MPQTrace@sdk@csgo@aw@@F0EI@F@?$Class@VClsTrace@lua@csgo@aw@@VTrace@sdk@34@$0A@@lua@aw@@SAXPAXAAVState@12@@Z 10097d80 f i csgo-lua-x86:cls_trace.obj
 0001:00096db0       ??$SetProperty@$MPQTrace@sdk@csgo@aw@@G0DE@G@?$Class@VClsTrace@lua@csgo@aw@@VTrace@sdk@34@$0A@@lua@aw@@SAXPAXAAVState@12@@Z 10097db0 f i csgo-lua-x86:cls_trace.obj
 0001:00096de0       ??$SetProperty@$MPQTrace@sdk@csgo@aw@@H0DA@H@?$Class@VClsTrace@lua@csgo@aw@@VTrace@sdk@34@$0A@@lua@aw@@SAXPAXAAVState@12@@Z 10097de0 f i csgo-lua-x86:cls_trace.obj
 0001:00096e10       ??$SetProperty@$MPQTrace@sdk@csgo@aw@@H0EE@H@?$Class@VClsTrace@lua@csgo@aw@@VTrace@sdk@34@$0A@@lua@aw@@SAXPAXAAVState@12@@Z 10097e10 f i csgo-lua-x86:cls_trace.obj
 0001:00096e40       ??$SetProperty@$MPQTrace@sdk@csgo@aw@@H0FA@H@?$Class@VClsTrace@lua@csgo@aw@@VTrace@sdk@34@$0A@@lua@aw@@SAXPAXAAVState@12@@Z 10097e40 f i csgo-lua-x86:cls_trace.obj
 0001:00096e70       ??$SetProperty@$MPQTrace@sdk@csgo@aw@@M0CM@M@?$Class@VClsTrace@lua@csgo@aw@@VTrace@sdk@34@$0A@@lua@aw@@SAXPAXAAVState@12@@Z 10097e70 f i csgo-lua-x86:cls_trace.obj
 0001:00096ea0       ??$SetProperty@$MPQTrace@sdk@csgo@aw@@M0DI@M@?$Class@VClsTrace@lua@csgo@aw@@VTrace@sdk@34@$0A@@lua@aw@@SAXPAXAAVState@12@@Z 10097ea0 f i csgo-lua-x86:cls_trace.obj
 0001:00096ed0       ??$SetProperty@$MPQTrace@sdk@csgo@aw@@_N0DG@_N@?$Class@VClsTrace@lua@csgo@aw@@VTrace@sdk@34@$0A@@lua@aw@@SAXPAXAAVState@12@@Z 10097ed0 f i csgo-lua-x86:cls_trace.obj
 0001:00096f40       ??$SetProperty@$MPQTrace@sdk@csgo@aw@@_N0DH@_N@?$Class@VClsTrace@lua@csgo@aw@@VTrace@sdk@34@$0A@@lua@aw@@SAXPAXAAVState@12@@Z 10097f40 f i csgo-lua-x86:cls_trace.obj
 0001:00096fb0       ??$SetProperty@$MPQcplane_t@sdk@csgo@aw@@D0BA@D@?$Class@VClsPlane@lua@csgo@aw@@Ucplane_t@sdk@34@$00@lua@aw@@SAXPAXAAVState@12@@Z 10097fb0 f i csgo-lua-x86:cls_trace.obj
 0001:00096fe0       ??$SetProperty@$MPQcplane_t@sdk@csgo@aw@@D0BB@D@?$Class@VClsPlane@lua@csgo@aw@@Ucplane_t@sdk@34@$00@lua@aw@@SAXPAXAAVState@12@@Z 10097fe0 f i csgo-lua-x86:cls_trace.obj
 0001:00097010       ??$SetProperty@$MPQcplane_t@sdk@csgo@aw@@M0M@M@?$Class@VClsPlane@lua@csgo@aw@@Ucplane_t@sdk@34@$00@lua@aw@@SAXPAXAAVState@12@@Z 10098010 f i csgo-lua-x86:cls_trace.obj
 0001:00097040       ??$SetProperty@$MPQcsurface_t@sdk@csgo@aw@@F03F@?$Class@VClsSurface@lua@csgo@aw@@Ucsurface_t@sdk@34@$00@lua@aw@@SAXPAXAAVState@12@@Z 10098040 f i csgo-lua-x86:cls_trace.obj
 0001:00097070       ??$SetProperty@$MPQcsurface_t@sdk@csgo@aw@@G05G@?$Class@VClsSurface@lua@csgo@aw@@Ucsurface_t@sdk@34@$00@lua@aw@@SAXPAXAAVState@12@@Z 10098070 f i csgo-lua-x86:cls_trace.obj
 0001:000970a0       ??$SetPropertyObject@$MPQTrace@sdk@csgo@aw@@Ucplane_t@234@0BI@U5234@@?$Class@VClsTrace@lua@csgo@aw@@VTrace@sdk@34@$0A@@lua@aw@@SAXPAXAAVState@12@@Z 100980a0 f i csgo-lua-x86:cls_trace.obj
 0001:000970e0       ??$SetPropertyObject@$MPQTrace@sdk@csgo@aw@@Ucsurface_t@234@0DM@U5234@@?$Class@VClsTrace@lua@csgo@aw@@VTrace@sdk@34@$0A@@lua@aw@@SAXPAXAAVState@12@@Z 100980e0 f i csgo-lua-x86:cls_trace.obj
 0001:00097120       ??$SetPropertyObject@$MPQTrace@sdk@csgo@aw@@VVector3@4@0A@V54@@?$Class@VClsTrace@lua@csgo@aw@@VTrace@sdk@34@$0A@@lua@aw@@SAXPAXAAVState@12@@Z 10098120 f i csgo-lua-x86:cls_trace.obj
 0001:00097160       ??$SetPropertyObject@$MPQTrace@sdk@csgo@aw@@VVector3@4@0M@V54@@?$Class@VClsTrace@lua@csgo@aw@@VTrace@sdk@34@$0A@@lua@aw@@SAXPAXAAVState@12@@Z 10098160 f i csgo-lua-x86:cls_trace.obj
 0001:000971a0       ??$SetPropertyObject@$MPQcplane_t@sdk@csgo@aw@@VVector3@4@0A@V54@@?$Class@VClsPlane@lua@csgo@aw@@Ucplane_t@sdk@34@$00@lua@aw@@SAXPAXAAVState@12@@Z 100981a0 f i csgo-lua-x86:cls_trace.obj
 0001:000971e0       ?GetEntity@ClsTrace@lua@csgo@aw@@CAXPAVTrace@sdk@34@AAVState@24@@Z 100981e0 f   csgo-lua-x86:cls_trace.obj
 0001:00097260       ?GetName@ClsSurface@lua@csgo@aw@@CAXPAUcsurface_t@sdk@34@AAVState@24@@Z 10098260 f   csgo-lua-x86:cls_trace.obj
 0001:000972a0       ?Init@ClsPlane@lua@csgo@aw@@UAEXPAVContext@24@@Z 100982a0 f   csgo-lua-x86:cls_trace.obj
 0001:00097640       ?Init@ClsSurface@lua@csgo@aw@@UAEXPAVContext@24@@Z 10098640 f   csgo-lua-x86:cls_trace.obj
 0001:00097920       ?Init@ClsTrace@lua@csgo@aw@@UAEXPAVContext@24@@Z 10098920 f   csgo-lua-x86:cls_trace.obj
 0001:000986c0       ?SetEntity@ClsTrace@lua@csgo@aw@@CAXPAVTrace@sdk@34@AAVState@24@@Z 100996c0 f   csgo-lua-x86:cls_trace.obj
 0001:000986d0       ?SetName@ClsSurface@lua@csgo@aw@@CAXPAUcsurface_t@sdk@34@AAVState@24@@Z 100996d0 f   csgo-lua-x86:cls_trace.obj
 0001:000986e0       ??$?0ABQAVClientClass@sdk@csgo@aw@@$$Z$$V@?$pair@QAVClientClass@sdk@csgo@aw@@V?$unordered_map@V?$basic_string@DU?$char_traits@D@std@@V?$allocator@D@2@@std@@PAVRecvProp@sdk@csgo@aw@@U?$hash@V?$basic_string@DU?$char_traits@D@std@@V?$allocator@D@2@@std@@@2@U?$equal_to@V?$basic_string@DU?$char_traits@D@std@@V?$allocator@D@2@@std@@@2@V?$allocator@U?$pair@$$CBV?$basic_string@DU?$char_traits@D@std@@V?$allocator@D@2@@std@@PAVRecvProp@sdk@csgo@aw@@@std@@@2@@std@@@std@@QAE@Upiecewise_construct_t@1@V?$tuple@ABQAVClientClass@sdk@csgo@aw@@@1@V?$tuple@$$V@1@@Z 100996e0 f i csgo-lua-x86:entitycache.obj
 0001:00098750       ??$_Emplace_reallocate@ABQAVClientClass@sdk@csgo@aw@@@?$vector@PAVClientClass@sdk@csgo@aw@@V?$allocator@PAVClientClass@sdk@csgo@aw@@@std@@@std@@AAEPAPAVClientClass@sdk@csgo@aw@@QAPAV2345@ABQAV2345@@Z 10099750 f i csgo-lua-x86:entitycache.obj
 0001:00098890       ??$_Find_last@PAVClientClass@sdk@csgo@aw@@@?$_Hash@V?$_Umap_traits@PAVClientClass@sdk@csgo@aw@@V?$unordered_map@V?$basic_string@DU?$char_traits@D@std@@V?$allocator@D@2@@std@@PAVRecvProp@sdk@csgo@aw@@U?$hash@V?$basic_string@DU?$char_traits@D@std@@V?$allocator@D@2@@std@@@2@U?$equal_to@V?$basic_string@DU?$char_traits@D@std@@V?$allocator@D@2@@std@@@2@V?$allocator@U?$pair@$$CBV?$basic_string@DU?$char_traits@D@std@@V?$allocator@D@2@@std@@PAVRecvProp@sdk@csgo@aw@@@std@@@2@@std@@V?$_Uhash_compare@PAVClientClass@sdk@csgo@aw@@U?$hash@PAVClientClass@sdk@csgo@aw@@@std@@U?$equal_to@PAVClientClass@sdk@csgo@aw@@@6@@6@V?$allocator@U?$pair@QAVClientClass@sdk@csgo@aw@@V?$unordered_map@V?$basic_string@DU?$char_traits@D@std@@V?$allocator@D@2@@std@@PAVRecvProp@sdk@csgo@aw@@U?$hash@V?$basic_string@DU?$char_traits@D@std@@V?$allocator@D@2@@std@@@2@U?$equal_to@V?$basic_string@DU?$char_traits@D@std@@V?$allocator@D@2@@std@@@2@V?$allocator@U?$pair@$$CBV?$basic_string@DU?$char_traits@D@std@@V?$allocator@D@2@@std@@PAVRecvProp@sdk@csgo@aw@@@std@@@2@@std@@@std@@@6@$0A@@std@@@std@@IBE?AU?$_Hash_find_last_result@PAU?$_List_node@U?$pair@QAVClientClass@sdk@csgo@aw@@V?$unordered_map@V?$basic_string@DU?$char_traits@D@std@@V?$allocator@D@2@@std@@PAVRecvProp@sdk@csgo@aw@@U?$hash@V?$basic_string@DU?$char_traits@D@std@@V?$allocator@D@2@@std@@@2@U?$equal_to@V?$basic_string@DU?$char_traits@D@std@@V?$allocator@D@2@@std@@@2@V?$allocator@U?$pair@$$CBV?$basic_string@DU?$char_traits@D@std@@V?$allocator@D@2@@std@@PAVRecvProp@sdk@csgo@aw@@@std@@@2@@std@@@std@@PAX@std@@@1@ABQAVClientClass@sdk@csgo@aw@@I@Z 10099890 f i csgo-lua-x86:entitycache.obj
 0001:00098900       ??$_Find_last@PAVClientClass@sdk@csgo@aw@@@?$_Hash@V?$_Umap_traits@PAVClientClass@sdk@csgo@aw@@V?$vector@PAVClientClass@sdk@csgo@aw@@V?$allocator@PAVClientClass@sdk@csgo@aw@@@std@@@std@@V?$_Uhash_compare@PAVClientClass@sdk@csgo@aw@@U?$hash@PAVClientClass@sdk@csgo@aw@@@std@@U?$equal_to@PAVClientClass@sdk@csgo@aw@@@6@@6@V?$allocator@U?$pair@QAVClientClass@sdk@csgo@aw@@V?$vector@PAVClientClass@sdk@csgo@aw@@V?$allocator@PAVClientClass@sdk@csgo@aw@@@std@@@std@@@std@@@6@$0A@@std@@@std@@IBE?AU?$_Hash_find_last_result@PAU?$_List_node@U?$pair@QAVClientClass@sdk@csgo@aw@@V?$vector@PAVClientClass@sdk@csgo@aw@@V?$allocator@PAVClientClass@sdk@csgo@aw@@@std@@@std@@@std@@PAX@std@@@1@ABQAVClientClass@sdk@csgo@aw@@I@Z 10099900 f i csgo-lua-x86:entitycache.obj
 0001:00098970       ??$_Find_last@V?$basic_string@DU?$char_traits@D@std@@V?$allocator@D@2@@std@@@?$_Hash@V?$_Umap_traits@V?$basic_string@DU?$char_traits@D@std@@V?$allocator@D@2@@std@@HV?$_Uhash_compare@V?$basic_string@DU?$char_traits@D@std@@V?$allocator@D@2@@std@@U?$hash@V?$basic_string@DU?$char_traits@D@std@@V?$allocator@D@2@@std@@@2@U?$equal_to@V?$basic_string@DU?$char_traits@D@std@@V?$allocator@D@2@@std@@@2@@2@V?$allocator@U?$pair@$$CBV?$basic_string@DU?$char_traits@D@std@@V?$allocator@D@2@@std@@H@std@@@2@$0A@@std@@@std@@IBE?AU?$_Hash_find_last_result@PAU?$_List_node@U?$pair@$$CBV?$basic_string@DU?$char_traits@D@std@@V?$allocator@D@2@@std@@H@std@@PAX@std@@@1@ABV?$basic_string@DU?$char_traits@D@std@@V?$allocator@D@2@@1@I@Z 10099970 f i csgo-lua-x86:entitycache.obj
 0001:00098a00       ??$_Find_last@V?$basic_string@DU?$char_traits@D@std@@V?$allocator@D@2@@std@@@?$_Hash@V?$_Umap_traits@V?$basic_string@DU?$char_traits@D@std@@V?$allocator@D@2@@std@@PAVClientClass@sdk@csgo@aw@@V?$_Uhash_compare@V?$basic_string@DU?$char_traits@D@std@@V?$allocator@D@2@@std@@U?$hash@V?$basic_string@DU?$char_traits@D@std@@V?$allocator@D@2@@std@@@2@U?$equal_to@V?$basic_string@DU?$char_traits@D@std@@V?$allocator@D@2@@std@@@2@@2@V?$allocator@U?$pair@$$CBV?$basic_string@DU?$char_traits@D@std@@V?$allocator@D@2@@std@@PAVClientClass@sdk@csgo@aw@@@std@@@2@$0A@@std@@@std@@IBE?AU?$_Hash_find_last_result@PAU?$_List_node@U?$pair@$$CBV?$basic_string@DU?$char_traits@D@std@@V?$allocator@D@2@@std@@PAVClientClass@sdk@csgo@aw@@@std@@PAX@std@@@1@ABV?$basic_string@DU?$char_traits@D@std@@V?$allocator@D@2@@1@I@Z 10099a00 f i csgo-lua-x86:entitycache.obj
 0001:00098a90       ??$_Find_last@V?$basic_string@DU?$char_traits@D@std@@V?$allocator@D@2@@std@@@?$_Hash@V?$_Umap_traits@V?$basic_string@DU?$char_traits@D@std@@V?$allocator@D@2@@std@@PAVRecvProp@sdk@csgo@aw@@V?$_Uhash_compare@V?$basic_string@DU?$char_traits@D@std@@V?$allocator@D@2@@std@@U?$hash@V?$basic_string@DU?$char_traits@D@std@@V?$allocator@D@2@@std@@@2@U?$equal_to@V?$basic_string@DU?$char_traits@D@std@@V?$allocator@D@2@@std@@@2@@2@V?$allocator@U?$pair@$$CBV?$basic_string@DU?$char_traits@D@std@@V?$allocator@D@2@@std@@PAVRecvProp@sdk@csgo@aw@@@std@@@2@$0A@@std@@@std@@IBE?AU?$_Hash_find_last_result@PAU?$_List_node@U?$pair@$$CBV?$basic_string@DU?$char_traits@D@std@@V?$allocator@D@2@@std@@PAVRecvProp@sdk@csgo@aw@@@std@@PAX@std@@@1@ABV?$basic_string@DU?$char_traits@D@std@@V?$allocator@D@2@@1@I@Z 10099a90 f i csgo-lua-x86:entitycache.obj
 0001:00098b20       ??$_Free_non_head@V?$allocator@U?$_List_node@U?$pair@$$CBV?$basic_string@DU?$char_traits@D@std@@V?$allocator@D@2@@std@@H@std@@PAX@std@@@std@@@?$_List_node@U?$pair@$$CBV?$basic_string@DU?$char_traits@D@std@@V?$allocator@D@2@@std@@H@std@@PAX@std@@SAXAAV?$allocator@U?$_List_node@U?$pair@$$CBV?$basic_string@DU?$char_traits@D@std@@V?$allocator@D@2@@std@@H@std@@PAX@std@@@1@PAU01@@Z 10099b20 f i csgo-lua-x86:entitycache.obj
 0001:00098b80       ??$_Free_non_head@V?$allocator@U?$_List_node@U?$pair@$$CBV?$basic_string@DU?$char_traits@D@std@@V?$allocator@D@2@@std@@PAVClientClass@sdk@csgo@aw@@@std@@PAX@std@@@std@@@?$_List_node@U?$pair@$$CBV?$basic_string@DU?$char_traits@D@std@@V?$allocator@D@2@@std@@PAVClientClass@sdk@csgo@aw@@@std@@PAX@std@@SAXAAV?$allocator@U?$_List_node@U?$pair@$$CBV?$basic_string@DU?$char_traits@D@std@@V?$allocator@D@2@@std@@PAVClientClass@sdk@csgo@aw@@@std@@PAX@std@@@1@PAU01@@Z 10099b80 f i csgo-lua-x86:entitycache.obj
 0001:00098be0       ??$_Free_non_head@V?$allocator@U?$_List_node@U?$pair@$$CBV?$basic_string@DU?$char_traits@D@std@@V?$allocator@D@2@@std@@PAVRecvProp@sdk@csgo@aw@@@std@@PAX@std@@@std@@@?$_List_node@U?$pair@$$CBV?$basic_string@DU?$char_traits@D@std@@V?$allocator@D@2@@std@@PAVRecvProp@sdk@csgo@aw@@@std@@PAX@std@@SAXAAV?$allocator@U?$_List_node@U?$pair@$$CBV?$basic_string@DU?$char_traits@D@std@@V?$allocator@D@2@@std@@PAVRecvProp@sdk@csgo@aw@@@std@@PAX@std@@@1@PAU01@@Z 10099be0 f i csgo-lua-x86:entitycache.obj
 0001:00098c40       ??$_Free_non_head@V?$allocator@U?$_List_node@U?$pair@QAVClientClass@sdk@csgo@aw@@V?$vector@PAVClientClass@sdk@csgo@aw@@V?$allocator@PAVClientClass@sdk@csgo@aw@@@std@@@std@@@std@@PAX@std@@@std@@@?$_List_node@U?$pair@QAVClientClass@sdk@csgo@aw@@V?$vector@PAVClientClass@sdk@csgo@aw@@V?$allocator@PAVClientClass@sdk@csgo@aw@@@std@@@std@@@std@@PAX@std@@SAXAAV?$allocator@U?$_List_node@U?$pair@QAVClientClass@sdk@csgo@aw@@V?$vector@PAVClientClass@sdk@csgo@aw@@V?$allocator@PAVClientClass@sdk@csgo@aw@@@std@@@std@@@std@@PAX@std@@@1@PAU01@@Z 10099c40 f i csgo-lua-x86:entitycache.obj
 0001:00098cb0       ??$_Traits_equal@U?$char_traits@D@std@@@std@@YA_NQBDI0I@Z 10099cb0 f i csgo-lua-x86:entitycache.obj
